
========================================================================

** ELF Header Information

    File Name: .\obj\I2C_Loopback.axf

    Machine class: ELFCLASS32 (32-bit)
    Data encoding: ELFDATA2LSB (Little endian)
    Header version: EV_CURRENT (Current version)
    Operating System ABI: none
    ABI Version: 0
    File Type: ET_EXEC (Executable) (2)
    Machine: EM_ARM (ARM)

    Image Entry point: 0x000002e5
    Flags: EF_ARM_HASENTRY (0x05000002)

    ARM ELF revision: 5 (ABI version 2)

    Conforms to Base float procedure-call standard

    Built with
    Component: ARM Compiler 5.06 update 6 (build 750) Tool: armasm [4d35ec]
    Component: ARM Compiler 5.06 update 6 (build 750) Tool: armlink [4d35ed]

    Header size: 52 bytes (0x34)
    Program header entry size: 32 bytes (0x20)
    Section header entry size: 40 bytes (0x28)

    Program header entries: 1
    Section header entries: 16

    Program header offset: 223816 (0x00036a48)
    Section header offset: 223848 (0x00036a68)

    Section header string table index: 15

========================================================================

** Program header #0 (PT_LOAD) [PF_X + PF_W + PF_R + PF_ARM_ENTRY]
    Size : 12132 bytes (9828 bytes in file)
    Virtual address: 0x00000000 (Alignment 8)


========================================================================

** Section #1 'ER_RO' (SHT_PROGBITS) [SHF_ALLOC + SHF_EXECINSTR]
    Size   : 9756 bytes (alignment 4)
    Address: 0x00000000

    $d.realdata
    RESET
    __Vectors
        0x00000000:    20000948    H..     DCD    536873288
        0x00000004:    000002e5    ....    DCD    741
        0x00000008:    00000325    %...    DCD    805
        0x0000000c:    00000209    ....    DCD    521
        0x00000010:    00000329    )...    DCD    809
        0x00000014:    0000032b    +...    DCD    811
        0x00000018:    0000032d    -...    DCD    813
        0x0000001c:    00000000    ....    DCD    0
        0x00000020:    00000000    ....    DCD    0
        0x00000024:    00000000    ....    DCD    0
        0x00000028:    00000000    ....    DCD    0
        0x0000002c:    0000032f    /...    DCD    815
        0x00000030:    00000331    1...    DCD    817
        0x00000034:    00000000    ....    DCD    0
        0x00000038:    00000333    3...    DCD    819
        0x0000003c:    00000335    5...    DCD    821
        0x00000040:    00000337    7...    DCD    823
        0x00000044:    00000337    7...    DCD    823
        0x00000048:    00000337    7...    DCD    823
        0x0000004c:    00000337    7...    DCD    823
        0x00000050:    00000337    7...    DCD    823
        0x00000054:    00000337    7...    DCD    823
        0x00000058:    00000337    7...    DCD    823
        0x0000005c:    00000337    7...    DCD    823
        0x00000060:    00000337    7...    DCD    823
        0x00000064:    00000337    7...    DCD    823
        0x00000068:    00000337    7...    DCD    823
        0x0000006c:    00000337    7...    DCD    823
        0x00000070:    00000337    7...    DCD    823
        0x00000074:    00000337    7...    DCD    823
        0x00000078:    00000337    7...    DCD    823
        0x0000007c:    00000337    7...    DCD    823
        0x00000080:    00000337    7...    DCD    823
        0x00000084:    00000337    7...    DCD    823
        0x00000088:    00000337    7...    DCD    823
        0x0000008c:    00000337    7...    DCD    823
        0x00000090:    00000337    7...    DCD    823
        0x00000094:    00000337    7...    DCD    823
        0x00000098:    00000337    7...    DCD    823
        0x0000009c:    00000337    7...    DCD    823
        0x000000a0:    00000337    7...    DCD    823
        0x000000a4:    00000337    7...    DCD    823
        0x000000a8:    00000337    7...    DCD    823
        0x000000ac:    00000337    7...    DCD    823
        0x000000b0:    00000337    7...    DCD    823
        0x000000b4:    00000337    7...    DCD    823
        0x000000b8:    00000337    7...    DCD    823
        0x000000bc:    00000337    7...    DCD    823
        0x000000c0:    00000337    7...    DCD    823
        0x000000c4:    00000337    7...    DCD    823
        0x000000c8:    00000337    7...    DCD    823
        0x000000cc:    00000337    7...    DCD    823
        0x000000d0:    00000337    7...    DCD    823
        0x000000d4:    00000337    7...    DCD    823
        0x000000d8:    0000034d    M...    DCD    845
        0x000000dc:    0000036d    m...    DCD    877
        0x000000e0:    00000337    7...    DCD    823
        0x000000e4:    00000337    7...    DCD    823
        0x000000e8:    00000337    7...    DCD    823
        0x000000ec:    00000337    7...    DCD    823
        0x000000f0:    00000337    7...    DCD    823
        0x000000f4:    00000337    7...    DCD    823
        0x000000f8:    00000337    7...    DCD    823
        0x000000fc:    00000337    7...    DCD    823
        0x00000100:    00000337    7...    DCD    823
        0x00000104:    00000337    7...    DCD    823
        0x00000108:    00000337    7...    DCD    823
        0x0000010c:    00000337    7...    DCD    823
        0x00000110:    00000337    7...    DCD    823
        0x00000114:    00000337    7...    DCD    823
        0x00000118:    00000337    7...    DCD    823
        0x0000011c:    00000337    7...    DCD    823
        0x00000120:    00000337    7...    DCD    823
        0x00000124:    00000337    7...    DCD    823
        0x00000128:    00000337    7...    DCD    823
        0x0000012c:    00000337    7...    DCD    823
        0x00000130:    00000337    7...    DCD    823
        0x00000134:    00000337    7...    DCD    823
        0x00000138:    00000337    7...    DCD    823
        0x0000013c:    00000337    7...    DCD    823
        0x00000140:    00000337    7...    DCD    823
        0x00000144:    00000337    7...    DCD    823
        0x00000148:    00000337    7...    DCD    823
        0x0000014c:    00000337    7...    DCD    823
        0x00000150:    00000337    7...    DCD    823
        0x00000154:    00000337    7...    DCD    823
        0x00000158:    00000337    7...    DCD    823
        0x0000015c:    00000337    7...    DCD    823
        0x00000160:    00000337    7...    DCD    823
        0x00000164:    00000337    7...    DCD    823
        0x00000168:    00000337    7...    DCD    823
        0x0000016c:    00000337    7...    DCD    823
        0x00000170:    00000337    7...    DCD    823
        0x00000174:    00000337    7...    DCD    823
        0x00000178:    00000337    7...    DCD    823
        0x0000017c:    00000337    7...    DCD    823
        0x00000180:    00000337    7...    DCD    823
        0x00000184:    00000337    7...    DCD    823
        0x00000188:    00000337    7...    DCD    823
        0x0000018c:    00000337    7...    DCD    823
        0x00000190:    00000337    7...    DCD    823
        0x00000194:    00000337    7...    DCD    823
        0x00000198:    00000337    7...    DCD    823
        0x0000019c:    00000337    7...    DCD    823
        0x000001a0:    00000337    7...    DCD    823
        0x000001a4:    00000337    7...    DCD    823
        0x000001a8:    00000337    7...    DCD    823
        0x000001ac:    00000337    7...    DCD    823
        0x000001b0:    00000337    7...    DCD    823
        0x000001b4:    00000337    7...    DCD    823
        0x000001b8:    00000337    7...    DCD    823
        0x000001bc:    00000337    7...    DCD    823
        0x000001c0:    00000337    7...    DCD    823
        0x000001c4:    00000337    7...    DCD    823
        0x000001c8:    00000337    7...    DCD    823
        0x000001cc:    00000337    7...    DCD    823
        0x000001d0:    00000337    7...    DCD    823
        0x000001d4:    00000337    7...    DCD    823
        0x000001d8:    00000337    7...    DCD    823
        0x000001dc:    00000337    7...    DCD    823
        0x000001e0:    00000337    7...    DCD    823
        0x000001e4:    00000337    7...    DCD    823
        0x000001e8:    00000337    7...    DCD    823
        0x000001ec:    00000337    7...    DCD    823
        0x000001f0:    00000337    7...    DCD    823
    $t
    .ARM.Collect$$$$00000000
    .ARM.Collect$$$$00000001
    __Vectors_End
    __main
    _main_stk
        0x000001f4:    f8dfd00c    ....    LDR      sp,__lit__00000000 ; [0x204] = 0x20000948
    .ARM.Collect$$$$00000004
    _main_scatterload
        0x000001f8:    f002f826    ..&.    BL       __scatterload ; 0x2248
    .ARM.Collect$$$$00000008
    .ARM.Collect$$$$0000000A
    .ARM.Collect$$$$0000000B
    __main_after_scatterload
    _main_clock
    _main_cpp_init
    _main_init
        0x000001fc:    4800        .H      LDR      r0,[pc,#0] ; [0x200] = 0x85b
        0x000001fe:    4700        .G      BX       r0
    $d
        0x00000200:    0000085b    [...    DCD    2139
    .ARM.Collect$$$$00002712
    __lit__00000000
    .ARM.Collect$$$$0000000D
    .ARM.Collect$$$$0000000F
    __rt_final_cpp
    __rt_final_exit
        0x00000204:    20000948    H..     DCD    536873288
    $t
    .emb_text
    $v0
    HardFault_Handler
        0x00000208:    2004        .       MOVS     r0,#4
        0x0000020a:    4671        qF      MOV      r1,lr
        0x0000020c:    4208        .B      TST      r0,r1
        0x0000020e:    d002        ..      BEQ      0x216 ; HardFault_Handler + 14
        0x00000210:    f3ef8009    ....    MRS      r0,PSP
        0x00000214:    e001        ..      B        0x21a ; HardFault_Handler + 18
        0x00000216:    f3ef8008    ....    MRS      r0,MSP
        0x0000021a:    4671        qF      MOV      r1,lr
        0x0000021c:    4a00        .J      LDR      r2,[pc,#0] ; [0x220] = 0x20bd
        0x0000021e:    4710        .G      BX       r2
    $d
        0x00000220:    000020bd    . ..    DCD    8381
    $t
    .text
    SystemCoreClockUpdate
        0x00000224:    b510        ..      PUSH     {r4,lr}
        0x00000226:    f001f868    ..h.    BL       CLK_GetPLLClockFreq ; 0x12fa
        0x0000022a:    4a29        )J      LDR      r2,[pc,#164] ; [0x2d0] = 0x20000000
        0x0000022c:    f04f4380    O..C    MOV      r3,#0x40000000
        0x00000230:    6090        .`      STR      r0,[r2,#8]
        0x00000232:    f8d31210    ....    LDR      r1,[r3,#0x210]
        0x00000236:    f0010107    ....    AND      r1,r1,#7
        0x0000023a:    2902        .)      CMP      r1,#2
        0x0000023c:    d003        ..      BEQ      0x246 ; SystemCoreClockUpdate + 34
        0x0000023e:    f102000c    ....    ADD      r0,r2,#0xc
        0x00000242:    f8500021    P.!.    LDR      r0,[r0,r1,LSL #2]
        0x00000246:    f8d31220    .. .    LDR      r1,[r3,#0x220]
        0x0000024a:    f001010f    ....    AND      r1,r1,#0xf
        0x0000024e:    1c49        I.      ADDS     r1,r1,#1
        0x00000250:    fbb0f0f1    ....    UDIV     r0,r0,r1
        0x00000254:    491f        .I      LDR      r1,[pc,#124] ; [0x2d4] = 0x7a120
        0x00000256:    6010        .`      STR      r0,[r2,#0]
        0x00000258:    4408        .D      ADD      r0,r0,r1
        0x0000025a:    0049        I.      LSLS     r1,r1,#1
        0x0000025c:    fbb0f0f1    ....    UDIV     r0,r0,r1
        0x00000260:    6050        P`      STR      r0,[r2,#4]
        0x00000262:    bd10        ..      POP      {r4,pc}
    SystemInit
        0x00000264:    481c        .H      LDR      r0,[pc,#112] ; [0x2d8] = 0xe000ed88
        0x00000266:    6801        .h      LDR      r1,[r0,#0]
        0x00000268:    f4410170    A.p.    ORR      r1,r1,#0xf00000
        0x0000026c:    6001        .`      STR      r1,[r0,#0]
        0x0000026e:    481b        .H      LDR      r0,[pc,#108] ; [0x2dc] = 0x4000c000
        0x00000270:    6cc1        .l      LDR      r1,[r0,#0x4c]
        0x00000272:    f021010f    !...    BIC      r1,r1,#0xf
        0x00000276:    f0410108    A...    ORR      r1,r1,#8
        0x0000027a:    64c1        .d      STR      r1,[r0,#0x4c]
        0x0000027c:    f04f4080    O..@    MOV      r0,#0x40000000
        0x00000280:    f8d01298    ....    LDR      r1,[r0,#0x298]
        0x00000284:    f4412180    A..!    ORR      r1,r1,#0x40000
        0x00000288:    f8c01298    ....    STR      r1,[r0,#0x298]
        0x0000028c:    f8d01208    ....    LDR      r1,[r0,#0x208]
        0x00000290:    f0410102    A...    ORR      r1,r1,#2
        0x00000294:    f8c01208    ....    STR      r1,[r0,#0x208]
        0x00000298:    4911        .I      LDR      r1,[pc,#68] ; [0x2e0] = 0x40041000
        0x0000029a:    f8d12104    ...!    LDR      r2,[r1,#0x104]
        0x0000029e:    f00232f7    ...2    AND      r2,r2,#0xf7f7f7f7
        0x000002a2:    f8c12104    ...!    STR      r2,[r1,#0x104]
        0x000002a6:    f8d12108    ...!    LDR      r2,[r1,#0x108]
        0x000002aa:    f00232f7    ...2    AND      r2,r2,#0xf7f7f7f7
        0x000002ae:    f8c12108    ...!    STR      r2,[r1,#0x108]
        0x000002b2:    f8d01208    ....    LDR      r1,[r0,#0x208]
        0x000002b6:    f0210102    !...    BIC      r1,r1,#2
        0x000002ba:    f8c01208    ....    STR      r1,[r0,#0x208]
        0x000002be:    f04f2040    O.@     MOV      r0,#0x40004000
        0x000002c2:    f8d01140    ..@.    LDR      r1,[r0,#0x140]
        0x000002c6:    f02101f0    !...    BIC      r1,r1,#0xf0
        0x000002ca:    f8c01140    ..@.    STR      r1,[r0,#0x140]
        0x000002ce:    4770        pG      BX       lr
    $d
        0x000002d0:    20000000    ...     DCD    536870912
        0x000002d4:    0007a120     ...    DCD    500000
        0x000002d8:    e000ed88    ....    DCD    3758157192
        0x000002dc:    4000c000    ...@    DCD    1073790976
        0x000002e0:    40041000    ...@    DCD    1074008064
    $t
    .text
    $v0
    Reset_Handler
        0x000002e4:    4814        .H      LDR      r0,[pc,#80] ; [0x338] = 0x40000100
        0x000002e6:    f04f0159    O.Y.    MOV      r1,#0x59
        0x000002ea:    6001        .`      STR      r1,[r0,#0]
        0x000002ec:    f04f0116    O...    MOV      r1,#0x16
        0x000002f0:    6001        .`      STR      r1,[r0,#0]
        0x000002f2:    f04f0188    O...    MOV      r1,#0x88
        0x000002f6:    6001        .`      STR      r1,[r0,#0]
        0x000002f8:    4810        .H      LDR      r0,[pc,#64] ; [0x33c] = 0x40000200
        0x000002fa:    6841        Ah      LDR      r1,[r0,#4]
        0x000002fc:    f4414180    A..A    ORR      r1,r1,#0x4000
        0x00000300:    6041        A`      STR      r1,[r0,#4]
        0x00000302:    480f        .H      LDR      r0,[pc,#60] ; [0x340] = 0x40007000
        0x00000304:    6841        Ah      LDR      r1,[r0,#4]
        0x00000306:    f0410102    A...    ORR      r1,r1,#2
        0x0000030a:    6041        A`      STR      r1,[r0,#4]
        0x0000030c:    6841        Ah      LDR      r1,[r0,#4]
        0x0000030e:    f0410104    A...    ORR      r1,r1,#4
        0x00000312:    6041        A`      STR      r1,[r0,#4]
        0x00000314:    480b        .H      LDR      r0,[pc,#44] ; [0x344] = 0x265
        0x00000316:    4780        .G      BLX      r0
        0x00000318:    4807        .H      LDR      r0,[pc,#28] ; [0x338] = 0x40000100
        0x0000031a:    f04f0100    O...    MOV      r1,#0
        0x0000031e:    6001        .`      STR      r1,[r0,#0]
        0x00000320:    4809        .H      LDR      r0,[pc,#36] ; [0x348] = 0x1f5
        0x00000322:    4700        .G      BX       r0
    NMI_Handler
        0x00000324:    e7fe        ..      B        NMI_Handler ; 0x324
        0x00000326:    e7fe        ..      B        0x326 ; NMI_Handler + 2
    MemManage_Handler
        0x00000328:    e7fe        ..      B        MemManage_Handler ; 0x328
    BusFault_Handler
        0x0000032a:    e7fe        ..      B        BusFault_Handler ; 0x32a
    UsageFault_Handler
        0x0000032c:    e7fe        ..      B        UsageFault_Handler ; 0x32c
    SVC_Handler
        0x0000032e:    e7fe        ..      B        SVC_Handler ; 0x32e
    DebugMon_Handler
        0x00000330:    e7fe        ..      B        DebugMon_Handler ; 0x330
    PendSV_Handler
        0x00000332:    e7fe        ..      B        PendSV_Handler ; 0x332
    SysTick_Handler
        0x00000334:    e7fe        ..      B        SysTick_Handler ; 0x334
    Default_Handler
    ACMP01_IRQHandler
    BOD_IRQHandler
    BPWM0_IRQHandler
    BPWM1_IRQHandler
    BRAKE0_IRQHandler
    BRAKE1_IRQHandler
    CAN0_IRQHandler
    CAN1_IRQHandler
    CAN2_IRQHandler
    CCAP_IRQHandler
    CKFAIL_IRQHandler
    CRYPTO_IRQHandler
    DAC_IRQHandler
    EADC00_IRQHandler
    EADC01_IRQHandler
    EADC02_IRQHandler
    EADC03_IRQHandler
    EADC10_IRQHandler
    EADC11_IRQHandler
    EADC12_IRQHandler
    EADC13_IRQHandler
    ECAP0_IRQHandler
    ECAP1_IRQHandler
    EHCI_IRQHandler
    EINT0_IRQHandler
    EINT1_IRQHandler
    EINT2_IRQHandler
    EINT3_IRQHandler
    EINT4_IRQHandler
    EINT5_IRQHandler
    EINT6_IRQHandler
    EINT7_IRQHandler
    EMAC_RX_IRQHandler
    EMAC_TX_IRQHandler
    EPWM0P0_IRQHandler
    EPWM0P1_IRQHandler
    EPWM0P2_IRQHandler
    EPWM1P0_IRQHandler
    EPWM1P1_IRQHandler
    EPWM1P2_IRQHandler
    GPA_IRQHandler
    GPB_IRQHandler
    GPC_IRQHandler
    GPD_IRQHandler
    GPE_IRQHandler
    GPF_IRQHandler
    GPG_IRQHandler
    GPH_IRQHandler
    I2C2_IRQHandler
    I2S0_IRQHandler
    IRC_IRQHandler
    OHCI_IRQHandler
    OPA0_IRQHandler
    PDMA_IRQHandler
    PWRWU_IRQHandler
    QEI0_IRQHandler
    QEI1_IRQHandler
    QSPI0_IRQHandler
    QSPI1_IRQHandler
    RAMPE_IRQHandler
    RTC_IRQHandler
    SC0_IRQHandler
    SC1_IRQHandler
    SC2_IRQHandler
    SDH0_IRQHandler
    SDH1_IRQHandler
    SPI0_IRQHandler
    SPI1_IRQHandler
    SPI2_IRQHandler
    SPI3_IRQHandler
    SPIM_IRQHandler
    TAMPER_IRQHandler
    TMR0_IRQHandler
    TMR1_IRQHandler
    TMR2_IRQHandler
    TMR3_IRQHandler
    TRNG_IRQHandler
    UART0_IRQHandler
    UART1_IRQHandler
    UART2_IRQHandler
    UART3_IRQHandler
    UART4_IRQHandler
    UART5_IRQHandler
    UART6_IRQHandler
    UART7_IRQHandler
    USBD20_IRQHandler
    USBD_IRQHandler
    USBOTG20_IRQHandler
    USBOTG_IRQHandler
    USCI0_IRQHandler
    USCI1_IRQHandler
    WDT_IRQHandler
    WWDT_IRQHandler
        0x00000336:    e7fe        ..      B        Default_Handler ; 0x336
    $d
        0x00000338:    40000100    ...@    DCD    1073742080
        0x0000033c:    40000200    ...@    DCD    1073742336
        0x00000340:    40007000    .p.@    DCD    1073770496
        0x00000344:    00000265    e...    DCD    613
        0x00000348:    000001f5    ....    DCD    501
    $t
    .text
    I2C0_IRQHandler
        0x0000034c:    49fe        .I      LDR      r1,[pc,#1016] ; [0x748] = 0x40080000
        0x0000034e:    68c8        .h      LDR      r0,[r1,#0xc]
        0x00000350:    694a        Ji      LDR      r2,[r1,#0x14]
        0x00000352:    43d2        .C      MVNS     r2,r2
        0x00000354:    07d2        ..      LSLS     r2,r2,#31
        0x00000356:    d005        ..      BEQ      0x364 ; I2C0_IRQHandler + 24
        0x00000358:    49fc        .I      LDR      r1,[pc,#1008] ; [0x74c] = 0x2000002c
        0x0000035a:    68ca        .h      LDR      r2,[r1,#0xc]
        0x0000035c:    2a00        .*      CMP      r2,#0
        0x0000035e:    d004        ..      BEQ      0x36a ; I2C0_IRQHandler + 30
        0x00000360:    68c9        .h      LDR      r1,[r1,#0xc]
        0x00000362:    4708        .G      BX       r1
        0x00000364:    4608        .F      MOV      r0,r1
        0x00000366:    f001ba2c    ..,.    B.W      I2C_ClearTimeoutFlag ; 0x17c2
        0x0000036a:    4770        pG      BX       lr
    I2C1_IRQHandler
        0x0000036c:    49f8        .I      LDR      r1,[pc,#992] ; [0x750] = 0x40081000
        0x0000036e:    68c8        .h      LDR      r0,[r1,#0xc]
        0x00000370:    694a        Ji      LDR      r2,[r1,#0x14]
        0x00000372:    43d2        .C      MVNS     r2,r2
        0x00000374:    07d2        ..      LSLS     r2,r2,#31
        0x00000376:    d005        ..      BEQ      0x384 ; I2C1_IRQHandler + 24
        0x00000378:    49f4        .I      LDR      r1,[pc,#976] ; [0x74c] = 0x2000002c
        0x0000037a:    690a        .i      LDR      r2,[r1,#0x10]
        0x0000037c:    2a00        .*      CMP      r2,#0
        0x0000037e:    d004        ..      BEQ      0x38a ; I2C1_IRQHandler + 30
        0x00000380:    6909        .i      LDR      r1,[r1,#0x10]
        0x00000382:    4708        .G      BX       r1
        0x00000384:    4608        .F      MOV      r0,r1
        0x00000386:    f001ba1c    ....    B.W      I2C_ClearTimeoutFlag ; 0x17c2
        0x0000038a:    4770        pG      BX       lr
    I2C_MasterRx
        0x0000038c:    b570        p.      PUSH     {r4-r6,lr}
        0x0000038e:    4def        .M      LDR      r5,[pc,#956] ; [0x74c] = 0x2000002c
        0x00000390:    4ced        .L      LDR      r4,[pc,#948] ; [0x748] = 0x40080000
        0x00000392:    2808        .(      CMP      r0,#8
        0x00000394:    786a        jx      LDRB     r2,[r5,#1]
        0x00000396:    d018        ..      BEQ      0x3ca ; I2C_MasterRx + 62
        0x00000398:    4629        )F      MOV      r1,r5
        0x0000039a:    f1050608    ....    ADD      r6,r5,#8
        0x0000039e:    78c9        .x      LDRB     r1,[r1,#3]
        0x000003a0:    1c4b        K.      ADDS     r3,r1,#1
        0x000003a2:    b2db        ..      UXTB     r3,r3
        0x000003a4:    2818        .(      CMP      r0,#0x18
        0x000003a6:    d020         .      BEQ      0x3ea ; I2C_MasterRx + 94
        0x000003a8:    2820         (      CMP      r0,#0x20
        0x000003aa:    d012        ..      BEQ      0x3d2 ; I2C_MasterRx + 70
        0x000003ac:    2828        ((      CMP      r0,#0x28
        0x000003ae:    d01a        ..      BEQ      0x3e6 ; I2C_MasterRx + 90
        0x000003b0:    2101        .!      MOVS     r1,#1
        0x000003b2:    2810        .(      CMP      r0,#0x10
        0x000003b4:    d023        #.      BEQ      0x3fe ; I2C_MasterRx + 114
        0x000003b6:    2840        @(      CMP      r0,#0x40
        0x000003b8:    d024        $.      BEQ      0x404 ; I2C_MasterRx + 120
        0x000003ba:    2858        X(      CMP      r0,#0x58
        0x000003bc:    d028        (.      BEQ      0x410 ; I2C_MasterRx + 132
        0x000003be:    e8bd4070    ..p@    POP      {r4-r6,lr}
        0x000003c2:    4601        .F      MOV      r1,r0
        0x000003c4:    a0e3        ..      ADR      r0,{pc}+0x390 ; 0x754
        0x000003c6:    f001bf71    ..q.    B.W      __0printf$5 ; 0x22ac
        0x000003ca:    0050        P.      LSLS     r0,r2,#1
        0x000003cc:    e019        ..      B        0x402 ; I2C_MasterRx + 118
        0x000003ce:    6020         `      STR      r0,[r4,#0]
        0x000003d0:    bd70        p.      POP      {r4-r6,pc}
        0x000003d2:    4620         F      MOV      r0,r4
        0x000003d4:    f000fada    ....    BL       I2C_STOP ; 0x98c
        0x000003d8:    6821        !h      LDR      r1,[r4,#0]
        0x000003da:    f0210108    !...    BIC      r1,r1,#8
        0x000003de:    f0410120    A. .    ORR      r1,r1,#0x20
        0x000003e2:    6021        !`      STR      r1,[r4,#0]
        0x000003e4:    bd70        p.      POP      {r4-r6,pc}
        0x000003e6:    2902        .)      CMP      r1,#2
        0x000003e8:    d003        ..      BEQ      0x3f2 ; I2C_MasterRx + 102
        0x000003ea:    5c70        p\      LDRB     r0,[r6,r1]
        0x000003ec:    60a0        .`      STR      r0,[r4,#8]
        0x000003ee:    70eb        .p      STRB     r3,[r5,#3]
        0x000003f0:    e008        ..      B        0x404 ; I2C_MasterRx + 120
        0x000003f2:    6820         h      LDR      r0,[r4,#0]
        0x000003f4:    f020003c     .<.    BIC      r0,r0,#0x3c
        0x000003f8:    f0400028    @.(.    ORR      r0,r0,#0x28
        0x000003fc:    e7e7        ..      B        0x3ce ; I2C_MasterRx + 66
        0x000003fe:    eb010042    ..B.    ADD      r0,r1,r2,LSL #1
        0x00000402:    60a0        .`      STR      r0,[r4,#8]
        0x00000404:    6820         h      LDR      r0,[r4,#0]
        0x00000406:    f020003c     .<.    BIC      r0,r0,#0x3c
        0x0000040a:    f0400008    @...    ORR      r0,r0,#8
        0x0000040e:    e7de        ..      B        0x3ce ; I2C_MasterRx + 66
        0x00000410:    68a0        .h      LDR      r0,[r4,#8]
        0x00000412:    70a8        .p      STRB     r0,[r5,#2]
        0x00000414:    6820         h      LDR      r0,[r4,#0]
        0x00000416:    f020003c     .<.    BIC      r0,r0,#0x3c
        0x0000041a:    f0400018    @...    ORR      r0,r0,#0x18
        0x0000041e:    6020         `      STR      r0,[r4,#0]
        0x00000420:    7029        )p      STRB     r1,[r5,#0]
        0x00000422:    bd70        p.      POP      {r4-r6,pc}
    I2C_MasterTx
        0x00000424:    b570        p.      PUSH     {r4-r6,lr}
        0x00000426:    4cc8        .L      LDR      r4,[pc,#800] ; [0x748] = 0x40080000
        0x00000428:    4bc8        .K      LDR      r3,[pc,#800] ; [0x74c] = 0x2000002c
        0x0000042a:    2808        .(      CMP      r0,#8
        0x0000042c:    d011        ..      BEQ      0x452 ; I2C_MasterTx + 46
        0x0000042e:    4619        .F      MOV      r1,r3
        0x00000430:    f1030508    ....    ADD      r5,r3,#8
        0x00000434:    78c9        .x      LDRB     r1,[r1,#3]
        0x00000436:    1c4a        J.      ADDS     r2,r1,#1
        0x00000438:    b2d2        ..      UXTB     r2,r2
        0x0000043a:    2818        .(      CMP      r0,#0x18
        0x0000043c:    d01f        ..      BEQ      0x47e ; I2C_MasterTx + 90
        0x0000043e:    2820         (      CMP      r0,#0x20
        0x00000440:    d011        ..      BEQ      0x466 ; I2C_MasterTx + 66
        0x00000442:    2828        ((      CMP      r0,#0x28
        0x00000444:    d019        ..      BEQ      0x47a ; I2C_MasterTx + 86
        0x00000446:    e8bd4070    ..p@    POP      {r4-r6,lr}
        0x0000044a:    4601        .F      MOV      r1,r0
        0x0000044c:    a0c1        ..      ADR      r0,{pc}+0x308 ; 0x754
        0x0000044e:    f001bf2d    ..-.    B.W      __0printf$5 ; 0x22ac
        0x00000452:    7858        Xx      LDRB     r0,[r3,#1]
        0x00000454:    0040        @.      LSLS     r0,r0,#1
        0x00000456:    60a0        .`      STR      r0,[r4,#8]
        0x00000458:    6820         h      LDR      r0,[r4,#0]
        0x0000045a:    f020003c     .<.    BIC      r0,r0,#0x3c
        0x0000045e:    f0400008    @...    ORR      r0,r0,#8
        0x00000462:    6020         `      STR      r0,[r4,#0]
        0x00000464:    bd70        p.      POP      {r4-r6,pc}
        0x00000466:    4620         F      MOV      r0,r4
        0x00000468:    f000fa90    ....    BL       I2C_STOP ; 0x98c
        0x0000046c:    6821        !h      LDR      r1,[r4,#0]
        0x0000046e:    f0210108    !...    BIC      r1,r1,#8
        0x00000472:    f0410120    A. .    ORR      r1,r1,#0x20
        0x00000476:    6021        !`      STR      r1,[r4,#0]
        0x00000478:    bd70        p.      POP      {r4-r6,pc}
        0x0000047a:    2903        .)      CMP      r1,#3
        0x0000047c:    d003        ..      BEQ      0x486 ; I2C_MasterTx + 98
        0x0000047e:    5c68        h\      LDRB     r0,[r5,r1]
        0x00000480:    60a0        .`      STR      r0,[r4,#8]
        0x00000482:    70da        .p      STRB     r2,[r3,#3]
        0x00000484:    e7e8        ..      B        0x458 ; I2C_MasterTx + 52
        0x00000486:    6820         h      LDR      r0,[r4,#0]
        0x00000488:    f020003c     .<.    BIC      r0,r0,#0x3c
        0x0000048c:    f0400018    @...    ORR      r0,r0,#0x18
        0x00000490:    6020         `      STR      r0,[r4,#0]
        0x00000492:    2001        .       MOVS     r0,#1
        0x00000494:    7018        .p      STRB     r0,[r3,#0]
        0x00000496:    bd70        p.      POP      {r4-r6,pc}
    I2C_SlaveTRx
        0x00000498:    b4f0        ..      PUSH     {r4-r7}
        0x0000049a:    2400        .$      MOVS     r4,#0
        0x0000049c:    4aac        .J      LDR      r2,[pc,#688] ; [0x750] = 0x40081000
        0x0000049e:    4bab        .K      LDR      r3,[pc,#684] ; [0x74c] = 0x2000002c
        0x000004a0:    2860        `(      CMP      r0,#0x60
        0x000004a2:    d026        &.      BEQ      0x4f2 ; I2C_SlaveTRx + 90
        0x000004a4:    4619        .F      MOV      r1,r3
        0x000004a6:    4eb3        .N      LDR      r6,[pc,#716] ; [0x774] = 0x20000048
        0x000004a8:    6949        Ii      LDR      r1,[r1,#0x14]
        0x000004aa:    2880        .(      CMP      r0,#0x80
        0x000004ac:    d00c        ..      BEQ      0x4c8 ; I2C_SlaveTRx + 48
        0x000004ae:    28a8        .(      CMP      r0,#0xa8
        0x000004b0:    d028        (.      BEQ      0x504 ; I2C_SlaveTRx + 108
        0x000004b2:    28c0        .(      CMP      r0,#0xc0
        0x000004b4:    d01e        ..      BEQ      0x4f4 ; I2C_SlaveTRx + 92
        0x000004b6:    2888        .(      CMP      r0,#0x88
        0x000004b8:    d01b        ..      BEQ      0x4f2 ; I2C_SlaveTRx + 90
        0x000004ba:    28a0        .(      CMP      r0,#0xa0
        0x000004bc:    d019        ..      BEQ      0x4f2 ; I2C_SlaveTRx + 90
        0x000004be:    bcf0        ..      POP      {r4-r7}
        0x000004c0:    4601        .F      MOV      r1,r0
        0x000004c2:    a0a4        ..      ADR      r0,{pc}+0x292 ; 0x754
        0x000004c4:    f001bef2    ....    B.W      __0printf$5 ; 0x22ac
        0x000004c8:    6897        .h      LDR      r7,[r2,#8]
        0x000004ca:    4da0        .M      LDR      r5,[pc,#640] ; [0x74c] = 0x2000002c
        0x000004cc:    7918        .y      LDRB     r0,[r3,#4]
        0x000004ce:    1d6d        m.      ADDS     r5,r5,#5
        0x000004d0:    542f        /T      STRB     r7,[r5,r0]
        0x000004d2:    1c40        @.      ADDS     r0,r0,#1
        0x000004d4:    b2c0        ..      UXTB     r0,r0
        0x000004d6:    7118        .q      STRB     r0,[r3,#4]
        0x000004d8:    2802        .(      CMP      r0,#2
        0x000004da:    d002        ..      BEQ      0x4e2 ; I2C_SlaveTRx + 74
        0x000004dc:    2803        .(      CMP      r0,#3
        0x000004de:    d006        ..      BEQ      0x4ee ; I2C_SlaveTRx + 86
        0x000004e0:    e008        ..      B        0x4f4 ; I2C_SlaveTRx + 92
        0x000004e2:    7868        hx      LDRB     r0,[r5,#1]
        0x000004e4:    7829        )x      LDRB     r1,[r5,#0]
        0x000004e6:    eb002001    ...     ADD      r0,r0,r1,LSL #8
        0x000004ea:    6158        Xa      STR      r0,[r3,#0x14]
        0x000004ec:    e002        ..      B        0x4f4 ; I2C_SlaveTRx + 92
        0x000004ee:    78a8        .x      LDRB     r0,[r5,#2]
        0x000004f0:    5470        pT      STRB     r0,[r6,r1]
        0x000004f2:    711c        .q      STRB     r4,[r3,#4]
        0x000004f4:    6810        .h      LDR      r0,[r2,#0]
        0x000004f6:    f020003c     .<.    BIC      r0,r0,#0x3c
        0x000004fa:    f040000c    @...    ORR      r0,r0,#0xc
        0x000004fe:    6010        .`      STR      r0,[r2,#0]
        0x00000500:    bcf0        ..      POP      {r4-r7}
        0x00000502:    4770        pG      BX       lr
        0x00000504:    5c70        p\      LDRB     r0,[r6,r1]
        0x00000506:    6090        .`      STR      r0,[r2,#8]
        0x00000508:    1c49        I.      ADDS     r1,r1,#1
        0x0000050a:    6159        Ya      STR      r1,[r3,#0x14]
        0x0000050c:    e7f2        ..      B        0x4f4 ; I2C_SlaveTRx + 92
    SYS_Init
        0x0000050e:    b570        p.      PUSH     {r4-r6,lr}
        0x00000510:    f04f2540    O.@%    MOV      r5,#0x40004000
        0x00000514:    f8d50140    ..@.    LDR      r0,[r5,#0x140]
        0x00000518:    f02000f0     ...    BIC      r0,r0,#0xf0
        0x0000051c:    f8c50140    ..@.    STR      r0,[r5,#0x140]
        0x00000520:    2001        .       MOVS     r0,#1
        0x00000522:    f001f813    ....    BL       CLK_EnableXtalRC ; 0x154c
        0x00000526:    2001        .       MOVS     r0,#1
        0x00000528:    f000fea3    ....    BL       CLK_WaitClockReady ; 0x1272
        0x0000052c:    4892        .H      LDR      r0,[pc,#584] ; [0x778] = 0xb71b000
        0x0000052e:    f000ffc3    ....    BL       CLK_SetCoreClock ; 0x14b8
        0x00000532:    2011        .       MOVS     r0,#0x11
        0x00000534:    0784        ..      LSLS     r4,r0,#30
        0x00000536:    f8c40234    ..4.    STR      r0,[r4,#0x234]
        0x0000053a:    4e90        .N      LDR      r6,[pc,#576] ; [0x77c] = 0x57803d10
        0x0000053c:    4630        0F      MOV      r0,r6
        0x0000053e:    f000fdd5    ....    BL       CLK_EnableModuleClock ; 0x10ec
        0x00000542:    488f        .H      LDR      r0,[pc,#572] ; [0x780] = 0x40000008
        0x00000544:    f000fdd2    ....    BL       CLK_EnableModuleClock ; 0x10ec
        0x00000548:    488d        .H      LDR      r0,[pc,#564] ; [0x780] = 0x40000008
        0x0000054a:    1c40        @.      ADDS     r0,r0,#1
        0x0000054c:    f000fdce    ....    BL       CLK_EnableModuleClock ; 0x10ec
        0x00000550:    2200        ."      MOVS     r2,#0
        0x00000552:    4611        .F      MOV      r1,r2
        0x00000554:    4630        0F      MOV      r0,r6
        0x00000556:    f000fd81    ....    BL       CLK_SetModuleClock ; 0x105c
        0x0000055a:    f7fffe63    ..c.    BL       SystemCoreClockUpdate ; 0x224
        0x0000055e:    6be0        .k      LDR      r0,[r4,#0x3c]
        0x00000560:    f420007f     ...    BIC      r0,r0,#0xff0000
        0x00000564:    63e0        .c      STR      r0,[r4,#0x3c]
        0x00000566:    6be0        .k      LDR      r0,[r4,#0x3c]
        0x00000568:    f44000cc    @...    ORR      r0,r0,#0x660000
        0x0000056c:    63e0        .c      STR      r0,[r4,#0x3c]
        0x0000056e:    6b20         k      LDR      r0,[r4,#0x30]
        0x00000570:    f420007f     ...    BIC      r0,r0,#0xff0000
        0x00000574:    f4400019    @...    ORR      r0,r0,#0x990000
        0x00000578:    6320         c      STR      r0,[r4,#0x30]
        0x0000057a:    6b20         k      LDR      r0,[r4,#0x30]
        0x0000057c:    f420407f     ..@    BIC      r0,r0,#0xff00
        0x00000580:    f4404019    @..@    ORR      r0,r0,#0x9900
        0x00000584:    6320         c      STR      r0,[r4,#0x30]
        0x00000586:    6a68        hj      LDR      r0,[r5,#0x24]
        0x00000588:    f0400020    @. .    ORR      r0,r0,#0x20
        0x0000058c:    6268        hb      STR      r0,[r5,#0x24]
        0x0000058e:    6a68        hj      LDR      r0,[r5,#0x24]
        0x00000590:    f0400008    @...    ORR      r0,r0,#8
        0x00000594:    6268        hb      STR      r0,[r5,#0x24]
        0x00000596:    bd70        p.      POP      {r4-r6,pc}
    I2C0_Init
        0x00000598:    b510        ..      PUSH     {r4,lr}
        0x0000059a:    4c6b        kL      LDR      r4,[pc,#428] ; [0x748] = 0x40080000
        0x0000059c:    4979        yI      LDR      r1,[pc,#484] ; [0x784] = 0x186a0
        0x0000059e:    4620         F      MOV      r0,r4
        0x000005a0:    f001f8d4    ....    BL       I2C_Open ; 0x174c
        0x000005a4:    4620         F      MOV      r0,r4
        0x000005a6:    f001f92f    ../.    BL       I2C_GetBusClockFreq ; 0x1808
        0x000005aa:    4601        .F      MOV      r1,r0
        0x000005ac:    a076        v.      ADR      r0,{pc}+0x1dc ; 0x788
        0x000005ae:    f001fe7d    ..}.    BL       __0printf$5 ; 0x22ac
        0x000005b2:    2300        .#      MOVS     r3,#0
        0x000005b4:    2215        ."      MOVS     r2,#0x15
        0x000005b6:    4619        .F      MOV      r1,r3
        0x000005b8:    4620         F      MOV      r0,r4
        0x000005ba:    f001f95d    ..].    BL       I2C_SetSlaveAddr ; 0x1878
        0x000005be:    2300        .#      MOVS     r3,#0
        0x000005c0:    2235        5"      MOVS     r2,#0x35
        0x000005c2:    2101        .!      MOVS     r1,#1
        0x000005c4:    4620         F      MOV      r0,r4
        0x000005c6:    f001f957    ..W.    BL       I2C_SetSlaveAddr ; 0x1878
        0x000005ca:    2300        .#      MOVS     r3,#0
        0x000005cc:    2255        U"      MOVS     r2,#0x55
        0x000005ce:    2102        .!      MOVS     r1,#2
        0x000005d0:    4620         F      MOV      r0,r4
        0x000005d2:    f001f951    ..Q.    BL       I2C_SetSlaveAddr ; 0x1878
        0x000005d6:    2300        .#      MOVS     r3,#0
        0x000005d8:    2275        u"      MOVS     r2,#0x75
        0x000005da:    2103        .!      MOVS     r1,#3
        0x000005dc:    4620         F      MOV      r0,r4
        0x000005de:    f001f94b    ..K.    BL       I2C_SetSlaveAddr ; 0x1878
        0x000005e2:    2201        ."      MOVS     r2,#1
        0x000005e4:    2100        .!      MOVS     r1,#0
        0x000005e6:    4620         F      MOV      r0,r4
        0x000005e8:    f001f956    ..V.    BL       I2C_SetSlaveAddrMask ; 0x1898
        0x000005ec:    2204        ."      MOVS     r2,#4
        0x000005ee:    2101        .!      MOVS     r1,#1
        0x000005f0:    4620         F      MOV      r0,r4
        0x000005f2:    f001f951    ..Q.    BL       I2C_SetSlaveAddrMask ; 0x1898
        0x000005f6:    2201        ."      MOVS     r2,#1
        0x000005f8:    2102        .!      MOVS     r1,#2
        0x000005fa:    4620         F      MOV      r0,r4
        0x000005fc:    f001f94c    ..L.    BL       I2C_SetSlaveAddrMask ; 0x1898
        0x00000600:    2204        ."      MOVS     r2,#4
        0x00000602:    2103        .!      MOVS     r1,#3
        0x00000604:    4620         F      MOV      r0,r4
        0x00000606:    f001f947    ..G.    BL       I2C_SetSlaveAddrMask ; 0x1898
        0x0000060a:    4620         F      MOV      r0,r4
        0x0000060c:    f001f8f7    ....    BL       I2C_EnableInt ; 0x17fe
        0x00000610:    e8bd4010    ...@    POP      {r4,lr}
        0x00000614:    2026        &       MOVS     r0,#0x26
        0x00000616:    f000b9a3    ....    B.W      NVIC_EnableIRQ ; 0x960
    I2C1_Init
        0x0000061a:    b510        ..      PUSH     {r4,lr}
        0x0000061c:    4c4c        LL      LDR      r4,[pc,#304] ; [0x750] = 0x40081000
        0x0000061e:    4959        YI      LDR      r1,[pc,#356] ; [0x784] = 0x186a0
        0x00000620:    4620         F      MOV      r0,r4
        0x00000622:    f001f893    ....    BL       I2C_Open ; 0x174c
        0x00000626:    4620         F      MOV      r0,r4
        0x00000628:    f001f8ee    ....    BL       I2C_GetBusClockFreq ; 0x1808
        0x0000062c:    4601        .F      MOV      r1,r0
        0x0000062e:    a05b        [.      ADR      r0,{pc}+0x16e ; 0x79c
        0x00000630:    f001fe3c    ..<.    BL       __0printf$5 ; 0x22ac
        0x00000634:    2300        .#      MOVS     r3,#0
        0x00000636:    2216        ."      MOVS     r2,#0x16
        0x00000638:    4619        .F      MOV      r1,r3
        0x0000063a:    4620         F      MOV      r0,r4
        0x0000063c:    f001f91c    ....    BL       I2C_SetSlaveAddr ; 0x1878
        0x00000640:    2300        .#      MOVS     r3,#0
        0x00000642:    2236        6"      MOVS     r2,#0x36
        0x00000644:    2101        .!      MOVS     r1,#1
        0x00000646:    4620         F      MOV      r0,r4
        0x00000648:    f001f916    ....    BL       I2C_SetSlaveAddr ; 0x1878
        0x0000064c:    2300        .#      MOVS     r3,#0
        0x0000064e:    2256        V"      MOVS     r2,#0x56
        0x00000650:    2102        .!      MOVS     r1,#2
        0x00000652:    4620         F      MOV      r0,r4
        0x00000654:    f001f910    ....    BL       I2C_SetSlaveAddr ; 0x1878
        0x00000658:    2300        .#      MOVS     r3,#0
        0x0000065a:    2276        v"      MOVS     r2,#0x76
        0x0000065c:    2103        .!      MOVS     r1,#3
        0x0000065e:    4620         F      MOV      r0,r4
        0x00000660:    f001f90a    ....    BL       I2C_SetSlaveAddr ; 0x1878
        0x00000664:    2204        ."      MOVS     r2,#4
        0x00000666:    2100        .!      MOVS     r1,#0
        0x00000668:    4620         F      MOV      r0,r4
        0x0000066a:    f001f915    ....    BL       I2C_SetSlaveAddrMask ; 0x1898
        0x0000066e:    2202        ."      MOVS     r2,#2
        0x00000670:    2101        .!      MOVS     r1,#1
        0x00000672:    4620         F      MOV      r0,r4
        0x00000674:    f001f910    ....    BL       I2C_SetSlaveAddrMask ; 0x1898
        0x00000678:    2204        ."      MOVS     r2,#4
        0x0000067a:    2102        .!      MOVS     r1,#2
        0x0000067c:    4620         F      MOV      r0,r4
        0x0000067e:    f001f90b    ....    BL       I2C_SetSlaveAddrMask ; 0x1898
        0x00000682:    2202        ."      MOVS     r2,#2
        0x00000684:    2103        .!      MOVS     r1,#3
        0x00000686:    4620         F      MOV      r0,r4
        0x00000688:    f001f906    ....    BL       I2C_SetSlaveAddrMask ; 0x1898
        0x0000068c:    4620         F      MOV      r0,r4
        0x0000068e:    f001f8b6    ....    BL       I2C_EnableInt ; 0x17fe
        0x00000692:    e8bd4010    ...@    POP      {r4,lr}
        0x00000696:    2027        '       MOVS     r0,#0x27
        0x00000698:    f000b962    ..b.    B.W      NVIC_EnableIRQ ; 0x960
    I2C0_Close
        0x0000069c:    b510        ..      PUSH     {r4,lr}
        0x0000069e:    4c2a        *L      LDR      r4,[pc,#168] ; [0x748] = 0x40080000
        0x000006a0:    4620         F      MOV      r0,r4
        0x000006a2:    f001f8a7    ....    BL       I2C_DisableInt ; 0x17f4
        0x000006a6:    2026        &       MOVS     r0,#0x26
        0x000006a8:    f000f965    ..e.    BL       NVIC_DisableIRQ ; 0x976
        0x000006ac:    4620         F      MOV      r0,r4
        0x000006ae:    f001f86c    ..l.    BL       I2C_Close ; 0x178a
        0x000006b2:    e8bd4010    ...@    POP      {r4,lr}
        0x000006b6:    4832        2H      LDR      r0,[pc,#200] ; [0x780] = 0x40000008
        0x000006b8:    f000bcc2    ....    B.W      CLK_DisableModuleClock ; 0x1040
    I2C1_Close
        0x000006bc:    b510        ..      PUSH     {r4,lr}
        0x000006be:    4c24        $L      LDR      r4,[pc,#144] ; [0x750] = 0x40081000
        0x000006c0:    4620         F      MOV      r0,r4
        0x000006c2:    f001f897    ....    BL       I2C_DisableInt ; 0x17f4
        0x000006c6:    2027        '       MOVS     r0,#0x27
        0x000006c8:    f000f955    ..U.    BL       NVIC_DisableIRQ ; 0x976
        0x000006cc:    4620         F      MOV      r0,r4
        0x000006ce:    f001f85c    ..\.    BL       I2C_Close ; 0x178a
        0x000006d2:    482b        +H      LDR      r0,[pc,#172] ; [0x780] = 0x40000008
        0x000006d4:    e8bd4010    ...@    POP      {r4,lr}
        0x000006d8:    1c40        @.      ADDS     r0,r0,#1
        0x000006da:    f000bcb1    ....    B.W      CLK_DisableModuleClock ; 0x1040
    I2C0_Read_Write_SLAVE
        0x000006de:    e92d47f0    -..G    PUSH     {r4-r10,lr}
        0x000006e2:    4e1a        .N      LDR      r6,[pc,#104] ; [0x74c] = 0x2000002c
        0x000006e4:    2200        ."      MOVS     r2,#0
        0x000006e6:    7070        pp      STRB     r0,[r6,#1]
        0x000006e8:    f2af2cc7    ...,    ADR      r12,{pc}-0x2c3 ; 0x425
        0x000006ec:    4f16        .O      LDR      r7,[pc,#88] ; [0x748] = 0x40080000
        0x000006ee:    78b1        .x      LDRB     r1,[r6,#2]
        0x000006f0:    4613        .F      MOV      r3,r2
        0x000006f2:    f1060908    ....    ADD      r9,r6,#8
        0x000006f6:    0a14        ..      LSRS     r4,r2,#8
        0x000006f8:    f8894000    ...@    STRB     r4,[r9,#0]
        0x000006fc:    1cd4        ..      ADDS     r4,r2,#3
        0x000006fe:    f8892001    ...     STRB     r2,[r9,#1]
        0x00000702:    b2e4        ..      UXTB     r4,r4
        0x00000704:    f8894002    ...@    STRB     r4,[r9,#2]
        0x00000708:    70f3        .p      STRB     r3,[r6,#3]
        0x0000070a:    7033        3p      STRB     r3,[r6,#0]
        0x0000070c:    f8c6c00c    ....    STR      r12,[r6,#0xc]
        0x00000710:    683d        =h      LDR      r5,[r7,#0]
        0x00000712:    f025053c    %.<.    BIC      r5,r5,#0x3c
        0x00000716:    f0450520    E. .    ORR      r5,r5,#0x20
        0x0000071a:    603d        =`      STR      r5,[r7,#0]
        0x0000071c:    2b00        .+      CMP      r3,#0
        0x0000071e:    d0fd        ..      BEQ      0x71c ; I2C0_Read_Write_SLAVE + 62
        0x00000720:    7033        3p      STRB     r3,[r6,#0]
        0x00000722:    461d        .F      MOV      r5,r3
        0x00000724:    f2af389b    ...8    ADR      r8,{pc}-0x397 ; 0x38d
        0x00000728:    f8c6800c    ....    STR      r8,[r6,#0xc]
        0x0000072c:    70f3        .p      STRB     r3,[r6,#3]
        0x0000072e:    7070        pp      STRB     r0,[r6,#1]
        0x00000730:    f8d78000    ....    LDR      r8,[r7,#0]
        0x00000734:    f028083c    (.<.    BIC      r8,r8,#0x3c
        0x00000738:    f0480820    H. .    ORR      r8,r8,#0x20
        0x0000073c:    f8c78000    ....    STR      r8,[r7,#0]
        0x00000740:    2d00        .-      CMP      r5,#0
        0x00000742:    d0fd        ..      BEQ      0x740 ; I2C0_Read_Write_SLAVE + 98
        0x00000744:    428c        .B      CMP      r4,r1
        0x00000746:    e033        3.      B        0x7b0 ; I2C0_Read_Write_SLAVE + 210
    $d
        0x00000748:    40080000    ...@    DCD    1074266112
        0x0000074c:    2000002c    ,..     DCD    536870956
        0x00000750:    40081000    ...@    DCD    1074270208
        0x00000754:    74617453    Stat    DCD    1952543827
        0x00000758:    30207375    us 0    DCD    807433077
        0x0000075c:    20782578    x%x     DCD    544744824
        0x00000760:    4e207369    is N    DCD    1310749545
        0x00000764:    7020544f    OT p    DCD    1881166927
        0x00000768:    65636f72    roce    DCD    1701015410
        0x0000076c:    64657373    ssed    DCD    1684370291
        0x00000770:    0000000a    ....    DCD    10
        0x00000774:    20000048    H..     DCD    536870984
        0x00000778:    0b71b000    ..q.    DCD    192000000
        0x0000077c:    57803d10    .=.W    DCD    1468022032
        0x00000780:    40000008    ...@    DCD    1073741832
        0x00000784:    000186a0    ....    DCD    100000
        0x00000788:    30433249    I2C0    DCD    809710153
        0x0000078c:    6f6c6320     clo    DCD    1869374240
        0x00000790:    25206b63    ck %    DCD    622881635
        0x00000794:    7a482064    d Hz    DCD    2051547236
        0x00000798:    0000000a    ....    DCD    10
        0x0000079c:    31433249    I2C1    DCD    826487369
        0x000007a0:    6f6c6320     clo    DCD    1869374240
        0x000007a4:    25206b63    ck %    DCD    622881635
        0x000007a8:    7a482064    d Hz    DCD    2051547236
        0x000007ac:    0000000a    ....    DCD    10
    $t
        0x000007b0:    d006        ..      BEQ      0x7c0 ; I2C0_Read_Write_SLAVE + 226
        0x000007b2:    a07a        z.      ADR      r0,{pc}+0x1ea ; 0x99c
        0x000007b4:    f001fd7a    ..z.    BL       __0printf$5 ; 0x22ac
        0x000007b8:    f04f30ff    O..0    MOV      r0,#0xffffffff
        0x000007bc:    e8bd87f0    ....    POP      {r4-r10,pc}
        0x000007c0:    1c52        R.      ADDS     r2,r2,#1
        0x000007c2:    2aff        .*      CMP      r2,#0xff
        0x000007c4:    d997        ..      BLS      0x6f6 ; I2C0_Read_Write_SLAVE + 24
        0x000007c6:    4601        .F      MOV      r1,r0
        0x000007c8:    a07e        ~.      ADR      r0,{pc}+0x1fc ; 0x9c4
        0x000007ca:    f001fd6f    ..o.    BL       __0printf$5 ; 0x22ac
        0x000007ce:    2000        .       MOVS     r0,#0
        0x000007d0:    e7f4        ..      B        0x7bc ; I2C0_Read_Write_SLAVE + 222
    I2C0_Read_Write_Slave
        0x000007d2:    e92d47f0    -..G    PUSH     {r4-r10,lr}
        0x000007d6:    4e84        .N      LDR      r6,[pc,#528] ; [0x9e8] = 0x2000002c
        0x000007d8:    2200        ."      MOVS     r2,#0
        0x000007da:    7070        pp      STRB     r0,[r6,#1]
        0x000007dc:    f2af3cbb    ...<    ADR      r12,{pc}-0x3b7 ; 0x425
        0x000007e0:    4f82        .O      LDR      r7,[pc,#520] ; [0x9ec] = 0x40080000
        0x000007e2:    78b1        .x      LDRB     r1,[r6,#2]
        0x000007e4:    4613        .F      MOV      r3,r2
        0x000007e6:    f1060908    ....    ADD      r9,r6,#8
        0x000007ea:    0a14        ..      LSRS     r4,r2,#8
        0x000007ec:    f8894000    ...@    STRB     r4,[r9,#0]
        0x000007f0:    1cd4        ..      ADDS     r4,r2,#3
        0x000007f2:    f8892001    ...     STRB     r2,[r9,#1]
        0x000007f6:    b2e4        ..      UXTB     r4,r4
        0x000007f8:    f8894002    ...@    STRB     r4,[r9,#2]
        0x000007fc:    70f3        .p      STRB     r3,[r6,#3]
        0x000007fe:    7033        3p      STRB     r3,[r6,#0]
        0x00000800:    f8c6c00c    ....    STR      r12,[r6,#0xc]
        0x00000804:    683d        =h      LDR      r5,[r7,#0]
        0x00000806:    f025053c    %.<.    BIC      r5,r5,#0x3c
        0x0000080a:    f0450520    E. .    ORR      r5,r5,#0x20
        0x0000080e:    603d        =`      STR      r5,[r7,#0]
        0x00000810:    2b00        .+      CMP      r3,#0
        0x00000812:    d0fd        ..      BEQ      0x810 ; I2C0_Read_Write_Slave + 62
        0x00000814:    7033        3p      STRB     r3,[r6,#0]
        0x00000816:    461d        .F      MOV      r5,r3
        0x00000818:    f2af488f    ...H    ADR      r8,{pc}-0x48b ; 0x38d
        0x0000081c:    f8c6800c    ....    STR      r8,[r6,#0xc]
        0x00000820:    70f3        .p      STRB     r3,[r6,#3]
        0x00000822:    7070        pp      STRB     r0,[r6,#1]
        0x00000824:    f8d78000    ....    LDR      r8,[r7,#0]
        0x00000828:    f028083c    (.<.    BIC      r8,r8,#0x3c
        0x0000082c:    f0480820    H. .    ORR      r8,r8,#0x20
        0x00000830:    f8c78000    ....    STR      r8,[r7,#0]
        0x00000834:    2d00        .-      CMP      r5,#0
        0x00000836:    d0fd        ..      BEQ      0x834 ; I2C0_Read_Write_Slave + 98
        0x00000838:    428c        .B      CMP      r4,r1
        0x0000083a:    d005        ..      BEQ      0x848 ; I2C0_Read_Write_Slave + 118
        0x0000083c:    a06c        l.      ADR      r0,{pc}+0x1b4 ; 0x9f0
        0x0000083e:    f001fd35    ..5.    BL       __0printf$5 ; 0x22ac
        0x00000842:    f04f30ff    O..0    MOV      r0,#0xffffffff
        0x00000846:    e7b9        ..      B        0x7bc ; I2C0_Read_Write_SLAVE + 222
        0x00000848:    1c52        R.      ADDS     r2,r2,#1
        0x0000084a:    2aff        .*      CMP      r2,#0xff
        0x0000084c:    d9cd        ..      BLS      0x7ea ; I2C0_Read_Write_Slave + 24
        0x0000084e:    4601        .F      MOV      r1,r0
        0x00000850:    a05c        \.      ADR      r0,{pc}+0x174 ; 0x9c4
        0x00000852:    f001fd2b    ..+.    BL       __0printf$5 ; 0x22ac
        0x00000856:    2000        .       MOVS     r0,#0
        0x00000858:    e7b0        ..      B        0x7bc ; I2C0_Read_Write_SLAVE + 222
    main
        0x0000085a:    2059        Y       MOVS     r0,#0x59
        0x0000085c:    0784        ..      LSLS     r4,r0,#30
        0x0000085e:    2116        .!      MOVS     r1,#0x16
        0x00000860:    2288        ."      MOVS     r2,#0x88
        0x00000862:    f8c40100    ....    STR      r0,[r4,#0x100]
        0x00000866:    f8c41100    ....    STR      r1,[r4,#0x100]
        0x0000086a:    f8c42100    ...!    STR      r2,[r4,#0x100]
        0x0000086e:    f8d43100    ...1    LDR      r3,[r4,#0x100]
        0x00000872:    2b00        .+      CMP      r3,#0
        0x00000874:    d0f5        ..      BEQ      0x862 ; main + 8
        0x00000876:    f7fffe4a    ..J.    BL       SYS_Init ; 0x50e
        0x0000087a:    2500        .%      MOVS     r5,#0
        0x0000087c:    f8c45100    ...Q    STR      r5,[r4,#0x100]
        0x00000880:    f44f31e1    O..1    MOV      r1,#0x1c200
        0x00000884:    4864        dH      LDR      r0,[pc,#400] ; [0xa18] = 0x40070000
        0x00000886:    f000fa02    ....    BL       UART_Open ; 0xc8e
        0x0000088a:    a064        d.      ADR      r0,{pc}+0x192 ; 0xa1c
        0x0000088c:    f001fd0e    ....    BL       __0printf$5 ; 0x22ac
        0x00000890:    a071        q.      ADR      r0,{pc}+0x1c8 ; 0xa58
        0x00000892:    f001fd0b    ....    BL       __0printf$5 ; 0x22ac
        0x00000896:    a07f        ..      ADR      r0,{pc}+0x1fe ; 0xa94
        0x00000898:    f001fd08    ....    BL       __0printf$5 ; 0x22ac
        0x0000089c:    a08c        ..      ADR      r0,{pc}+0x234 ; 0xad0
        0x0000089e:    f001fd05    ....    BL       __0printf$5 ; 0x22ac
        0x000008a2:    a05e        ^.      ADR      r0,{pc}+0x17a ; 0xa1c
        0x000008a4:    f001fd02    ....    BL       __0printf$5 ; 0x22ac
        0x000008a8:    f2af103c    ..<.    ADR      r0,{pc}-0x138 ; 0x770
        0x000008ac:    f001fcfe    ....    BL       __0printf$5 ; 0x22ac
        0x000008b0:    a096        ..      ADR      r0,{pc}+0x25c ; 0xb0c
        0x000008b2:    f001fcfb    ....    BL       __0printf$5 ; 0x22ac
        0x000008b6:    a0a1        ..      ADR      r0,{pc}+0x286 ; 0xb3c
        0x000008b8:    f001fcf8    ....    BL       __0printf$5 ; 0x22ac
        0x000008bc:    a0a8        ..      ADR      r0,{pc}+0x2a4 ; 0xb60
        0x000008be:    f001fcf5    ....    BL       __0printf$5 ; 0x22ac
        0x000008c2:    a0ac        ..      ADR      r0,{pc}+0x2b2 ; 0xb74
        0x000008c4:    f001fcf2    ....    BL       __0printf$5 ; 0x22ac
        0x000008c8:    f7fffe66    ..f.    BL       I2C0_Init ; 0x598
        0x000008cc:    f7fffea5    ....    BL       I2C1_Init ; 0x61a
        0x000008d0:    48ae        .H      LDR      r0,[pc,#696] ; [0xb8c] = 0x40081000
        0x000008d2:    6801        .h      LDR      r1,[r0,#0]
        0x000008d4:    f021013c    !.<.    BIC      r1,r1,#0x3c
        0x000008d8:    f041010c    A...    ORR      r1,r1,#0xc
        0x000008dc:    6001        .`      STR      r1,[r0,#0]
        0x000008de:    49ac        .I      LDR      r1,[pc,#688] ; [0xb90] = 0x20000048
        0x000008e0:    2000        .       MOVS     r0,#0
        0x000008e2:    540d        .T      STRB     r5,[r1,r0]
        0x000008e4:    1c40        @.      ADDS     r0,r0,#1
        0x000008e6:    28ff        .(      CMP      r0,#0xff
        0x000008e8:    d9fb        ..      BLS      0x8e2 ; main + 136
        0x000008ea:    f2af4053    ..S@    ADR      r0,{pc}-0x451 ; 0x499
        0x000008ee:    4c3e        >L      LDR      r4,[pc,#248] ; [0x9e8] = 0x2000002c
        0x000008f0:    6120         a      STR      r0,[r4,#0x10]
        0x000008f2:    a09a        ..      ADR      r0,{pc}+0x26a ; 0xb5c
        0x000008f4:    f001fcda    ....    BL       __0printf$5 ; 0x22ac
        0x000008f8:    a0a6        ..      ADR      r0,{pc}+0x29c ; 0xb94
        0x000008fa:    f001fcd7    ....    BL       __0printf$5 ; 0x22ac
        0x000008fe:    a097        ..      ADR      r0,{pc}+0x25e ; 0xb5c
        0x00000900:    f001fcd4    ....    BL       __0printf$5 ; 0x22ac
        0x00000904:    a0ab        ..      ADR      r0,{pc}+0x2b0 ; 0xbb4
        0x00000906:    f001fcd1    ....    BL       __0printf$5 ; 0x22ac
        0x0000090a:    2016        .       MOVS     r0,#0x16
        0x0000090c:    f7ffff61    ..a.    BL       I2C0_Read_Write_Slave ; 0x7d2
        0x00000910:    2036        6       MOVS     r0,#0x36
        0x00000912:    f7ffff5e    ..^.    BL       I2C0_Read_Write_Slave ; 0x7d2
        0x00000916:    2056        V       MOVS     r0,#0x56
        0x00000918:    f7ffff5b    ..[.    BL       I2C0_Read_Write_Slave ; 0x7d2
        0x0000091c:    2076        v       MOVS     r0,#0x76
        0x0000091e:    f7ffff58    ..X.    BL       I2C0_Read_Write_Slave ; 0x7d2
        0x00000922:    a0aa        ..      ADR      r0,{pc}+0x2aa ; 0xbcc
        0x00000924:    f001fcc2    ....    BL       __0printf$5 ; 0x22ac
        0x00000928:    a08c        ..      ADR      r0,{pc}+0x234 ; 0xb5c
        0x0000092a:    f001fcbf    ....    BL       __0printf$5 ; 0x22ac
        0x0000092e:    a0ad        ..      ADR      r0,{pc}+0x2b6 ; 0xbe4
        0x00000930:    f001fcbc    ....    BL       __0printf$5 ; 0x22ac
        0x00000934:    2012        .       MOVS     r0,#0x12
        0x00000936:    f7ffff4c    ..L.    BL       I2C0_Read_Write_Slave ; 0x7d2
        0x0000093a:    2034        4       MOVS     r0,#0x34
        0x0000093c:    f7ffff49    ..I.    BL       I2C0_Read_Write_Slave ; 0x7d2
        0x00000940:    2052        R       MOVS     r0,#0x52
        0x00000942:    f7ffff46    ..F.    BL       I2C0_Read_Write_Slave ; 0x7d2
        0x00000946:    2074        t       MOVS     r0,#0x74
        0x00000948:    f7ffff43    ..C.    BL       I2C0_Read_Write_Slave ; 0x7d2
        0x0000094c:    a0ab        ..      ADR      r0,{pc}+0x2b0 ; 0xbfc
        0x0000094e:    f001fcad    ....    BL       __0printf$5 ; 0x22ac
        0x00000952:    60e5        .`      STR      r5,[r4,#0xc]
        0x00000954:    6125        %a      STR      r5,[r4,#0x10]
        0x00000956:    f7fffea1    ....    BL       I2C0_Close ; 0x69c
        0x0000095a:    f7fffeaf    ....    BL       I2C1_Close ; 0x6bc
        0x0000095e:    e7fe        ..      B        0x95e ; main + 260
    NVIC_EnableIRQ
        0x00000960:    f000021f    ....    AND      r2,r0,#0x1f
        0x00000964:    2101        .!      MOVS     r1,#1
        0x00000966:    4091        .@      LSLS     r1,r1,r2
        0x00000968:    0940        @.      LSRS     r0,r0,#5
        0x0000096a:    0080        ..      LSLS     r0,r0,#2
        0x0000096c:    f10020e0    ...     ADD      r0,r0,#0xe000e000
        0x00000970:    f8c01100    ....    STR      r1,[r0,#0x100]
        0x00000974:    4770        pG      BX       lr
    NVIC_DisableIRQ
        0x00000976:    f000021f    ....    AND      r2,r0,#0x1f
        0x0000097a:    2101        .!      MOVS     r1,#1
        0x0000097c:    4091        .@      LSLS     r1,r1,r2
        0x0000097e:    0940        @.      LSRS     r0,r0,#5
        0x00000980:    0080        ..      LSLS     r0,r0,#2
        0x00000982:    f10020e0    ...     ADD      r0,r0,#0xe000e000
        0x00000986:    f8c01180    ....    STR      r1,[r0,#0x180]
        0x0000098a:    4770        pG      BX       lr
    I2C_STOP
        0x0000098c:    6801        .h      LDR      r1,[r0,#0]
        0x0000098e:    f0410118    A...    ORR      r1,r1,#0x18
        0x00000992:    6001        .`      STR      r1,[r0,#0]
        0x00000994:    6801        .h      LDR      r1,[r0,#0]
        0x00000996:    06c9        ..      LSLS     r1,r1,#27
        0x00000998:    d4fc        ..      BMI      0x994 ; I2C_STOP + 8
        0x0000099a:    4770        pG      BX       lr
    $d
        0x0000099c:    20433249    I2C     DCD    541274697
        0x000009a0:    65747942    Byte    DCD    1702132034
        0x000009a4:    69725720     Wri    DCD    1769101088
        0x000009a8:    522f6574    te/R    DCD    1378837876
        0x000009ac:    20646165    ead     DCD    543449445
        0x000009b0:    6c696146    Fail    DCD    1818845510
        0x000009b4:    202c6465    ed,     DCD    539780197
        0x000009b8:    61746144    Data    DCD    1635017028
        0x000009bc:    25783020     0x%    DCD    628633632
        0x000009c0:    00000a78    x...    DCD    2680
        0x000009c4:    7473614d    Mast    DCD    1953718605
        0x000009c8:    41207265    er A    DCD    1092645477
        0x000009cc:    73656363    cces    DCD    1936024419
        0x000009d0:    6c532073    s Sl    DCD    1817387123
        0x000009d4:    20657661    ave     DCD    543520353
        0x000009d8:    25783028    (0x%    DCD    628633640
        0x000009dc:    54202958    X) T    DCD    1411393880
        0x000009e0:    20747365    est     DCD    544502629
        0x000009e4:    000a4b4f    OK..    DCD    674639
        0x000009e8:    2000002c    ,..     DCD    536870956
        0x000009ec:    40080000    ...@    DCD    1074266112
        0x000009f0:    30433249    I2C0    DCD    809710153
        0x000009f4:    74794220     Byt    DCD    1954103840
        0x000009f8:    72572065    e Wr    DCD    1918312549
        0x000009fc:    2f657469    ite/    DCD    795178089
        0x00000a00:    64616552    Read    DCD    1684104530
        0x00000a04:    69614620     Fai    DCD    1767982624
        0x00000a08:    2c64656c    led,    DCD    744777068
        0x00000a0c:    74614420     Dat    DCD    1952531488
        0x00000a10:    78302061    a 0x    DCD    2016419937
        0x00000a14:    000a7825    %x..    DCD    686117
        0x00000a18:    40070000    ...@    DCD    1074200576
        0x00000a1c:    2d2d2d2b    +---    DCD    757935403
        0x00000a20:    2d2d2d2d    ----    DCD    757935405
        0x00000a24:    2d2d2d2d    ----    DCD    757935405
        0x00000a28:    2d2d2d2d    ----    DCD    757935405
        0x00000a2c:    2d2d2d2d    ----    DCD    757935405
        0x00000a30:    2d2d2d2d    ----    DCD    757935405
        0x00000a34:    2d2d2d2d    ----    DCD    757935405
        0x00000a38:    2d2d2d2d    ----    DCD    757935405
        0x00000a3c:    2d2d2d2d    ----    DCD    757935405
        0x00000a40:    2d2d2d2d    ----    DCD    757935405
        0x00000a44:    2d2d2d2d    ----    DCD    757935405
        0x00000a48:    2d2d2d2d    ----    DCD    757935405
        0x00000a4c:    2d2d2d2d    ----    DCD    757935405
        0x00000a50:    2d2d2d2d    ----    DCD    757935405
        0x00000a54:    00000a2b    +...    DCD    2603
        0x00000a58:    3249207c    | I2    DCD    843653244
        0x00000a5c:    72442043    C Dr    DCD    1917067331
        0x00000a60:    72657669    iver    DCD    1919252073
        0x00000a64:    6d615320     Sam    DCD    1835094816
        0x00000a68:    20656c70    ple     DCD    543517808
        0x00000a6c:    65646f43    Code    DCD    1701080899
        0x00000a70:    726f6620     for    DCD    1919903264
        0x00000a74:    6f6f6c20     loo    DCD    1869573152
        0x00000a78:    63616270    pbac    DCD    1667326576
        0x00000a7c:    6574206b    k te    DCD    1702109291
        0x00000a80:    20207473    st      DCD    538997875
        0x00000a84:    20202020            DCD    538976288
        0x00000a88:    20202020            DCD    538976288
        0x00000a8c:    20202020            DCD    538976288
        0x00000a90:    00000a7c    |...    DCD    2684
        0x00000a94:    2020207c    |       DCD    538976380
        0x00000a98:    20202020            DCD    538976288
        0x00000a9c:    20202020            DCD    538976288
        0x00000aa0:    20202020            DCD    538976288
        0x00000aa4:    20202020            DCD    538976288
        0x00000aa8:    20202020            DCD    538976288
        0x00000aac:    20202020            DCD    538976288
        0x00000ab0:    20202020            DCD    538976288
        0x00000ab4:    20202020            DCD    538976288
        0x00000ab8:    20202020            DCD    538976288
        0x00000abc:    20202020            DCD    538976288
        0x00000ac0:    20202020            DCD    538976288
        0x00000ac4:    20202020            DCD    538976288
        0x00000ac8:    20202020            DCD    538976288
        0x00000acc:    00000a7c    |...    DCD    2684
        0x00000ad0:    3249207c    | I2    DCD    843653244
        0x00000ad4:    614d2043    C Ma    DCD    1632444483
        0x00000ad8:    72657473    ster    DCD    1919251571
        0x00000adc:    32492820     (I2    DCD    843655200
        0x00000ae0:    20293043    C0)     DCD    539570243
        0x00000ae4:    2d2d2d3c    <---    DCD    757935420
        0x00000ae8:    3249203e    > I2    DCD    843653182
        0x00000aec:    6c532043    C Sl    DCD    1817387075
        0x00000af0:    28657661    ave(    DCD    677738081
        0x00000af4:    31433249    I2C1    DCD    826487369
        0x00000af8:    20202029    )       DCD    538976297
        0x00000afc:    20202020            DCD    538976288
        0x00000b00:    20202020            DCD    538976288
        0x00000b04:    20202020            DCD    538976288
        0x00000b08:    00000a7c    |...    DCD    2684
        0x00000b0c:    666e6f43    Conf    DCD    1718513475
        0x00000b10:    72756769    igur    DCD    1920296809
        0x00000b14:    32492065    e I2    DCD    843653221
        0x00000b18:    61203043    C0 a    DCD    1629499459
        0x00000b1c:    614d2073    s Ma    DCD    1632444531
        0x00000b20:    72657473    ster    DCD    1919251571
        0x00000b24:    6e61202c    , an    DCD    1851858988
        0x00000b28:    32492064    d I2    DCD    843653220
        0x00000b2c:    61203143    C1 a    DCD    1629499715
        0x00000b30:    20612073    s a     DCD    543236211
        0x00000b34:    76616c73    slav    DCD    1986096243
        0x00000b38:    000a2e65    e...    DCD    667237
        0x00000b3c:    20656854    The     DCD    543516756
        0x00000b40:    204f2f49    I/O     DCD    542060361
        0x00000b44:    6e6e6f63    conn    DCD    1852731235
        0x00000b48:    69746365    ecti    DCD    1769235301
        0x00000b4c:    49206e6f    on I    DCD    1226862191
        0x00000b50:    20304332    2C0     DCD    540033842
        0x00000b54:    49206f74    to I    DCD    1226862452
        0x00000b58:    3a314332    2C1:    DCD    976306994
        0x00000b5c:    0000000a    ....    DCD    10
        0x00000b60:    30433249    I2C0    DCD    809710153
        0x00000b64:    4144535f    _SDA    DCD    1094996831
        0x00000b68:    3249202c    , I2    DCD    843653164
        0x00000b6c:    535f3043    C0_S    DCD    1398747203
        0x00000b70:    000a4c43    CL..    DCD    674883
        0x00000b74:    31433249    I2C1    DCD    826487369
        0x00000b78:    4144535f    _SDA    DCD    1094996831
        0x00000b7c:    3249202c    , I2    DCD    843653164
        0x00000b80:    535f3143    C1_S    DCD    1398747459
        0x00000b84:    0a0a4c43    CL..    DCD    168447043
        0x00000b88:    00000000    ....    DCD    0
        0x00000b8c:    40081000    ...@    DCD    1074270208
        0x00000b90:    20000048    H..     DCD    536870984
        0x00000b94:    31433249    I2C1    DCD    826487369
        0x00000b98:    616c5320     Sla    DCD    1634489120
        0x00000b9c:    4d206576    ve M    DCD    1293968758
        0x00000ba0:    2065646f    ode     DCD    543515759
        0x00000ba4:    52207369    is R    DCD    1377858409
        0x00000ba8:    696e6e75    unni    DCD    1768844917
        0x00000bac:    0a2e676e    ng..    DCD    170813294
        0x00000bb0:    00000000    ....    DCD    0
        0x00000bb4:    203d3d20     ==     DCD    540884256
        0x00000bb8:    4d206f4e    No M    DCD    1293971278
        0x00000bbc:    206b7361    ask     DCD    543912801
        0x00000bc0:    72646441    Addr    DCD    1919181889
        0x00000bc4:    20737365    ess     DCD    544437093
        0x00000bc8:    000a3d3d    ==..    DCD    671037
        0x00000bcc:    76616c53    Slav    DCD    1986096211
        0x00000bd0:    64412065    e Ad    DCD    1681989733
        0x00000bd4:    73657264    dres    DCD    1936028260
        0x00000bd8:    65742073    s te    DCD    1702109299
        0x00000bdc:    4f207473    st O    DCD    1327527027
        0x00000be0:    000a2e4b    K...    DCD    667211
        0x00000be4:    203d3d20     ==     DCD    540884256
        0x00000be8:    6b73614d    Mask    DCD    1802723661
        0x00000bec:    64644120     Add    DCD    1684291872
        0x00000bf0:    73736572    ress    DCD    1936942450
        0x00000bf4:    0a3d3d20     ==.    DCD    171785504
        0x00000bf8:    00000000    ....    DCD    0
        0x00000bfc:    76616c53    Slav    DCD    1986096211
        0x00000c00:    64412065    e Ad    DCD    1681989733
        0x00000c04:    73657264    dres    DCD    1936028260
        0x00000c08:    614d2073    s Ma    DCD    1632444531
        0x00000c0c:    74206b73    sk t    DCD    1948281715
        0x00000c10:    20747365    est     DCD    544502629
        0x00000c14:    0a2e4b4f    OK..    DCD    170806095
        0x00000c18:    00000000    ....    DCD    0
    $t
    .text
    UART_ClearIntFlag
        0x00000c1c:    054a        J.      LSLS     r2,r1,#21
        0x00000c1e:    d503        ..      BPL      0xc28 ; UART_ClearIntFlag + 12
        0x00000c20:    2270        p"      MOVS     r2,#0x70
        0x00000c22:    6182        .a      STR      r2,[r0,#0x18]
        0x00000c24:    2208        ."      MOVS     r2,#8
        0x00000c26:    6182        .a      STR      r2,[r0,#0x18]
        0x00000c28:    050a        ..      LSLS     r2,r1,#20
        0x00000c2a:    d503        ..      BPL      0xc34 ; UART_ClearIntFlag + 24
        0x00000c2c:    6942        Bi      LDR      r2,[r0,#0x14]
        0x00000c2e:    f0420201    B...    ORR      r2,r2,#1
        0x00000c32:    6142        Ba      STR      r2,[r0,#0x14]
        0x00000c34:    048a        ..      LSLS     r2,r1,#18
        0x00000c36:    d501        ..      BPL      0xc3c ; UART_ClearIntFlag + 32
        0x00000c38:    4af7        .J      LDR      r2,[pc,#988] ; [0x1018] = 0x1000001
        0x00000c3a:    6182        .a      STR      r2,[r0,#0x18]
        0x00000c3c:    044a        J.      LSLS     r2,r1,#17
        0x00000c3e:    d501        ..      BPL      0xc44 ; UART_ClearIntFlag + 40
        0x00000c40:    221f        ."      MOVS     r2,#0x1f
        0x00000c42:    6442        Bd      STR      r2,[r0,#0x44]
        0x00000c44:    0409        ..      LSLS     r1,r1,#16
        0x00000c46:    d504        ..      BPL      0xc52 ; UART_ClearIntFlag + 54
        0x00000c48:    2180        .!      MOVS     r1,#0x80
        0x00000c4a:    61c1        .a      STR      r1,[r0,#0x1c]
        0x00000c4c:    f240310f    @..1    MOV      r1,#0x30f
        0x00000c50:    6381        .c      STR      r1,[r0,#0x38]
        0x00000c52:    4770        pG      BX       lr
    UART_Close
        0x00000c54:    2100        .!      MOVS     r1,#0
        0x00000c56:    6041        A`      STR      r1,[r0,#4]
        0x00000c58:    4770        pG      BX       lr
    UART_DisableFlowCtrl
        0x00000c5a:    6841        Ah      LDR      r1,[r0,#4]
        0x00000c5c:    f4215140    !.@Q    BIC      r1,r1,#0x3000
        0x00000c60:    6041        A`      STR      r1,[r0,#4]
        0x00000c62:    4770        pG      BX       lr
    UART_DisableInt
        0x00000c64:    6842        Bh      LDR      r2,[r0,#4]
        0x00000c66:    438a        .C      BICS     r2,r2,r1
        0x00000c68:    6042        B`      STR      r2,[r0,#4]
        0x00000c6a:    4770        pG      BX       lr
    UART_EnableFlowCtrl
        0x00000c6c:    6901        .i      LDR      r1,[r0,#0x10]
        0x00000c6e:    f4417100    A..q    ORR      r1,r1,#0x200
        0x00000c72:    6101        .a      STR      r1,[r0,#0x10]
        0x00000c74:    6941        Ai      LDR      r1,[r0,#0x14]
        0x00000c76:    f4417180    A..q    ORR      r1,r1,#0x100
        0x00000c7a:    6141        Aa      STR      r1,[r0,#0x14]
        0x00000c7c:    6841        Ah      LDR      r1,[r0,#4]
        0x00000c7e:    f4415140    A.@Q    ORR      r1,r1,#0x3000
        0x00000c82:    6041        A`      STR      r1,[r0,#4]
        0x00000c84:    4770        pG      BX       lr
    UART_EnableInt
        0x00000c86:    6842        Bh      LDR      r2,[r0,#4]
        0x00000c88:    430a        .C      ORRS     r2,r2,r1
        0x00000c8a:    6042        B`      STR      r2,[r0,#4]
        0x00000c8c:    4770        pG      BX       lr
    UART_Open
        0x00000c8e:    e92d41ff    -..A    PUSH     {r0-r8,lr}
        0x00000c92:    4604        .F      MOV      r4,r0
        0x00000c94:    48e1        .H      LDR      r0,[pc,#900] ; [0x101c] = 0x25ac
        0x00000c96:    460f        .F      MOV      r7,r1
        0x00000c98:    2500        .%      MOVS     r5,#0
        0x00000c9a:    c80f        ..      LDM      r0,{r0-r3}
        0x00000c9c:    e88d000f    ....    STM      sp,{r0-r3}
        0x00000ca0:    49df        .I      LDR      r1,[pc,#892] ; [0x1020] = 0x40070000
        0x00000ca2:    462e        .F      MOV      r6,r5
        0x00000ca4:    f04f4080    O..@    MOV      r0,#0x40000000
        0x00000ca8:    428c        .B      CMP      r4,r1
        0x00000caa:    d106        ..      BNE      0xcba ; UART_Open + 44
        0x00000cac:    f8d01214    ....    LDR      r1,[r0,#0x214]
        0x00000cb0:    f8d00220    .. .    LDR      r0,[r0,#0x220]
        0x00000cb4:    f3c16501    ...e    UBFX     r5,r1,#24,#2
        0x00000cb8:    e02a        *.      B        0xd10 ; UART_Open + 130
        0x00000cba:    49da        .I      LDR      r1,[pc,#872] ; [0x1024] = 0x40071000
        0x00000cbc:    428c        .B      CMP      r4,r1
        0x00000cbe:    d106        ..      BNE      0xcce ; UART_Open + 64
        0x00000cc0:    f8d01214    ....    LDR      r1,[r0,#0x214]
        0x00000cc4:    f8d00220    .. .    LDR      r0,[r0,#0x220]
        0x00000cc8:    f3c16581    ...e    UBFX     r5,r1,#26,#2
        0x00000ccc:    e02b        +.      B        0xd26 ; UART_Open + 152
        0x00000cce:    49d6        .I      LDR      r1,[pc,#856] ; [0x1028] = 0x40072000
        0x00000cd0:    428c        .B      CMP      r4,r1
        0x00000cd2:    d108        ..      BNE      0xce6 ; UART_Open + 88
        0x00000cd4:    f8d0121c    ....    LDR      r1,[r0,#0x21c]
        0x00000cd8:    f8d00230    ..0.    LDR      r0,[r0,#0x230]
        0x00000cdc:    f3c16501    ...e    UBFX     r5,r1,#24,#2
        0x00000ce0:    f000060f    ....    AND      r6,r0,#0xf
        0x00000ce4:    e021        !.      B        0xd2a ; UART_Open + 156
        0x00000ce6:    49d1        .I      LDR      r1,[pc,#836] ; [0x102c] = 0x40073000
        0x00000ce8:    428c        .B      CMP      r4,r1
        0x00000cea:    d108        ..      BNE      0xcfe ; UART_Open + 112
        0x00000cec:    f8d0121c    ....    LDR      r1,[r0,#0x21c]
        0x00000cf0:    f8d00230    ..0.    LDR      r0,[r0,#0x230]
        0x00000cf4:    f3c16581    ...e    UBFX     r5,r1,#26,#2
        0x00000cf8:    f3c01603    ....    UBFX     r6,r0,#4,#4
        0x00000cfc:    e015        ..      B        0xd2a ; UART_Open + 156
        0x00000cfe:    49cc        .I      LDR      r1,[pc,#816] ; [0x1030] = 0x40074000
        0x00000d00:    428c        .B      CMP      r4,r1
        0x00000d02:    d108        ..      BNE      0xd16 ; UART_Open + 136
        0x00000d04:    f8d0121c    ....    LDR      r1,[r0,#0x21c]
        0x00000d08:    f8d00230    ..0.    LDR      r0,[r0,#0x230]
        0x00000d0c:    f3c17501    ...u    UBFX     r5,r1,#28,#2
        0x00000d10:    f3c02603    ...&    UBFX     r6,r0,#8,#4
        0x00000d14:    e009        ..      B        0xd2a ; UART_Open + 156
        0x00000d16:    49c7        .I      LDR      r1,[pc,#796] ; [0x1034] = 0x40075000
        0x00000d18:    428c        .B      CMP      r4,r1
        0x00000d1a:    d106        ..      BNE      0xd2a ; UART_Open + 156
        0x00000d1c:    f8d0121c    ....    LDR      r1,[r0,#0x21c]
        0x00000d20:    f8d00230    ..0.    LDR      r0,[r0,#0x230]
        0x00000d24:    0f8d        ..      LSRS     r5,r1,#30
        0x00000d26:    f3c03603    ...6    UBFX     r6,r0,#12,#4
        0x00000d2a:    2000        .       MOVS     r0,#0
        0x00000d2c:    6320         c      STR      r0,[r4,#0x30]
        0x00000d2e:    2003        .       MOVS     r0,#3
        0x00000d30:    60e0        .`      STR      r0,[r4,#0xc]
        0x00000d32:    68a0        .h      LDR      r0,[r4,#8]
        0x00000d34:    49c0        .I      LDR      r1,[pc,#768] ; [0x1038] = 0xfff0ff0f
        0x00000d36:    4008        .@      ANDS     r0,r0,r1
        0x00000d38:    60a0        .`      STR      r0,[r4,#8]
        0x00000d3a:    46e8        .F      MOV      r8,sp
        0x00000d3c:    2d01        .-      CMP      r5,#1
        0x00000d3e:    d102        ..      BNE      0xd46 ; UART_Open + 184
        0x00000d40:    f000fadb    ....    BL       CLK_GetPLLClockFreq ; 0x12fa
        0x00000d44:    9001        ..      STR      r0,[sp,#4]
        0x00000d46:    2f00        ./      CMP      r7,#0
        0x00000d48:    d01a        ..      BEQ      0xd80 ; UART_Open + 242
        0x00000d4a:    f8581025    X.%.    LDR      r1,[r8,r5,LSL #2]
        0x00000d4e:    1c76        v.      ADDS     r6,r6,#1
        0x00000d50:    fbb1f0f6    ....    UDIV     r0,r1,r6
        0x00000d54:    eb000057    ..W.    ADD      r0,r0,r7,LSR #1
        0x00000d58:    fbb0f0f7    ....    UDIV     r0,r0,r7
        0x00000d5c:    1e80        ..      SUBS     r0,r0,#2
        0x00000d5e:    f5b03f80    ...?    CMP      r0,#0x10000
        0x00000d62:    d30a        ..      BCC      0xd7a ; UART_Open + 236
        0x00000d64:    fbb1f0f6    ....    UDIV     r0,r1,r6
        0x00000d68:    eb0000c7    ....    ADD      r0,r0,r7,LSL #3
        0x00000d6c:    fbb0f0f7    ....    UDIV     r0,r0,r7
        0x00000d70:    f06f0101    o...    MVN      r1,#1
        0x00000d74:    eb011010    ....    ADD      r0,r1,r0,LSR #4
        0x00000d78:    e001        ..      B        0xd7e ; UART_Open + 240
        0x00000d7a:    f0405040    @.@P    ORR      r0,r0,#0x30000000
        0x00000d7e:    6260        `b      STR      r0,[r4,#0x24]
        0x00000d80:    e8bd81ff    ....    POP      {r0-r8,pc}
    UART_Read
        0x00000d84:    b5f0        ..      PUSH     {r4-r7,lr}
        0x00000d86:    4604        .F      MOV      r4,r0
        0x00000d88:    2600        .&      MOVS     r6,#0
        0x00000d8a:    4630        0F      MOV      r0,r6
        0x00000d8c:    f04f4580    O..E    MOV      r5,#0x40000000
        0x00000d90:    e00c        ..      B        0xdac ; UART_Read + 40
        0x00000d92:    2300        .#      MOVS     r3,#0
        0x00000d94:    e002        ..      B        0xd9c ; UART_Read + 24
        0x00000d96:    1c5b        [.      ADDS     r3,r3,#1
        0x00000d98:    42ab        .B      CMP      r3,r5
        0x00000d9a:    d209        ..      BCS      0xdb0 ; UART_Read + 44
        0x00000d9c:    69a7        .i      LDR      r7,[r4,#0x18]
        0x00000d9e:    047f        ..      LSLS     r7,r7,#17
        0x00000da0:    d4f9        ..      BMI      0xd96 ; UART_Read + 18
        0x00000da2:    2e00        ..      CMP      r6,#0
        0x00000da4:    d104        ..      BNE      0xdb0 ; UART_Read + 44
        0x00000da6:    6823        #h      LDR      r3,[r4,#0]
        0x00000da8:    540b        .T      STRB     r3,[r1,r0]
        0x00000daa:    1c40        @.      ADDS     r0,r0,#1
        0x00000dac:    4290        .B      CMP      r0,r2
        0x00000dae:    d3f0        ..      BCC      0xd92 ; UART_Read + 14
        0x00000db0:    bdf0        ..      POP      {r4-r7,pc}
    UART_SetLineConfig
        0x00000db2:    e92d5fff    -.._    PUSH     {r0-r12,lr}
        0x00000db6:    4604        .F      MOV      r4,r0
        0x00000db8:    4898        .H      LDR      r0,[pc,#608] ; [0x101c] = 0x25ac
        0x00000dba:    469a        .F      MOV      r10,r3
        0x00000dbc:    3010        .0      ADDS     r0,r0,#0x10
        0x00000dbe:    4691        .F      MOV      r9,r2
        0x00000dc0:    460f        .F      MOV      r7,r1
        0x00000dc2:    c80f        ..      LDM      r0,{r0-r3}
        0x00000dc4:    f8ddb038    ..8.    LDR      r11,[sp,#0x38]
        0x00000dc8:    e88d000f    ....    STM      sp,{r0-r3}
        0x00000dcc:    2500        .%      MOVS     r5,#0
        0x00000dce:    4994        .I      LDR      r1,[pc,#592] ; [0x1020] = 0x40070000
        0x00000dd0:    462e        .F      MOV      r6,r5
        0x00000dd2:    f04f4080    O..@    MOV      r0,#0x40000000
        0x00000dd6:    46e8        .F      MOV      r8,sp
        0x00000dd8:    428c        .B      CMP      r4,r1
        0x00000dda:    d106        ..      BNE      0xdea ; UART_SetLineConfig + 56
        0x00000ddc:    f8d01214    ....    LDR      r1,[r0,#0x214]
        0x00000de0:    f8d00220    .. .    LDR      r0,[r0,#0x220]
        0x00000de4:    f3c16501    ...e    UBFX     r5,r1,#24,#2
        0x00000de8:    e02a        *.      B        0xe40 ; UART_SetLineConfig + 142
        0x00000dea:    498e        .I      LDR      r1,[pc,#568] ; [0x1024] = 0x40071000
        0x00000dec:    428c        .B      CMP      r4,r1
        0x00000dee:    d106        ..      BNE      0xdfe ; UART_SetLineConfig + 76
        0x00000df0:    f8d01214    ....    LDR      r1,[r0,#0x214]
        0x00000df4:    f8d00220    .. .    LDR      r0,[r0,#0x220]
        0x00000df8:    f3c16581    ...e    UBFX     r5,r1,#26,#2
        0x00000dfc:    e02b        +.      B        0xe56 ; UART_SetLineConfig + 164
        0x00000dfe:    498a        .I      LDR      r1,[pc,#552] ; [0x1028] = 0x40072000
        0x00000e00:    428c        .B      CMP      r4,r1
        0x00000e02:    d108        ..      BNE      0xe16 ; UART_SetLineConfig + 100
        0x00000e04:    f8d0121c    ....    LDR      r1,[r0,#0x21c]
        0x00000e08:    f8d00230    ..0.    LDR      r0,[r0,#0x230]
        0x00000e0c:    f3c16501    ...e    UBFX     r5,r1,#24,#2
        0x00000e10:    f000060f    ....    AND      r6,r0,#0xf
        0x00000e14:    e021        !.      B        0xe5a ; UART_SetLineConfig + 168
        0x00000e16:    4985        .I      LDR      r1,[pc,#532] ; [0x102c] = 0x40073000
        0x00000e18:    428c        .B      CMP      r4,r1
        0x00000e1a:    d108        ..      BNE      0xe2e ; UART_SetLineConfig + 124
        0x00000e1c:    f8d0121c    ....    LDR      r1,[r0,#0x21c]
        0x00000e20:    f8d00230    ..0.    LDR      r0,[r0,#0x230]
        0x00000e24:    f3c16581    ...e    UBFX     r5,r1,#26,#2
        0x00000e28:    f3c01603    ....    UBFX     r6,r0,#4,#4
        0x00000e2c:    e015        ..      B        0xe5a ; UART_SetLineConfig + 168
        0x00000e2e:    4980        .I      LDR      r1,[pc,#512] ; [0x1030] = 0x40074000
        0x00000e30:    428c        .B      CMP      r4,r1
        0x00000e32:    d108        ..      BNE      0xe46 ; UART_SetLineConfig + 148
        0x00000e34:    f8d0121c    ....    LDR      r1,[r0,#0x21c]
        0x00000e38:    f8d00230    ..0.    LDR      r0,[r0,#0x230]
        0x00000e3c:    f3c17501    ...u    UBFX     r5,r1,#28,#2
        0x00000e40:    f3c02603    ...&    UBFX     r6,r0,#8,#4
        0x00000e44:    e009        ..      B        0xe5a ; UART_SetLineConfig + 168
        0x00000e46:    497b        {I      LDR      r1,[pc,#492] ; [0x1034] = 0x40075000
        0x00000e48:    428c        .B      CMP      r4,r1
        0x00000e4a:    d10b        ..      BNE      0xe64 ; UART_SetLineConfig + 178
        0x00000e4c:    f8d0121c    ....    LDR      r1,[r0,#0x21c]
        0x00000e50:    f8d00230    ..0.    LDR      r0,[r0,#0x230]
        0x00000e54:    0f8d        ..      LSRS     r5,r1,#30
        0x00000e56:    f3c03603    ...6    UBFX     r6,r0,#12,#4
        0x00000e5a:    2d01        .-      CMP      r5,#1
        0x00000e5c:    d102        ..      BNE      0xe64 ; UART_SetLineConfig + 178
        0x00000e5e:    f000fa4c    ..L.    BL       CLK_GetPLLClockFreq ; 0x12fa
        0x00000e62:    9001        ..      STR      r0,[sp,#4]
        0x00000e64:    b1d7        ..      CBZ      r7,0xe9c ; UART_SetLineConfig + 234
        0x00000e66:    f8581025    X.%.    LDR      r1,[r8,r5,LSL #2]
        0x00000e6a:    1c76        v.      ADDS     r6,r6,#1
        0x00000e6c:    fbb1f0f6    ....    UDIV     r0,r1,r6
        0x00000e70:    eb000057    ..W.    ADD      r0,r0,r7,LSR #1
        0x00000e74:    fbb0f0f7    ....    UDIV     r0,r0,r7
        0x00000e78:    1e80        ..      SUBS     r0,r0,#2
        0x00000e7a:    f5b03f80    ...?    CMP      r0,#0x10000
        0x00000e7e:    d30a        ..      BCC      0xe96 ; UART_SetLineConfig + 228
        0x00000e80:    fbb1f0f6    ....    UDIV     r0,r1,r6
        0x00000e84:    eb0000c7    ....    ADD      r0,r0,r7,LSL #3
        0x00000e88:    fbb0f0f7    ....    UDIV     r0,r0,r7
        0x00000e8c:    f06f0101    o...    MVN      r1,#1
        0x00000e90:    eb011010    ....    ADD      r0,r1,r0,LSR #4
        0x00000e94:    e001        ..      B        0xe9a ; UART_SetLineConfig + 232
        0x00000e96:    f0405040    @.@P    ORR      r0,r0,#0x30000000
        0x00000e9a:    6260        `b      STR      r0,[r4,#0x24]
        0x00000e9c:    ea49000a    I...    ORR      r0,r9,r10
        0x00000ea0:    ea40000b    @...    ORR      r0,r0,r11
        0x00000ea4:    60e0        .`      STR      r0,[r4,#0xc]
        0x00000ea6:    e8bd9fff    ....    POP      {r0-r12,pc}
    UART_SetTimeoutCnt
        0x00000eaa:    6a02        .j      LDR      r2,[r0,#0x20]
        0x00000eac:    f02202ff    "...    BIC      r2,r2,#0xff
        0x00000eb0:    430a        .C      ORRS     r2,r2,r1
        0x00000eb2:    6202        .b      STR      r2,[r0,#0x20]
        0x00000eb4:    6841        Ah      LDR      r1,[r0,#4]
        0x00000eb6:    f4416100    A..a    ORR      r1,r1,#0x800
        0x00000eba:    6041        A`      STR      r1,[r0,#4]
        0x00000ebc:    4770        pG      BX       lr
    UART_SelectIrDAMode
        0x00000ebe:    e92d47ff    -..G    PUSH     {r0-r10,lr}
        0x00000ec2:    4604        .F      MOV      r4,r0
        0x00000ec4:    4855        UH      LDR      r0,[pc,#340] ; [0x101c] = 0x25ac
        0x00000ec6:    4691        .F      MOV      r9,r2
        0x00000ec8:    3020         0      ADDS     r0,r0,#0x20
        0x00000eca:    460f        .F      MOV      r7,r1
        0x00000ecc:    c80f        ..      LDM      r0,{r0-r3}
        0x00000ece:    e88d000f    ....    STM      sp,{r0-r3}
        0x00000ed2:    2500        .%      MOVS     r5,#0
        0x00000ed4:    2002        .       MOVS     r0,#2
        0x00000ed6:    462e        .F      MOV      r6,r5
        0x00000ed8:    6320         c      STR      r0,[r4,#0x30]
        0x00000eda:    4951        QI      LDR      r1,[pc,#324] ; [0x1020] = 0x40070000
        0x00000edc:    0740        @.      LSLS     r0,r0,#29
        0x00000ede:    46e8        .F      MOV      r8,sp
        0x00000ee0:    428c        .B      CMP      r4,r1
        0x00000ee2:    d106        ..      BNE      0xef2 ; UART_SelectIrDAMode + 52
        0x00000ee4:    f8d01214    ....    LDR      r1,[r0,#0x214]
        0x00000ee8:    f8d00220    .. .    LDR      r0,[r0,#0x220]
        0x00000eec:    f3c16501    ...e    UBFX     r5,r1,#24,#2
        0x00000ef0:    e02a        *.      B        0xf48 ; UART_SelectIrDAMode + 138
        0x00000ef2:    494c        LI      LDR      r1,[pc,#304] ; [0x1024] = 0x40071000
        0x00000ef4:    428c        .B      CMP      r4,r1
        0x00000ef6:    d106        ..      BNE      0xf06 ; UART_SelectIrDAMode + 72
        0x00000ef8:    f8d01214    ....    LDR      r1,[r0,#0x214]
        0x00000efc:    f8d00220    .. .    LDR      r0,[r0,#0x220]
        0x00000f00:    f3c16581    ...e    UBFX     r5,r1,#26,#2
        0x00000f04:    e02b        +.      B        0xf5e ; UART_SelectIrDAMode + 160
        0x00000f06:    4948        HI      LDR      r1,[pc,#288] ; [0x1028] = 0x40072000
        0x00000f08:    428c        .B      CMP      r4,r1
        0x00000f0a:    d108        ..      BNE      0xf1e ; UART_SelectIrDAMode + 96
        0x00000f0c:    f8d0121c    ....    LDR      r1,[r0,#0x21c]
        0x00000f10:    f8d00230    ..0.    LDR      r0,[r0,#0x230]
        0x00000f14:    f3c16501    ...e    UBFX     r5,r1,#24,#2
        0x00000f18:    f000060f    ....    AND      r6,r0,#0xf
        0x00000f1c:    e021        !.      B        0xf62 ; UART_SelectIrDAMode + 164
        0x00000f1e:    4943        CI      LDR      r1,[pc,#268] ; [0x102c] = 0x40073000
        0x00000f20:    428c        .B      CMP      r4,r1
        0x00000f22:    d108        ..      BNE      0xf36 ; UART_SelectIrDAMode + 120
        0x00000f24:    f8d0121c    ....    LDR      r1,[r0,#0x21c]
        0x00000f28:    f8d00230    ..0.    LDR      r0,[r0,#0x230]
        0x00000f2c:    f3c16581    ...e    UBFX     r5,r1,#26,#2
        0x00000f30:    f3c01603    ....    UBFX     r6,r0,#4,#4
        0x00000f34:    e015        ..      B        0xf62 ; UART_SelectIrDAMode + 164
        0x00000f36:    493e        >I      LDR      r1,[pc,#248] ; [0x1030] = 0x40074000
        0x00000f38:    428c        .B      CMP      r4,r1
        0x00000f3a:    d108        ..      BNE      0xf4e ; UART_SelectIrDAMode + 144
        0x00000f3c:    f8d0121c    ....    LDR      r1,[r0,#0x21c]
        0x00000f40:    f8d00230    ..0.    LDR      r0,[r0,#0x230]
        0x00000f44:    f3c17501    ...u    UBFX     r5,r1,#28,#2
        0x00000f48:    f3c02603    ...&    UBFX     r6,r0,#8,#4
        0x00000f4c:    e009        ..      B        0xf62 ; UART_SelectIrDAMode + 164
        0x00000f4e:    4939        9I      LDR      r1,[pc,#228] ; [0x1034] = 0x40075000
        0x00000f50:    428c        .B      CMP      r4,r1
        0x00000f52:    d10b        ..      BNE      0xf6c ; UART_SelectIrDAMode + 174
        0x00000f54:    f8d0121c    ....    LDR      r1,[r0,#0x21c]
        0x00000f58:    f8d00230    ..0.    LDR      r0,[r0,#0x230]
        0x00000f5c:    0f8d        ..      LSRS     r5,r1,#30
        0x00000f5e:    f3c03603    ...6    UBFX     r6,r0,#12,#4
        0x00000f62:    2d01        .-      CMP      r5,#1
        0x00000f64:    d102        ..      BNE      0xf6c ; UART_SelectIrDAMode + 174
        0x00000f66:    f000f9c8    ....    BL       CLK_GetPLLClockFreq ; 0x12fa
        0x00000f6a:    9001        ..      STR      r0,[sp,#4]
        0x00000f6c:    b187        ..      CBZ      r7,0xf90 ; UART_SelectIrDAMode + 210
        0x00000f6e:    f8580025    X.%.    LDR      r0,[r8,r5,LSL #2]
        0x00000f72:    1c76        v.      ADDS     r6,r6,#1
        0x00000f74:    fbb0f0f6    ....    UDIV     r0,r0,r6
        0x00000f78:    eb0000c7    ....    ADD      r0,r0,r7,LSL #3
        0x00000f7c:    fbb0f0f7    ....    UDIV     r0,r0,r7
        0x00000f80:    f06f0101    o...    MVN      r1,#1
        0x00000f84:    eb011010    ....    ADD      r0,r1,r0,LSR #4
        0x00000f88:    0c09        ..      LSRS     r1,r1,#16
        0x00000f8a:    4288        .B      CMP      r0,r1
        0x00000f8c:    d200        ..      BCS      0xf90 ; UART_SelectIrDAMode + 210
        0x00000f8e:    6260        `b      STR      r0,[r4,#0x24]
        0x00000f90:    6aa0        .j      LDR      r0,[r4,#0x28]
        0x00000f92:    f1b90f00    ....    CMP      r9,#0
        0x00000f96:    d008        ..      BEQ      0xfaa ; UART_SelectIrDAMode + 236
        0x00000f98:    f0200020     . .    BIC      r0,r0,#0x20
        0x00000f9c:    62a0        .b      STR      r0,[r4,#0x28]
        0x00000f9e:    6aa0        .j      LDR      r0,[r4,#0x28]
        0x00000fa0:    f0400002    @...    ORR      r0,r0,#2
        0x00000fa4:    62a0        .b      STR      r0,[r4,#0x28]
        0x00000fa6:    e8bd87ff    ....    POP      {r0-r10,pc}
        0x00000faa:    f0400040    @.@.    ORR      r0,r0,#0x40
        0x00000fae:    62a0        .b      STR      r0,[r4,#0x28]
        0x00000fb0:    6aa0        .j      LDR      r0,[r4,#0x28]
        0x00000fb2:    f0200002     ...    BIC      r0,r0,#2
        0x00000fb6:    e7f5        ..      B        0xfa4 ; UART_SelectIrDAMode + 230
    UART_SelectRS485Mode
        0x00000fb8:    b510        ..      PUSH     {r4,lr}
        0x00000fba:    2303        .#      MOVS     r3,#3
        0x00000fbc:    6303        .c      STR      r3,[r0,#0x30]
        0x00000fbe:    6ac3        .j      LDR      r3,[r0,#0x2c]
        0x00000fc0:    4c1e        .L      LDR      r4,[pc,#120] ; [0x103c] = 0xfff8ff
        0x00000fc2:    4023        #@      ANDS     r3,r3,r4
        0x00000fc4:    62c3        .b      STR      r3,[r0,#0x2c]
        0x00000fc6:    6ac3        .j      LDR      r3,[r0,#0x2c]
        0x00000fc8:    ea416102    A..a    ORR      r1,r1,r2,LSL #24
        0x00000fcc:    430b        .C      ORRS     r3,r3,r1
        0x00000fce:    62c3        .b      STR      r3,[r0,#0x2c]
        0x00000fd0:    bd10        ..      POP      {r4,pc}
    UART_SelectLINMode
        0x00000fd2:    2301        .#      MOVS     r3,#1
        0x00000fd4:    6303        .c      STR      r3,[r0,#0x30]
        0x00000fd6:    6ac3        .j      LDR      r3,[r0,#0x2c]
        0x00000fd8:    f02303cf    #...    BIC      r3,r3,#0xcf
        0x00000fdc:    62c3        .b      STR      r3,[r0,#0x2c]
        0x00000fde:    6ac3        .j      LDR      r3,[r0,#0x2c]
        0x00000fe0:    4311        .C      ORRS     r1,r1,r2
        0x00000fe2:    430b        .C      ORRS     r3,r3,r1
        0x00000fe4:    62c3        .b      STR      r3,[r0,#0x2c]
        0x00000fe6:    4770        pG      BX       lr
    UART_Write
        0x00000fe8:    b5f0        ..      PUSH     {r4-r7,lr}
        0x00000fea:    4604        .F      MOV      r4,r0
        0x00000fec:    2600        .&      MOVS     r6,#0
        0x00000fee:    4630        0F      MOV      r0,r6
        0x00000ff0:    f04f4580    O..E    MOV      r5,#0x40000000
        0x00000ff4:    e00c        ..      B        0x1010 ; UART_Write + 40
        0x00000ff6:    2300        .#      MOVS     r3,#0
        0x00000ff8:    e002        ..      B        0x1000 ; UART_Write + 24
        0x00000ffa:    1c5b        [.      ADDS     r3,r3,#1
        0x00000ffc:    42ab        .B      CMP      r3,r5
        0x00000ffe:    d209        ..      BCS      0x1014 ; UART_Write + 44
        0x00001000:    69a7        .i      LDR      r7,[r4,#0x18]
        0x00001002:    023f        ?.      LSLS     r7,r7,#8
        0x00001004:    d4f9        ..      BMI      0xffa ; UART_Write + 18
        0x00001006:    2e00        ..      CMP      r6,#0
        0x00001008:    d104        ..      BNE      0x1014 ; UART_Write + 44
        0x0000100a:    5c0b        .\      LDRB     r3,[r1,r0]
        0x0000100c:    6023        #`      STR      r3,[r4,#0]
        0x0000100e:    1c40        @.      ADDS     r0,r0,#1
        0x00001010:    4290        .B      CMP      r0,r2
        0x00001012:    d1f0        ..      BNE      0xff6 ; UART_Write + 14
        0x00001014:    bdf0        ..      POP      {r4-r7,pc}
    $d
        0x00001016:    0000        ..      DCW    0
        0x00001018:    01000001    ....    DCD    16777217
        0x0000101c:    000025ac    .%..    DCD    9644
        0x00001020:    40070000    ...@    DCD    1074200576
        0x00001024:    40071000    ...@    DCD    1074204672
        0x00001028:    40072000    . .@    DCD    1074208768
        0x0000102c:    40073000    .0.@    DCD    1074212864
        0x00001030:    40074000    .@.@    DCD    1074216960
        0x00001034:    40075000    .P.@    DCD    1074221056
        0x00001038:    fff0ff0f    ....    DCD    4293984015
        0x0000103c:    00fff8ff    ....    DCD    16775423
    $t
    .text
    CLK_DisableModuleClock
        0x00001040:    f000021f    ....    AND      r2,r0,#0x1f
        0x00001044:    2101        .!      MOVS     r1,#1
        0x00001046:    4091        .@      LSLS     r1,r1,r2
        0x00001048:    4afe        .J      LDR      r2,[pc,#1016] ; [0x1444] = 0x40000204
        0x0000104a:    0f80        ..      LSRS     r0,r0,#30
        0x0000104c:    eb020080    ....    ADD      r0,r2,r0,LSL #2
        0x00001050:    6802        .h      LDR      r2,[r0,#0]
        0x00001052:    438a        .C      BICS     r2,r2,r1
        0x00001054:    6002        .`      STR      r2,[r0,#0]
        0x00001056:    4770        pG      BX       lr
    CLK_DisableCKO
        0x00001058:    48fb        .H      LDR      r0,[pc,#1004] ; [0x1448] = 0x57c00006
        0x0000105a:    e7f1        ..      B        CLK_DisableModuleClock ; 0x1040
    CLK_SetModuleClock
        0x0000105c:    b5f0        ..      PUSH     {r4-r7,lr}
        0x0000105e:    f4103f7f    ...?    TST      r0,#0x3fc00
        0x00001062:    d030        0.      BEQ      0x10c6 ; CLK_SetModuleClock + 106
        0x00001064:    f04f4380    O..C    MOV      r3,#0x40000000
        0x00001068:    f8d331f4    ...1    LDR      r3,[r3,#0x1f4]
        0x0000106c:    f8dfc3d4    ....    LDR      r12,[pc,#980] ; [0x1444] = 0x40000204
        0x00001070:    b2df        ..      UXTB     r7,r3
        0x00001072:    4bf4        .K      LDR      r3,[pc,#976] ; [0x1444] = 0x40000204
        0x00001074:    f10c0c28    ..(.    ADD      r12,r12,#0x28
        0x00001078:    331c        .3      ADDS     r3,r3,#0x1c
        0x0000107a:    f3c04481    ...D    UBFX     r4,r0,#18,#2
        0x0000107e:    ea6f4590    o..E    MVN      r5,r0,LSR #18
        0x00001082:    f10c0604    ....    ADD      r6,r12,#4
        0x00001086:    eb030384    ....    ADD      r3,r3,r4,LSL #2
        0x0000108a:    2f01        ./      CMP      r7,#1
        0x0000108c:    d002        ..      BEQ      0x1094 ; CLK_SetModuleClock + 56
        0x0000108e:    2c02        .,      CMP      r4,#2
        0x00001090:    d00d        ..      BEQ      0x10ae ; CLK_SetModuleClock + 82
        0x00001092:    e001        ..      B        0x1098 ; CLK_SetModuleClock + 60
        0x00001094:    2c02        .,      CMP      r4,#2
        0x00001096:    d002        ..      BEQ      0x109e ; CLK_SetModuleClock + 66
        0x00001098:    07ac        ..      LSLS     r4,r5,#30
        0x0000109a:    d00a        ..      BEQ      0x10b2 ; CLK_SetModuleClock + 86
        0x0000109c:    e00a        ..      B        0x10b4 ; CLK_SetModuleClock + 88
        0x0000109e:    43c3        .C      MVNS     r3,r0
        0x000010a0:    06dc        ..      LSLS     r4,r3,#27
        0x000010a2:    4bea        .K      LDR      r3,[pc,#936] ; [0x144c] = 0x40000228
        0x000010a4:    d006        ..      BEQ      0x10b4 ; CLK_SetModuleClock + 88
        0x000010a6:    f000041f    ....    AND      r4,r0,#0x1f
        0x000010aa:    2c1d        .,      CMP      r4,#0x1d
        0x000010ac:    d002        ..      BEQ      0x10b4 ; CLK_SetModuleClock + 88
        0x000010ae:    4663        cF      MOV      r3,r12
        0x000010b0:    e000        ..      B        0x10b4 ; CLK_SetModuleClock + 88
        0x000010b2:    4633        3F      MOV      r3,r6
        0x000010b4:    681c        .h      LDR      r4,[r3,#0]
        0x000010b6:    f3c02587    ...%    UBFX     r5,r0,#10,#8
        0x000010ba:    f3c01644    ..D.    UBFX     r6,r0,#5,#5
        0x000010be:    40b5        .@      LSLS     r5,r5,r6
        0x000010c0:    43ac        .C      BICS     r4,r4,r5
        0x000010c2:    4314        .C      ORRS     r4,r4,r2
        0x000010c4:    601c        .`      STR      r4,[r3,#0]
        0x000010c6:    0e42        B.      LSRS     r2,r0,#25
        0x000010c8:    0752        R.      LSLS     r2,r2,#29
        0x000010ca:    d00e        ..      BEQ      0x10ea ; CLK_SetModuleClock + 142
        0x000010cc:    4bdd        .K      LDR      r3,[pc,#884] ; [0x1444] = 0x40000204
        0x000010ce:    f3c07201    ...r    UBFX     r2,r0,#28,#2
        0x000010d2:    330c        .3      ADDS     r3,r3,#0xc
        0x000010d4:    eb030282    ....    ADD      r2,r3,r2,LSL #2
        0x000010d8:    6813        .h      LDR      r3,[r2,#0]
        0x000010da:    f3c06442    ..Bd    UBFX     r4,r0,#25,#3
        0x000010de:    f3c05004    ...P    UBFX     r0,r0,#20,#5
        0x000010e2:    4084        .@      LSLS     r4,r4,r0
        0x000010e4:    43a3        .C      BICS     r3,r3,r4
        0x000010e6:    430b        .C      ORRS     r3,r3,r1
        0x000010e8:    6013        .`      STR      r3,[r2,#0]
        0x000010ea:    bdf0        ..      POP      {r4-r7,pc}
    CLK_EnableModuleClock
        0x000010ec:    f000021f    ....    AND      r2,r0,#0x1f
        0x000010f0:    2101        .!      MOVS     r1,#1
        0x000010f2:    4091        .@      LSLS     r1,r1,r2
        0x000010f4:    4ad3        .J      LDR      r2,[pc,#844] ; [0x1444] = 0x40000204
        0x000010f6:    0f80        ..      LSRS     r0,r0,#30
        0x000010f8:    eb020080    ....    ADD      r0,r2,r0,LSL #2
        0x000010fc:    6802        .h      LDR      r2,[r0,#0]
        0x000010fe:    430a        .C      ORRS     r2,r2,r1
        0x00001100:    6002        .`      STR      r2,[r0,#0]
        0x00001102:    4770        pG      BX       lr
    CLK_EnableCKO
        0x00001104:    ea411142    A.B.    ORR      r1,r1,r2,LSL #5
        0x00001108:    b510        ..      PUSH     {r4,lr}
        0x0000110a:    f04f4280    O..B    MOV      r2,#0x40000000
        0x0000110e:    f0410110    A...    ORR      r1,r1,#0x10
        0x00001112:    4603        .F      MOV      r3,r0
        0x00001114:    f8c21260    ..`.    STR      r1,[r2,#0x260]
        0x00001118:    4ccb        .L      LDR      r4,[pc,#812] ; [0x1448] = 0x57c00006
        0x0000111a:    4620         F      MOV      r0,r4
        0x0000111c:    f7ffffe6    ....    BL       CLK_EnableModuleClock ; 0x10ec
        0x00001120:    4620         F      MOV      r0,r4
        0x00001122:    e8bd4010    ...@    POP      {r4,lr}
        0x00001126:    2200        ."      MOVS     r2,#0
        0x00001128:    4619        .F      MOV      r1,r3
        0x0000112a:    e797        ..      B        CLK_SetModuleClock ; 0x105c
    CLK_PowerDown
        0x0000112c:    48c8        .H      LDR      r0,[pc,#800] ; [0x1450] = 0xe000ed10
        0x0000112e:    6801        .h      LDR      r1,[r0,#0]
        0x00001130:    f0410104    A...    ORR      r1,r1,#4
        0x00001134:    6001        .`      STR      r1,[r0,#0]
        0x00001136:    0680        ..      LSLS     r0,r0,#26
        0x00001138:    f8d01200    ....    LDR      r1,[r0,#0x200]
        0x0000113c:    f0410180    A...    ORR      r1,r1,#0x80
        0x00001140:    f8c01200    ....    STR      r1,[r0,#0x200]
        0x00001144:    f8501ff0    P...    LDR      r1,[r0,#0xf0]!
        0x00001148:    6802        .h      LDR      r2,[r0,#0]
        0x0000114a:    f0220203    "...    BIC      r2,r2,#3
        0x0000114e:    6002        .`      STR      r2,[r0,#0]
        0x00001150:    bf30        0.      WFI      
        0x00001152:    6001        .`      STR      r1,[r0,#0]
        0x00001154:    4770        pG      BX       lr
    CLK_Idle
        0x00001156:    48be        .H      LDR      r0,[pc,#760] ; [0x1450] = 0xe000ed10
        0x00001158:    6801        .h      LDR      r1,[r0,#0]
        0x0000115a:    f0210104    !...    BIC      r1,r1,#4
        0x0000115e:    6001        .`      STR      r1,[r0,#0]
        0x00001160:    0680        ..      LSLS     r0,r0,#26
        0x00001162:    f8d01200    ....    LDR      r1,[r0,#0x200]
        0x00001166:    f0210180    !...    BIC      r1,r1,#0x80
        0x0000116a:    f8c01200    ....    STR      r1,[r0,#0x200]
        0x0000116e:    bf30        0.      WFI      
        0x00001170:    4770        pG      BX       lr
    CLK_GetHXTFreq
        0x00001172:    f04f4080    O..@    MOV      r0,#0x40000000
        0x00001176:    f8d00200    ....    LDR      r0,[r0,#0x200]
        0x0000117a:    07c0        ..      LSLS     r0,r0,#31
        0x0000117c:    d000        ..      BEQ      0x1180 ; CLK_GetHXTFreq + 14
        0x0000117e:    48b5        .H      LDR      r0,[pc,#724] ; [0x1454] = 0xb71b00
        0x00001180:    4770        pG      BX       lr
    CLK_GetLXTFreq
        0x00001182:    f04f4080    O..@    MOV      r0,#0x40000000
        0x00001186:    f8d00200    ....    LDR      r0,[r0,#0x200]
        0x0000118a:    0780        ..      LSLS     r0,r0,#30
        0x0000118c:    d502        ..      BPL      0x1194 ; CLK_GetLXTFreq + 18
        0x0000118e:    f44f4000    O..@    MOV      r0,#0x8000
        0x00001192:    4770        pG      BX       lr
        0x00001194:    2000        .       MOVS     r0,#0
        0x00001196:    4770        pG      BX       lr
    CLK_GetPCLK0Freq
        0x00001198:    b510        ..      PUSH     {r4,lr}
        0x0000119a:    f7fff843    ..C.    BL       SystemCoreClockUpdate ; 0x224
        0x0000119e:    f04f4180    O..A    MOV      r1,#0x40000000
        0x000011a2:    f8d10234    ..4.    LDR      r0,[r1,#0x234]
        0x000011a6:    0742        B.      LSLS     r2,r0,#29
        0x000011a8:    48ab        .H      LDR      r0,[pc,#684] ; [0x1458] = 0x20000000
        0x000011aa:    d017        ..      BEQ      0x11dc ; CLK_GetPCLK0Freq + 68
        0x000011ac:    f8d12234    ..4"    LDR      r2,[r1,#0x234]
        0x000011b0:    f0020207    ....    AND      r2,r2,#7
        0x000011b4:    2a01        .*      CMP      r2,#1
        0x000011b6:    d013        ..      BEQ      0x11e0 ; CLK_GetPCLK0Freq + 72
        0x000011b8:    f8d12234    ..4"    LDR      r2,[r1,#0x234]
        0x000011bc:    f0020207    ....    AND      r2,r2,#7
        0x000011c0:    2a02        .*      CMP      r2,#2
        0x000011c2:    d010        ..      BEQ      0x11e6 ; CLK_GetPCLK0Freq + 78
        0x000011c4:    f8d12234    ..4"    LDR      r2,[r1,#0x234]
        0x000011c8:    f0020207    ....    AND      r2,r2,#7
        0x000011cc:    2a03        .*      CMP      r2,#3
        0x000011ce:    d00d        ..      BEQ      0x11ec ; CLK_GetPCLK0Freq + 84
        0x000011d0:    f8d11234    ..4.    LDR      r1,[r1,#0x234]
        0x000011d4:    f0010107    ....    AND      r1,r1,#7
        0x000011d8:    2904        .)      CMP      r1,#4
        0x000011da:    d00a        ..      BEQ      0x11f2 ; CLK_GetPCLK0Freq + 90
        0x000011dc:    6800        .h      LDR      r0,[r0,#0]
        0x000011de:    bd10        ..      POP      {r4,pc}
        0x000011e0:    6800        .h      LDR      r0,[r0,#0]
        0x000011e2:    0840        @.      LSRS     r0,r0,#1
        0x000011e4:    bd10        ..      POP      {r4,pc}
        0x000011e6:    6800        .h      LDR      r0,[r0,#0]
        0x000011e8:    0880        ..      LSRS     r0,r0,#2
        0x000011ea:    bd10        ..      POP      {r4,pc}
        0x000011ec:    6800        .h      LDR      r0,[r0,#0]
        0x000011ee:    08c0        ..      LSRS     r0,r0,#3
        0x000011f0:    bd10        ..      POP      {r4,pc}
        0x000011f2:    6800        .h      LDR      r0,[r0,#0]
        0x000011f4:    0900        ..      LSRS     r0,r0,#4
        0x000011f6:    bd10        ..      POP      {r4,pc}
    CLK_GetPCLK1Freq
        0x000011f8:    b510        ..      PUSH     {r4,lr}
        0x000011fa:    f7fff813    ....    BL       SystemCoreClockUpdate ; 0x224
        0x000011fe:    f04f4180    O..A    MOV      r1,#0x40000000
        0x00001202:    f8d10234    ..4.    LDR      r0,[r1,#0x234]
        0x00001206:    f0100f70    ..p.    TST      r0,#0x70
        0x0000120a:    4893        .H      LDR      r0,[pc,#588] ; [0x1458] = 0x20000000
        0x0000120c:    d017        ..      BEQ      0x123e ; CLK_GetPCLK1Freq + 70
        0x0000120e:    f8d12234    ..4"    LDR      r2,[r1,#0x234]
        0x00001212:    f3c21202    ....    UBFX     r2,r2,#4,#3
        0x00001216:    2a01        .*      CMP      r2,#1
        0x00001218:    d013        ..      BEQ      0x1242 ; CLK_GetPCLK1Freq + 74
        0x0000121a:    f8d12234    ..4"    LDR      r2,[r1,#0x234]
        0x0000121e:    f3c21202    ....    UBFX     r2,r2,#4,#3
        0x00001222:    2a02        .*      CMP      r2,#2
        0x00001224:    d010        ..      BEQ      0x1248 ; CLK_GetPCLK1Freq + 80
        0x00001226:    f8d12234    ..4"    LDR      r2,[r1,#0x234]
        0x0000122a:    f3c21202    ....    UBFX     r2,r2,#4,#3
        0x0000122e:    2a03        .*      CMP      r2,#3
        0x00001230:    d00d        ..      BEQ      0x124e ; CLK_GetPCLK1Freq + 86
        0x00001232:    f8d11234    ..4.    LDR      r1,[r1,#0x234]
        0x00001236:    f3c11102    ....    UBFX     r1,r1,#4,#3
        0x0000123a:    2904        .)      CMP      r1,#4
        0x0000123c:    d00a        ..      BEQ      0x1254 ; CLK_GetPCLK1Freq + 92
        0x0000123e:    6800        .h      LDR      r0,[r0,#0]
        0x00001240:    bd10        ..      POP      {r4,pc}
        0x00001242:    6800        .h      LDR      r0,[r0,#0]
        0x00001244:    0840        @.      LSRS     r0,r0,#1
        0x00001246:    bd10        ..      POP      {r4,pc}
        0x00001248:    6800        .h      LDR      r0,[r0,#0]
        0x0000124a:    0880        ..      LSRS     r0,r0,#2
        0x0000124c:    bd10        ..      POP      {r4,pc}
        0x0000124e:    6800        .h      LDR      r0,[r0,#0]
        0x00001250:    08c0        ..      LSRS     r0,r0,#3
        0x00001252:    bd10        ..      POP      {r4,pc}
        0x00001254:    6800        .h      LDR      r0,[r0,#0]
        0x00001256:    0900        ..      LSRS     r0,r0,#4
        0x00001258:    bd10        ..      POP      {r4,pc}
    CLK_GetHCLKFreq
        0x0000125a:    b510        ..      PUSH     {r4,lr}
        0x0000125c:    f7feffe2    ....    BL       SystemCoreClockUpdate ; 0x224
        0x00001260:    487d        }H      LDR      r0,[pc,#500] ; [0x1458] = 0x20000000
        0x00001262:    6800        .h      LDR      r0,[r0,#0]
        0x00001264:    bd10        ..      POP      {r4,pc}
    CLK_GetCPUFreq
        0x00001266:    b510        ..      PUSH     {r4,lr}
        0x00001268:    f7feffdc    ....    BL       SystemCoreClockUpdate ; 0x224
        0x0000126c:    487a        zH      LDR      r0,[pc,#488] ; [0x1458] = 0x20000000
        0x0000126e:    6800        .h      LDR      r0,[r0,#0]
        0x00001270:    bd10        ..      POP      {r4,pc}
    CLK_WaitClockReady
        0x00001272:    b530        0.      PUSH     {r4,r5,lr}
        0x00001274:    2401        .$      MOVS     r4,#1
        0x00001276:    4605        .F      MOV      r5,r0
        0x00001278:    4978        xI      LDR      r1,[pc,#480] ; [0x145c] = 0x20f580
        0x0000127a:    07a2        ..      LSLS     r2,r4,#30
        0x0000127c:    e005        ..      B        0x128a ; CLK_WaitClockReady + 24
        0x0000127e:    1e08        ..      SUBS     r0,r1,#0
        0x00001280:    f1a10101    ....    SUB      r1,r1,#1
        0x00001284:    dc01        ..      BGT      0x128a ; CLK_WaitClockReady + 24
        0x00001286:    2400        .$      MOVS     r4,#0
        0x00001288:    e004        ..      B        0x1294 ; CLK_WaitClockReady + 34
        0x0000128a:    f8d23250    ..P2    LDR      r3,[r2,#0x250]
        0x0000128e:    ea350003    5...    BICS     r0,r5,r3
        0x00001292:    d1f4        ..      BNE      0x127e ; CLK_WaitClockReady + 12
        0x00001294:    4620         F      MOV      r0,r4
        0x00001296:    bd30        0.      POP      {r4,r5,pc}
    CLK_SetHCLK
        0x00001298:    e92d41f0    -..A    PUSH     {r4-r8,lr}
        0x0000129c:    f04f4480    O..D    MOV      r4,#0x40000000
        0x000012a0:    4607        .F      MOV      r7,r0
        0x000012a2:    f8d40250    ..P.    LDR      r0,[r4,#0x250]
        0x000012a6:    460e        .F      MOV      r6,r1
        0x000012a8:    f0000510    ....    AND      r5,r0,#0x10
        0x000012ac:    f8d40200    ....    LDR      r0,[r4,#0x200]
        0x000012b0:    f0400004    @...    ORR      r0,r0,#4
        0x000012b4:    f8c40200    ....    STR      r0,[r4,#0x200]
        0x000012b8:    2010        .       MOVS     r0,#0x10
        0x000012ba:    f5047400    ...t    ADD      r4,r4,#0x200
        0x000012be:    f7ffffd8    ....    BL       CLK_WaitClockReady ; 0x1272
        0x000012c2:    6920         i      LDR      r0,[r4,#0x10]
        0x000012c4:    f0400007    @...    ORR      r0,r0,#7
        0x000012c8:    6120         a      STR      r0,[r4,#0x10]
        0x000012ca:    6a20         j      LDR      r0,[r4,#0x20]
        0x000012cc:    f020000f     ...    BIC      r0,r0,#0xf
        0x000012d0:    4330        0C      ORRS     r0,r0,r6
        0x000012d2:    6220         b      STR      r0,[r4,#0x20]
        0x000012d4:    6920         i      LDR      r0,[r4,#0x10]
        0x000012d6:    f0200007     ...    BIC      r0,r0,#7
        0x000012da:    4338        8C      ORRS     r0,r0,r7
        0x000012dc:    6120         a      STR      r0,[r4,#0x10]
        0x000012de:    f5a47400    ...t    SUB      r4,r4,#0x200
        0x000012e2:    f7feff9f    ....    BL       SystemCoreClockUpdate ; 0x224
        0x000012e6:    2d00        .-      CMP      r5,#0
        0x000012e8:    d105        ..      BNE      0x12f6 ; CLK_SetHCLK + 94
        0x000012ea:    f8d40200    ....    LDR      r0,[r4,#0x200]
        0x000012ee:    f0200004     ...    BIC      r0,r0,#4
        0x000012f2:    f8c40200    ....    STR      r0,[r4,#0x200]
        0x000012f6:    e8bd81f0    ....    POP      {r4-r8,pc}
    CLK_GetPLLClockFreq
        0x000012fa:    b508        ..      PUSH     {r3,lr}
        0x000012fc:    a158        X.      ADR      r1,{pc}+0x164 ; 0x1460
        0x000012fe:    2000        .       MOVS     r0,#0
        0x00001300:    6809        .h      LDR      r1,[r1,#0]
        0x00001302:    9100        ..      STR      r1,[sp,#0]
        0x00001304:    f04f4180    O..A    MOV      r1,#0x40000000
        0x00001308:    f8d11240    ..@.    LDR      r1,[r1,#0x240]
        0x0000130c:    f4112fa0    .../    TST      r1,#0x50000
        0x00001310:    d113        ..      BNE      0x133a ; CLK_GetPLLClockFreq + 64
        0x00001312:    4850        PH      LDR      r0,[pc,#320] ; [0x1454] = 0xb71b00
        0x00001314:    038a        ..      LSLS     r2,r1,#14
        0x00001316:    d410        ..      BMI      0x133a ; CLK_GetPLLClockFreq + 64
        0x00001318:    f3c10008    ....    UBFX     r0,r1,#0,#9
        0x0000131c:    f3c13281    ...2    UBFX     r2,r1,#14,#2
        0x00001320:    4b50        PK      LDR      r3,[pc,#320] ; [0x1464] = 0x2dc6c0
        0x00001322:    1c80        ..      ADDS     r0,r0,#2
        0x00001324:    f81d2002    ...     LDRB     r2,[sp,r2]
        0x00001328:    f3c12144    ..D!    UBFX     r1,r1,#9,#5
        0x0000132c:    4358        XC      MULS     r0,r3,r0
        0x0000132e:    1c49        I.      ADDS     r1,r1,#1
        0x00001330:    fb11f102    ....    SMULBB   r1,r1,r2
        0x00001334:    fbb0f0f1    ....    UDIV     r0,r0,r1
        0x00001338:    00c0        ..      LSLS     r0,r0,#3
        0x0000133a:    bd08        ..      POP      {r3,pc}
    CLK_DisablePLL
        0x0000133c:    f04f4080    O..@    MOV      r0,#0x40000000
        0x00001340:    f8d01240    ..@.    LDR      r1,[r0,#0x240]
        0x00001344:    f4413180    A..1    ORR      r1,r1,#0x10000
        0x00001348:    f8c01240    ..@.    STR      r1,[r0,#0x240]
        0x0000134c:    4770        pG      BX       lr
    CLK_EnablePLL
        0x0000134e:    e92d4ff8    -..O    PUSH     {r3-r11,lr}
        0x00001352:    460e        .F      MOV      r6,r1
        0x00001354:    4604        .F      MOV      r4,r0
        0x00001356:    f7fffff1    ....    BL       CLK_DisablePLL ; 0x133c
        0x0000135a:    f04f4080    O..@    MOV      r0,#0x40000000
        0x0000135e:    4d3d        =M      LDR      r5,[pc,#244] ; [0x1454] = 0xb71b00
        0x00001360:    f8d01200    ....    LDR      r1,[r0,#0x200]
        0x00001364:    b1c4        ..      CBZ      r4,0x1398 ; CLK_EnablePLL + 74
        0x00001366:    f0410104    A...    ORR      r1,r1,#4
        0x0000136a:    f8c01200    ....    STR      r1,[r0,#0x200]
        0x0000136e:    2010        .       MOVS     r0,#0x10
        0x00001370:    f7ffff7f    ....    BL       CLK_WaitClockReady ; 0x1272
        0x00001374:    f44f2000    O..     MOV      r0,#0x80000
        0x00001378:    9000        ..      STR      r0,[sp,#0]
        0x0000137a:    483b        ;H      LDR      r0,[pc,#236] ; [0x1468] = 0xfd050f80
        0x0000137c:    493b        ;I      LDR      r1,[pc,#236] ; [0x146c] = 0x1ad27480
        0x0000137e:    4430        0D      ADD      r0,r0,r6
        0x00001380:    46ab        .F      MOV      r11,r5
        0x00001382:    4288        .B      CMP      r0,r1
        0x00001384:    d87c        |.      BHI      0x1480 ; CLK_EnablePLL + 306
        0x00001386:    f04f0900    O...    MOV      r9,#0
        0x0000138a:    f04f31ff    O..1    MOV      r1,#0xffffffff
        0x0000138e:    46cc        .F      MOV      r12,r9
        0x00001390:    464f        OF      MOV      r7,r9
        0x00001392:    46b6        .F      MOV      lr,r6
        0x00001394:    2501        .%      MOVS     r5,#1
        0x00001396:    e015        ..      B        0x13c4 ; CLK_EnablePLL + 118
        0x00001398:    f0410101    A...    ORR      r1,r1,#1
        0x0000139c:    f8c01200    ....    STR      r1,[r0,#0x200]
        0x000013a0:    2001        .       MOVS     r0,#1
        0x000013a2:    f7ffff66    ..f.    BL       CLK_WaitClockReady ; 0x1272
        0x000013a6:    2000        .       MOVS     r0,#0
        0x000013a8:    e7e6        ..      B        0x1378 ; CLK_EnablePLL + 42
        0x000013aa:    b3d1        ..      CBZ      r1,0x1422 ; CLK_EnablePLL + 212
        0x000013ac:    2d03        .-      CMP      r5,#3
        0x000013ae:    d035        5.      BEQ      0x141c ; CLK_EnablePLL + 206
        0x000013b0:    2d04        .-      CMP      r5,#4
        0x000013b2:    d002        ..      BEQ      0x13ba ; CLK_EnablePLL + 108
        0x000013b4:    2d02        .-      CMP      r5,#2
        0x000013b6:    d105        ..      BNE      0x13c4 ; CLK_EnablePLL + 118
        0x000013b8:    e002        ..      B        0x13c0 ; CLK_EnablePLL + 114
        0x000013ba:    ea4f068e    O...    LSL      r6,lr,#2
        0x000013be:    e001        ..      B        0x13c4 ; CLK_EnablePLL + 118
        0x000013c0:    ea4f064e    O.N.    LSL      r6,lr,#1
        0x000013c4:    2202        ."      MOVS     r2,#2
        0x000013c6:    b349        I.      CBZ      r1,0x141c ; CLK_EnablePLL + 206
        0x000013c8:    fbbbf0f2    ....    UDIV     r0,r11,r2
        0x000013cc:    4b28        (K      LDR      r3,[pc,#160] ; [0x1470] = 0xffc2f700
        0x000013ce:    4c28        (L      LDR      r4,[pc,#160] ; [0x1470] = 0xffc2f700
        0x000013d0:    4403        .D      ADD      r3,r3,r0
        0x000013d2:    4264        dB      RSBS     r4,r4,#0
        0x000013d4:    42a3        .B      CMP      r3,r4
        0x000013d6:    d81e        ..      BHI      0x1416 ; CLK_EnablePLL + 200
        0x000013d8:    2402        .$      MOVS     r4,#2
        0x000013da:    f3c00a5d    ..].    UBFX     r10,r0,#1,#30
        0x000013de:    4b22        "K      LDR      r3,[pc,#136] ; [0x1468] = 0xfd050f80
        0x000013e0:    fb0af004    ....    MUL      r0,r10,r4
        0x000013e4:    eb000803    ....    ADD      r8,r0,r3
        0x000013e8:    4b22        "K      LDR      r3,[pc,#136] ; [0x1474] = 0x47868c0
        0x000013ea:    4598        .E      CMP      r8,r3
        0x000013ec:    d80e        ..      BHI      0x140c ; CLK_EnablePLL + 190
        0x000013ee:    ebb00f96    ....    CMP      r0,r6,LSR #2
        0x000013f2:    d902        ..      BLS      0x13fa ; CLK_EnablePLL + 172
        0x000013f4:    eba00096    ....    SUB      r0,r0,r6,LSR #2
        0x000013f8:    e001        ..      B        0x13fe ; CLK_EnablePLL + 176
        0x000013fa:    ebc00096    ....    RSB      r0,r0,r6,LSR #2
        0x000013fe:    4288        .B      CMP      r0,r1
        0x00001400:    d204        ..      BCS      0x140c ; CLK_EnablePLL + 190
        0x00001402:    0001        ..      MOVS     r1,r0
        0x00001404:    4691        .F      MOV      r9,r2
        0x00001406:    46a4        .F      MOV      r12,r4
        0x00001408:    462f        /F      MOV      r7,r5
        0x0000140a:    d004        ..      BEQ      0x1416 ; CLK_EnablePLL + 200
        0x0000140c:    f2402001    @..     MOV      r0,#0x201
        0x00001410:    1c64        d.      ADDS     r4,r4,#1
        0x00001412:    4284        .B      CMP      r4,r0
        0x00001414:    d9e3        ..      BLS      0x13de ; CLK_EnablePLL + 144
        0x00001416:    1c52        R.      ADDS     r2,r2,#1
        0x00001418:    2a20         *      CMP      r2,#0x20
        0x0000141a:    d9d4        ..      BLS      0x13c6 ; CLK_EnablePLL + 120
        0x0000141c:    1c6d        m.      ADDS     r5,r5,#1
        0x0000141e:    2d04        .-      CMP      r5,#4
        0x00001420:    d9c3        ..      BLS      0x13aa ; CLK_EnablePLL + 92
        0x00001422:    4815        .H      LDR      r0,[pc,#84] ; [0x1478] = 0xffffc000
        0x00001424:    9900        ..      LDR      r1,[sp,#0]
        0x00001426:    eb003087    ...0    ADD      r0,r0,r7,LSL #14
        0x0000142a:    4a14        .J      LDR      r2,[pc,#80] ; [0x147c] = 0xfffffe00
        0x0000142c:    4308        .C      ORRS     r0,r0,r1
        0x0000142e:    eb022149    ..I!    ADD      r1,r2,r9,LSL #9
        0x00001432:    4308        .C      ORRS     r0,r0,r1
        0x00001434:    f1ac0102    ....    SUB      r1,r12,#2
        0x00001438:    4308        .C      ORRS     r0,r0,r1
        0x0000143a:    f04f4180    O..A    MOV      r1,#0x40000000
        0x0000143e:    f8c10240    ..@.    STR      r0,[r1,#0x240]
        0x00001442:    e01e        ..      B        0x1482 ; CLK_EnablePLL + 308
    $d
        0x00001444:    40000204    ...@    DCD    1073742340
        0x00001448:    57c00006    ...W    DCD    1472200710
        0x0000144c:    40000228    (..@    DCD    1073742376
        0x00001450:    e000ed10    ....    DCD    3758157072
        0x00001454:    00b71b00    ....    DCD    12000000
        0x00001458:    20000000    ...     DCD    536870912
        0x0000145c:    0020f580    .. .    DCD    2160000
        0x00001460:    04020201    ....    DCD    67240449
        0x00001464:    002dc6c0    ..-.    DCD    3000000
        0x00001468:    fd050f80    ....    DCD    4244967296
        0x0000146c:    1ad27480    .t..    DCD    450000000
        0x00001470:    ffc2f700    ....    DCD    4290967296
        0x00001474:    047868c0    .hx.    DCD    75000000
        0x00001478:    ffffc000    ....    DCD    4294950912
        0x0000147c:    fffffe00    ....    DCD    4294966784
    $t
        0x00001480:    e00b        ..      B        0x149a ; CLK_EnablePLL + 332
        0x00001482:    2004        .       MOVS     r0,#4
        0x00001484:    f7fffef5    ....    BL       CLK_WaitClockReady ; 0x1272
        0x00001488:    fb07f709    ....    MUL      r7,r7,r9
        0x0000148c:    fbbbf0f7    ....    UDIV     r0,r11,r7
        0x00001490:    fb00f00c    ....    MUL      r0,r0,r12
        0x00001494:    0040        @.      LSLS     r0,r0,#1
        0x00001496:    e8bd8ff8    ....    POP      {r3-r11,pc}
        0x0000149a:    b154        T.      CBZ      r4,0x14b2 ; CLK_EnablePLL + 356
        0x0000149c:    49a2        .I      LDR      r1,[pc,#648] ; [0x1728] = 0x8421e
        0x0000149e:    f04f4080    O..@    MOV      r0,#0x40000000
        0x000014a2:    f8c01240    ..@.    STR      r1,[r0,#0x240]
        0x000014a6:    2004        .       MOVS     r0,#4
        0x000014a8:    f7fffee3    ....    BL       CLK_WaitClockReady ; 0x1272
        0x000014ac:    e8bd4ff8    ...O    POP      {r3-r11,lr}
        0x000014b0:    e723        #.      B        CLK_GetPLLClockFreq ; 0x12fa
        0x000014b2:    f244211e    D..!    MOV      r1,#0x421e
        0x000014b6:    e7f2        ..      B        0x149e ; CLK_EnablePLL + 336
    CLK_SetCoreClock
        0x000014b8:    b570        p.      PUSH     {r4-r6,lr}
        0x000014ba:    f04f4480    O..D    MOV      r4,#0x40000000
        0x000014be:    4606        .F      MOV      r6,r0
        0x000014c0:    f8d40250    ..P.    LDR      r0,[r4,#0x250]
        0x000014c4:    f0000510    ....    AND      r5,r0,#0x10
        0x000014c8:    4898        .H      LDR      r0,[pc,#608] ; [0x172c] = 0xb71b000
        0x000014ca:    4286        .B      CMP      r6,r0
        0x000014cc:    d900        ..      BLS      0x14d0 ; CLK_SetCoreClock + 24
        0x000014ce:    4606        .F      MOV      r6,r0
        0x000014d0:    f8d40200    ....    LDR      r0,[r4,#0x200]
        0x000014d4:    f0400004    @...    ORR      r0,r0,#4
        0x000014d8:    f8c40200    ....    STR      r0,[r4,#0x200]
        0x000014dc:    2010        .       MOVS     r0,#0x10
        0x000014de:    f5047400    ...t    ADD      r4,r4,#0x200
        0x000014e2:    f7fffec6    ....    BL       CLK_WaitClockReady ; 0x1272
        0x000014e6:    6920         i      LDR      r0,[r4,#0x10]
        0x000014e8:    f0400007    @...    ORR      r0,r0,#7
        0x000014ec:    6120         a      STR      r0,[r4,#0x10]
        0x000014ee:    6a20         j      LDR      r0,[r4,#0x20]
        0x000014f0:    f020000f     ...    BIC      r0,r0,#0xf
        0x000014f4:    6220         b      STR      r0,[r4,#0x20]
        0x000014f6:    6820         h      LDR      r0,[r4,#0]
        0x000014f8:    f5a47400    ...t    SUB      r4,r4,#0x200
        0x000014fc:    07c0        ..      LSLS     r0,r0,#31
        0x000014fe:    4631        1F      MOV      r1,r6
        0x00001500:    d004        ..      BEQ      0x150c ; CLK_SetCoreClock + 84
        0x00001502:    2000        .       MOVS     r0,#0
        0x00001504:    f7ffff23    ..#.    BL       CLK_EnablePLL ; 0x134e
        0x00001508:    4606        .F      MOV      r6,r0
        0x0000150a:    e008        ..      B        0x151e ; CLK_SetCoreClock + 102
        0x0000150c:    f44f2000    O..     MOV      r0,#0x80000
        0x00001510:    f7ffff1d    ....    BL       CLK_EnablePLL ; 0x134e
        0x00001514:    4606        .F      MOV      r6,r0
        0x00001516:    f8d40250    ..P.    LDR      r0,[r4,#0x250]
        0x0000151a:    f0000510    ....    AND      r5,r0,#0x10
        0x0000151e:    2100        .!      MOVS     r1,#0
        0x00001520:    2002        .       MOVS     r0,#2
        0x00001522:    f7fffeb9    ....    BL       CLK_SetHCLK ; 0x1298
        0x00001526:    b92d        -.      CBNZ     r5,0x1534 ; CLK_SetCoreClock + 124
        0x00001528:    f8d40200    ....    LDR      r0,[r4,#0x200]
        0x0000152c:    f0200004     ...    BIC      r0,r0,#4
        0x00001530:    f8c40200    ....    STR      r0,[r4,#0x200]
        0x00001534:    4630        0F      MOV      r0,r6
        0x00001536:    bd70        p.      POP      {r4-r6,pc}
    CLK_SetSysTickClockSrc
        0x00001538:    f04f4180    O..A    MOV      r1,#0x40000000
        0x0000153c:    f8d12210    ..."    LDR      r2,[r1,#0x210]
        0x00001540:    f0220238    ".8.    BIC      r2,r2,#0x38
        0x00001544:    4302        .C      ORRS     r2,r2,r0
        0x00001546:    f8c12210    ..."    STR      r2,[r1,#0x210]
        0x0000154a:    4770        pG      BX       lr
    CLK_EnableXtalRC
        0x0000154c:    f04f4180    O..A    MOV      r1,#0x40000000
        0x00001550:    f8d12200    ..."    LDR      r2,[r1,#0x200]
        0x00001554:    4302        .C      ORRS     r2,r2,r0
        0x00001556:    f8c12200    ..."    STR      r2,[r1,#0x200]
        0x0000155a:    4770        pG      BX       lr
    CLK_DisableXtalRC
        0x0000155c:    f04f4180    O..A    MOV      r1,#0x40000000
        0x00001560:    f8d12200    ..."    LDR      r2,[r1,#0x200]
        0x00001564:    4382        .C      BICS     r2,r2,r0
        0x00001566:    f8c12200    ..."    STR      r2,[r1,#0x200]
        0x0000156a:    4770        pG      BX       lr
    CLK_EnableSysTick
        0x0000156c:    b530        0.      PUSH     {r4,r5,lr}
        0x0000156e:    f04f22e0    O.."    MOV      r2,#0xe000e000
        0x00001572:    2500        .%      MOVS     r5,#0
        0x00001574:    6115        .a      STR      r5,[r2,#0x10]
        0x00001576:    2804        .(      CMP      r0,#4
        0x00001578:    d00f        ..      BEQ      0x159a ; CLK_EnableSysTick + 46
        0x0000157a:    f04f4380    O..C    MOV      r3,#0x40000000
        0x0000157e:    f8d34210    ...B    LDR      r4,[r3,#0x210]
        0x00001582:    f0240438    $.8.    BIC      r4,r4,#0x38
        0x00001586:    4304        .C      ORRS     r4,r4,r0
        0x00001588:    f8c34210    ...B    STR      r4,[r3,#0x210]
        0x0000158c:    6151        Qa      STR      r1,[r2,#0x14]
        0x0000158e:    6195        .a      STR      r5,[r2,#0x18]
        0x00001590:    6910        .i      LDR      r0,[r2,#0x10]
        0x00001592:    f0400003    @...    ORR      r0,r0,#3
        0x00001596:    6110        .a      STR      r0,[r2,#0x10]
        0x00001598:    bd30        0.      POP      {r4,r5,pc}
        0x0000159a:    6910        .i      LDR      r0,[r2,#0x10]
        0x0000159c:    f0400004    @...    ORR      r0,r0,#4
        0x000015a0:    6110        .a      STR      r0,[r2,#0x10]
        0x000015a2:    e7f3        ..      B        0x158c ; CLK_EnableSysTick + 32
    CLK_DisableSysTick
        0x000015a4:    f04f21e0    O..!    MOV      r1,#0xe000e000
        0x000015a8:    2000        .       MOVS     r0,#0
        0x000015aa:    6108        .a      STR      r0,[r1,#0x10]
        0x000015ac:    4770        pG      BX       lr
    CLK_SetPowerDownMode
        0x000015ae:    b530        0.      PUSH     {r4,r5,lr}
        0x000015b0:    f04f4580    O..E    MOV      r5,#0x40000000
        0x000015b4:    4604        .F      MOV      r4,r0
        0x000015b6:    f8d501f4    ....    LDR      r0,[r5,#0x1f4]
        0x000015ba:    b2c0        ..      UXTB     r0,r0
        0x000015bc:    2801        .(      CMP      r0,#1
        0x000015be:    d004        ..      BEQ      0x15ca ; CLK_SetPowerDownMode + 28
        0x000015c0:    2c04        .,      CMP      r4,#4
        0x000015c2:    d016        ..      BEQ      0x15f2 ; CLK_SetPowerDownMode + 68
        0x000015c4:    2c05        .,      CMP      r4,#5
        0x000015c6:    d014        ..      BEQ      0x15f2 ; CLK_SetPowerDownMode + 68
        0x000015c8:    e01c        ..      B        0x1604 ; CLK_SetPowerDownMode + 86
        0x000015ca:    2c04        .,      CMP      r4,#4
        0x000015cc:    d002        ..      BEQ      0x15d4 ; CLK_SetPowerDownMode + 38
        0x000015ce:    2c05        .,      CMP      r4,#5
        0x000015d0:    d007        ..      BEQ      0x15e2 ; CLK_SetPowerDownMode + 52
        0x000015d2:    e017        ..      B        0x1604 ; CLK_SetPowerDownMode + 86
        0x000015d4:    f8d50290    ....    LDR      r0,[r5,#0x290]
        0x000015d8:    f0200070     .p.    BIC      r0,r0,#0x70
        0x000015dc:    f0400010    @...    ORR      r0,r0,#0x10
        0x000015e0:    e004        ..      B        0x15ec ; CLK_SetPowerDownMode + 62
        0x000015e2:    f8d50290    ....    LDR      r0,[r5,#0x290]
        0x000015e6:    2404        .$      MOVS     r4,#4
        0x000015e8:    f0200070     .p.    BIC      r0,r0,#0x70
        0x000015ec:    f8c50290    ....    STR      r0,[r5,#0x290]
        0x000015f0:    e008        ..      B        0x1604 ; CLK_SetPowerDownMode + 86
        0x000015f2:    f8d50200    ....    LDR      r0,[r5,#0x200]
        0x000015f6:    f0400008    @...    ORR      r0,r0,#8
        0x000015fa:    f8c50200    ....    STR      r0,[r5,#0x200]
        0x000015fe:    2008        .       MOVS     r0,#8
        0x00001600:    f7fffe37    ..7.    BL       CLK_WaitClockReady ; 0x1272
        0x00001604:    f8d50290    ....    LDR      r0,[r5,#0x290]
        0x00001608:    f0200007     ...    BIC      r0,r0,#7
        0x0000160c:    4320         C      ORRS     r0,r0,r4
        0x0000160e:    f8c50290    ....    STR      r0,[r5,#0x290]
        0x00001612:    bd30        0.      POP      {r4,r5,pc}
    CLK_EnableDPDWKPin
        0x00001614:    f04f4180    O..A    MOV      r1,#0x40000000
        0x00001618:    f8d121f4    ...!    LDR      r2,[r1,#0x1f4]
        0x0000161c:    b2d2        ..      UXTB     r2,r2
        0x0000161e:    f8d12290    ..."    LDR      r2,[r1,#0x290]
        0x00001622:    f4223240    ".@2    BIC      r2,r2,#0x30000
        0x00001626:    4302        .C      ORRS     r2,r2,r0
        0x00001628:    f8c12290    ..."    STR      r2,[r1,#0x290]
        0x0000162c:    4770        pG      BX       lr
    CLK_GetPMUWKSrc
        0x0000162e:    f04f4080    O..@    MOV      r0,#0x40000000
        0x00001632:    f8d00294    ....    LDR      r0,[r0,#0x294]
        0x00001636:    4770        pG      BX       lr
    CLK_EnableSPDWKPin
        0x00001638:    b530        0.      PUSH     {r4,r5,lr}
        0x0000163a:    4c3d        =L      LDR      r4,[pc,#244] ; [0x1730] = 0x400002a0
        0x0000163c:    eb040080    ....    ADD      r0,r4,r0,LSL #2
        0x00001640:    6804        .h      LDR      r4,[r0,#0]
        0x00001642:    f24015f7    @...    MOV      r5,#0x1f7
        0x00001646:    43ac        .C      BICS     r4,r4,r5
        0x00001648:    ea441101    D...    ORR      r1,r4,r1,LSL #4
        0x0000164c:    4311        .C      ORRS     r1,r1,r2
        0x0000164e:    4319        .C      ORRS     r1,r1,r3
        0x00001650:    f0410101    A...    ORR      r1,r1,#1
        0x00001654:    6001        .`      STR      r1,[r0,#0]
        0x00001656:    bd30        0.      POP      {r4,r5,pc}
    CLK_GetModuleClockSource
        0x00001658:    b51f        ..      PUSH     {r0-r4,lr}
        0x0000165a:    4936        6I      LDR      r1,[pc,#216] ; [0x1734] = 0x25dc
        0x0000165c:    c91e        ..      LDM      r1,{r1-r4}
        0x0000165e:    e88d001e    ....    STM      sp,{r1-r4}
        0x00001662:    4a35        5J      LDR      r2,[pc,#212] ; [0x1738] = 0xa2000010
        0x00001664:    0691        ..      LSLS     r1,r2,#26
        0x00001666:    4290        .B      CMP      r0,r2
        0x00001668:    d105        ..      BNE      0x1676 ; CLK_GetModuleClockSource + 30
        0x0000166a:    f8d10218    ....    LDR      r0,[r1,#0x218]
        0x0000166e:    f0000001    ....    AND      r0,r0,#1
        0x00001672:    b004        ..      ADD      sp,sp,#0x10
        0x00001674:    bd10        ..      POP      {r4,pc}
        0x00001676:    4a31        1J      LDR      r2,[pc,#196] ; [0x173c] = 0xa2100011
        0x00001678:    4290        .B      CMP      r0,r2
        0x0000167a:    d104        ..      BNE      0x1686 ; CLK_GetModuleClockSource + 46
        0x0000167c:    f8d10218    ....    LDR      r0,[r1,#0x218]
        0x00001680:    f3c00040    ..@.    UBFX     r0,r0,#1,#1
        0x00001684:    e7f5        ..      B        0x1672 ; CLK_GetModuleClockSource + 26
        0x00001686:    4a2e        .J      LDR      r2,[pc,#184] ; [0x1740] = 0xa2800012
        0x00001688:    4290        .B      CMP      r0,r2
        0x0000168a:    d104        ..      BNE      0x1696 ; CLK_GetModuleClockSource + 62
        0x0000168c:    f8d10218    ....    LDR      r0,[r1,#0x218]
        0x00001690:    f3c02000    ...     UBFX     r0,r0,#8,#1
        0x00001694:    e7ed        ..      B        0x1672 ; CLK_GetModuleClockSource + 26
        0x00001696:    4a2b        +J      LDR      r2,[pc,#172] ; [0x1744] = 0xa2900013
        0x00001698:    4290        .B      CMP      r0,r2
        0x0000169a:    d104        ..      BNE      0x16a6 ; CLK_GetModuleClockSource + 78
        0x0000169c:    f8d10218    ....    LDR      r0,[r1,#0x218]
        0x000016a0:    f3c02040    ..@     UBFX     r0,r0,#9,#1
        0x000016a4:    e7e5        ..      B        0x1672 ; CLK_GetModuleClockSource + 26
        0x000016a6:    0e41        A.      LSRS     r1,r0,#25
        0x000016a8:    0749        I.      LSLS     r1,r1,#29
        0x000016aa:    d00f        ..      BEQ      0x16cc ; CLK_GetModuleClockSource + 116
        0x000016ac:    f3c07201    ...r    UBFX     r2,r0,#28,#2
        0x000016b0:    f85d1022    ].".    LDR      r1,[sp,r2,LSL #2]
        0x000016b4:    4a1e        .J      LDR      r2,[pc,#120] ; [0x1730] = 0x400002a0
        0x000016b6:    3a90        .:      SUBS     r2,r2,#0x90
        0x000016b8:    5889        .X      LDR      r1,[r1,r2]
        0x000016ba:    f3c06242    ..Bb    UBFX     r2,r0,#25,#3
        0x000016be:    f3c05004    ...P    UBFX     r0,r0,#20,#5
        0x000016c2:    4082        .@      LSLS     r2,r2,r0
        0x000016c4:    4011        .@      ANDS     r1,r1,r2
        0x000016c6:    fa21f000    !...    LSR      r0,r1,r0
        0x000016ca:    e7d2        ..      B        0x1672 ; CLK_GetModuleClockSource + 26
        0x000016cc:    2000        .       MOVS     r0,#0
        0x000016ce:    e7d0        ..      B        0x1672 ; CLK_GetModuleClockSource + 26
    CLK_GetModuleClockDivider
        0x000016d0:    b51f        ..      PUSH     {r0-r4,lr}
        0x000016d2:    4918        .I      LDR      r1,[pc,#96] ; [0x1734] = 0x25dc
        0x000016d4:    3110        .1      ADDS     r1,r1,#0x10
        0x000016d6:    f4103f7f    ...?    TST      r0,#0x3fc00
        0x000016da:    c91e        ..      LDM      r1,{r1-r4}
        0x000016dc:    e88d001e    ....    STM      sp,{r1-r4}
        0x000016e0:    d01f        ..      BEQ      0x1722 ; CLK_GetModuleClockDivider + 82
        0x000016e2:    f3c04281    ...B    UBFX     r2,r0,#18,#2
        0x000016e6:    f85d1022    ].".    LDR      r1,[sp,r2,LSL #2]
        0x000016ea:    4a11        .J      LDR      r2,[pc,#68] ; [0x1730] = 0x400002a0
        0x000016ec:    3a80        .:      SUBS     r2,r2,#0x80
        0x000016ee:    4411        .D      ADD      r1,r1,r2
        0x000016f0:    0652        R.      LSLS     r2,r2,#25
        0x000016f2:    f8d221f4    ...!    LDR      r2,[r2,#0x1f4]
        0x000016f6:    b2d2        ..      UXTB     r2,r2
        0x000016f8:    2a01        .*      CMP      r2,#1
        0x000016fa:    d108        ..      BNE      0x170e ; CLK_GetModuleClockDivider + 62
        0x000016fc:    43c2        .C      MVNS     r2,r0
        0x000016fe:    4b12        .K      LDR      r3,[pc,#72] ; [0x1748] = 0x40000228
        0x00001700:    06d2        ..      LSLS     r2,r2,#27
        0x00001702:    d003        ..      BEQ      0x170c ; CLK_GetModuleClockDivider + 60
        0x00001704:    f000021f    ....    AND      r2,r0,#0x1f
        0x00001708:    2a1d        .*      CMP      r2,#0x1d
        0x0000170a:    d100        ..      BNE      0x170e ; CLK_GetModuleClockDivider + 62
        0x0000170c:    4619        .F      MOV      r1,r3
        0x0000170e:    6809        .h      LDR      r1,[r1,#0]
        0x00001710:    f3c02287    ..."    UBFX     r2,r0,#10,#8
        0x00001714:    f3c01044    ..D.    UBFX     r0,r0,#5,#5
        0x00001718:    4082        .@      LSLS     r2,r2,r0
        0x0000171a:    4011        .@      ANDS     r1,r1,r2
        0x0000171c:    fa21f000    !...    LSR      r0,r1,r0
        0x00001720:    e7a7        ..      B        0x1672 ; CLK_GetModuleClockSource + 26
        0x00001722:    2000        .       MOVS     r0,#0
        0x00001724:    e7a5        ..      B        0x1672 ; CLK_GetModuleClockSource + 26
    $d
        0x00001726:    0000        ..      DCW    0
        0x00001728:    0008421e    .B..    DCD    541214
        0x0000172c:    0b71b000    ..q.    DCD    192000000
        0x00001730:    400002a0    ...@    DCD    1073742496
        0x00001734:    000025dc    .%..    DCD    9692
        0x00001738:    a2000010    ....    DCD    2717909008
        0x0000173c:    a2100011    ....    DCD    2718957585
        0x00001740:    a2800012    ....    DCD    2726297618
        0x00001744:    a2900013    ....    DCD    2727346195
        0x00001748:    40000228    (..@    DCD    1073742376
    $t
    .text
    I2C_Open
        0x0000174c:    b570        p.      PUSH     {r4-r6,lr}
        0x0000174e:    4604        .F      MOV      r4,r0
        0x00001750:    48f7        .H      LDR      r0,[pc,#988] ; [0x1b30] = 0x40081000
        0x00001752:    460d        .F      MOV      r5,r1
        0x00001754:    4284        .B      CMP      r4,r0
        0x00001756:    d102        ..      BNE      0x175e ; I2C_Open + 18
        0x00001758:    f7fffd4e    ..N.    BL       CLK_GetPCLK1Freq ; 0x11f8
        0x0000175c:    e001        ..      B        0x1762 ; I2C_Open + 22
        0x0000175e:    f7fffd1b    ....    BL       CLK_GetPCLK0Freq ; 0x1198
        0x00001762:    eb000180    ....    ADD      r1,r0,r0,LSL #2
        0x00001766:    0049        I.      LSLS     r1,r1,#1
        0x00001768:    00aa        ..      LSLS     r2,r5,#2
        0x0000176a:    fbb1f1f2    ....    UDIV     r1,r1,r2
        0x0000176e:    220a        ."      MOVS     r2,#0xa
        0x00001770:    1d49        I.      ADDS     r1,r1,#5
        0x00001772:    fbb1f1f2    ....    UDIV     r1,r1,r2
        0x00001776:    1e4a        J.      SUBS     r2,r1,#1
        0x00001778:    6122        "a      STR      r2,[r4,#0x10]
        0x0000177a:    6822        "h      LDR      r2,[r4,#0]
        0x0000177c:    f0420240    B.@.    ORR      r2,r2,#0x40
        0x00001780:    6022        "`      STR      r2,[r4,#0]
        0x00001782:    0089        ..      LSLS     r1,r1,#2
        0x00001784:    fbb0f0f1    ....    UDIV     r0,r0,r1
        0x00001788:    bd70        p.      POP      {r4-r6,pc}
    I2C_Close
        0x0000178a:    4aea        .J      LDR      r2,[pc,#936] ; [0x1b34] = 0x40080000
        0x0000178c:    02d1        ..      LSLS     r1,r2,#11
        0x0000178e:    4290        .B      CMP      r0,r2
        0x00001790:    d107        ..      BNE      0x17a2 ; I2C_Close + 24
        0x00001792:    68ca        .h      LDR      r2,[r1,#0xc]
        0x00001794:    f4427280    B..r    ORR      r2,r2,#0x100
        0x00001798:    60ca        .`      STR      r2,[r1,#0xc]
        0x0000179a:    68ca        .h      LDR      r2,[r1,#0xc]
        0x0000179c:    f4227280    "..r    BIC      r2,r2,#0x100
        0x000017a0:    e009        ..      B        0x17b6 ; I2C_Close + 44
        0x000017a2:    4ae3        .J      LDR      r2,[pc,#908] ; [0x1b30] = 0x40081000
        0x000017a4:    4290        .B      CMP      r0,r2
        0x000017a6:    d107        ..      BNE      0x17b8 ; I2C_Close + 46
        0x000017a8:    68ca        .h      LDR      r2,[r1,#0xc]
        0x000017aa:    f4427200    B..r    ORR      r2,r2,#0x200
        0x000017ae:    60ca        .`      STR      r2,[r1,#0xc]
        0x000017b0:    68ca        .h      LDR      r2,[r1,#0xc]
        0x000017b2:    f4227200    "..r    BIC      r2,r2,#0x200
        0x000017b6:    60ca        .`      STR      r2,[r1,#0xc]
        0x000017b8:    6801        .h      LDR      r1,[r0,#0]
        0x000017ba:    f0210140    !.@.    BIC      r1,r1,#0x40
        0x000017be:    6001        .`      STR      r1,[r0,#0]
        0x000017c0:    4770        pG      BX       lr
    I2C_ClearTimeoutFlag
        0x000017c2:    6941        Ai      LDR      r1,[r0,#0x14]
        0x000017c4:    f0410101    A...    ORR      r1,r1,#1
        0x000017c8:    6141        Aa      STR      r1,[r0,#0x14]
        0x000017ca:    4770        pG      BX       lr
    I2C_Trigger
        0x000017cc:    b530        0.      PUSH     {r4,r5,lr}
        0x000017ce:    2400        .$      MOVS     r4,#0
        0x000017d0:    9d03        ..      LDR      r5,[sp,#0xc]
        0x000017d2:    b101        ..      CBZ      r1,0x17d6 ; I2C_Trigger + 10
        0x000017d4:    2420         $      MOVS     r4,#0x20
        0x000017d6:    b10a        ..      CBZ      r2,0x17dc ; I2C_Trigger + 16
        0x000017d8:    f0440410    D...    ORR      r4,r4,#0x10
        0x000017dc:    b10b        ..      CBZ      r3,0x17e2 ; I2C_Trigger + 22
        0x000017de:    f0440408    D...    ORR      r4,r4,#8
        0x000017e2:    b10d        ..      CBZ      r5,0x17e8 ; I2C_Trigger + 28
        0x000017e4:    f0440404    D...    ORR      r4,r4,#4
        0x000017e8:    6801        .h      LDR      r1,[r0,#0]
        0x000017ea:    f021013c    !.<.    BIC      r1,r1,#0x3c
        0x000017ee:    4321        !C      ORRS     r1,r1,r4
        0x000017f0:    6001        .`      STR      r1,[r0,#0]
        0x000017f2:    bd30        0.      POP      {r4,r5,pc}
    I2C_DisableInt
        0x000017f4:    6801        .h      LDR      r1,[r0,#0]
        0x000017f6:    f0210180    !...    BIC      r1,r1,#0x80
        0x000017fa:    6001        .`      STR      r1,[r0,#0]
        0x000017fc:    4770        pG      BX       lr
    I2C_EnableInt
        0x000017fe:    6801        .h      LDR      r1,[r0,#0]
        0x00001800:    f0410180    A...    ORR      r1,r1,#0x80
        0x00001804:    6001        .`      STR      r1,[r0,#0]
        0x00001806:    4770        pG      BX       lr
    I2C_GetBusClockFreq
        0x00001808:    b510        ..      PUSH     {r4,lr}
        0x0000180a:    6904        .i      LDR      r4,[r0,#0x10]
        0x0000180c:    49c8        .I      LDR      r1,[pc,#800] ; [0x1b30] = 0x40081000
        0x0000180e:    4288        .B      CMP      r0,r1
        0x00001810:    d102        ..      BNE      0x1818 ; I2C_GetBusClockFreq + 16
        0x00001812:    f7fffcf1    ....    BL       CLK_GetPCLK1Freq ; 0x11f8
        0x00001816:    e001        ..      B        0x181c ; I2C_GetBusClockFreq + 20
        0x00001818:    f7fffcbe    ....    BL       CLK_GetPCLK0Freq ; 0x1198
        0x0000181c:    00a1        ..      LSLS     r1,r4,#2
        0x0000181e:    1d09        ..      ADDS     r1,r1,#4
        0x00001820:    fbb0f0f1    ....    UDIV     r0,r0,r1
        0x00001824:    bd10        ..      POP      {r4,pc}
    I2C_SetBusClockFreq
        0x00001826:    b570        p.      PUSH     {r4-r6,lr}
        0x00001828:    4604        .F      MOV      r4,r0
        0x0000182a:    48c1        .H      LDR      r0,[pc,#772] ; [0x1b30] = 0x40081000
        0x0000182c:    460d        .F      MOV      r5,r1
        0x0000182e:    4284        .B      CMP      r4,r0
        0x00001830:    d102        ..      BNE      0x1838 ; I2C_SetBusClockFreq + 18
        0x00001832:    f7fffce1    ....    BL       CLK_GetPCLK1Freq ; 0x11f8
        0x00001836:    e001        ..      B        0x183c ; I2C_SetBusClockFreq + 22
        0x00001838:    f7fffcae    ....    BL       CLK_GetPCLK0Freq ; 0x1198
        0x0000183c:    eb000180    ....    ADD      r1,r0,r0,LSL #2
        0x00001840:    0049        I.      LSLS     r1,r1,#1
        0x00001842:    00aa        ..      LSLS     r2,r5,#2
        0x00001844:    fbb1f1f2    ....    UDIV     r1,r1,r2
        0x00001848:    220a        ."      MOVS     r2,#0xa
        0x0000184a:    1d49        I.      ADDS     r1,r1,#5
        0x0000184c:    fbb1f1f2    ....    UDIV     r1,r1,r2
        0x00001850:    1e4a        J.      SUBS     r2,r1,#1
        0x00001852:    6122        "a      STR      r2,[r4,#0x10]
        0x00001854:    0089        ..      LSLS     r1,r1,#2
        0x00001856:    fbb0f0f1    ....    UDIV     r0,r0,r1
        0x0000185a:    bd70        p.      POP      {r4-r6,pc}
    I2C_GetIntFlag
        0x0000185c:    6800        .h      LDR      r0,[r0,#0]
        0x0000185e:    0700        ..      LSLS     r0,r0,#28
        0x00001860:    d501        ..      BPL      0x1866 ; I2C_GetIntFlag + 10
        0x00001862:    2001        .       MOVS     r0,#1
        0x00001864:    4770        pG      BX       lr
        0x00001866:    2000        .       MOVS     r0,#0
        0x00001868:    4770        pG      BX       lr
    I2C_GetStatus
        0x0000186a:    68c0        .h      LDR      r0,[r0,#0xc]
        0x0000186c:    4770        pG      BX       lr
    I2C_GetData
        0x0000186e:    6880        .h      LDR      r0,[r0,#8]
        0x00001870:    b2c0        ..      UXTB     r0,r0
        0x00001872:    4770        pG      BX       lr
    I2C_SetData
        0x00001874:    6081        .`      STR      r1,[r0,#8]
        0x00001876:    4770        pG      BX       lr
    I2C_SetSlaveAddr
        0x00001878:    ea430242    C.B.    ORR      r2,r3,r2,LSL #1
        0x0000187c:    2901        .)      CMP      r1,#1
        0x0000187e:    d005        ..      BEQ      0x188c ; I2C_SetSlaveAddr + 20
        0x00001880:    2902        .)      CMP      r1,#2
        0x00001882:    d005        ..      BEQ      0x1890 ; I2C_SetSlaveAddr + 24
        0x00001884:    2903        .)      CMP      r1,#3
        0x00001886:    d005        ..      BEQ      0x1894 ; I2C_SetSlaveAddr + 28
        0x00001888:    6042        B`      STR      r2,[r0,#4]
        0x0000188a:    4770        pG      BX       lr
        0x0000188c:    6182        .a      STR      r2,[r0,#0x18]
        0x0000188e:    4770        pG      BX       lr
        0x00001890:    61c2        .a      STR      r2,[r0,#0x1c]
        0x00001892:    4770        pG      BX       lr
        0x00001894:    6202        .b      STR      r2,[r0,#0x20]
        0x00001896:    4770        pG      BX       lr
    I2C_SetSlaveAddrMask
        0x00001898:    0052        R.      LSLS     r2,r2,#1
        0x0000189a:    2901        .)      CMP      r1,#1
        0x0000189c:    d005        ..      BEQ      0x18aa ; I2C_SetSlaveAddrMask + 18
        0x0000189e:    2902        .)      CMP      r1,#2
        0x000018a0:    d005        ..      BEQ      0x18ae ; I2C_SetSlaveAddrMask + 22
        0x000018a2:    2903        .)      CMP      r1,#3
        0x000018a4:    d005        ..      BEQ      0x18b2 ; I2C_SetSlaveAddrMask + 26
        0x000018a6:    6242        Bb      STR      r2,[r0,#0x24]
        0x000018a8:    4770        pG      BX       lr
        0x000018aa:    6282        .b      STR      r2,[r0,#0x28]
        0x000018ac:    4770        pG      BX       lr
        0x000018ae:    62c2        .b      STR      r2,[r0,#0x2c]
        0x000018b0:    4770        pG      BX       lr
        0x000018b2:    6302        .c      STR      r2,[r0,#0x30]
        0x000018b4:    4770        pG      BX       lr
    I2C_EnableTimeout
        0x000018b6:    2900        .)      CMP      r1,#0
        0x000018b8:    6941        Ai      LDR      r1,[r0,#0x14]
        0x000018ba:    d002        ..      BEQ      0x18c2 ; I2C_EnableTimeout + 12
        0x000018bc:    f0410102    A...    ORR      r1,r1,#2
        0x000018c0:    e001        ..      B        0x18c6 ; I2C_EnableTimeout + 16
        0x000018c2:    f0210102    !...    BIC      r1,r1,#2
        0x000018c6:    6141        Aa      STR      r1,[r0,#0x14]
        0x000018c8:    6941        Ai      LDR      r1,[r0,#0x14]
        0x000018ca:    f0410104    A...    ORR      r1,r1,#4
        0x000018ce:    6141        Aa      STR      r1,[r0,#0x14]
        0x000018d0:    4770        pG      BX       lr
    I2C_DisableTimeout
        0x000018d2:    6941        Ai      LDR      r1,[r0,#0x14]
        0x000018d4:    f0210104    !...    BIC      r1,r1,#4
        0x000018d8:    6141        Aa      STR      r1,[r0,#0x14]
        0x000018da:    4770        pG      BX       lr
    I2C_EnableWakeup
        0x000018dc:    6bc1        .k      LDR      r1,[r0,#0x3c]
        0x000018de:    f0410101    A...    ORR      r1,r1,#1
        0x000018e2:    63c1        .c      STR      r1,[r0,#0x3c]
        0x000018e4:    4770        pG      BX       lr
    I2C_DisableWakeup
        0x000018e6:    6bc1        .k      LDR      r1,[r0,#0x3c]
        0x000018e8:    f0210101    !...    BIC      r1,r1,#1
        0x000018ec:    63c1        .c      STR      r1,[r0,#0x3c]
        0x000018ee:    4770        pG      BX       lr
    I2C_SMBusGetStatus
        0x000018f0:    6d80        .m      LDR      r0,[r0,#0x58]
        0x000018f2:    4770        pG      BX       lr
    I2C_SMBusClearInterruptFlag
        0x000018f4:    6581        .e      STR      r1,[r0,#0x58]
        0x000018f6:    4770        pG      BX       lr
    I2C_SMBusSetPacketByteCount
        0x000018f8:    65c1        .e      STR      r1,[r0,#0x5c]
        0x000018fa:    4770        pG      BX       lr
    I2C_SMBusOpen
        0x000018fc:    6d02        .m      LDR      r2,[r0,#0x50]
        0x000018fe:    f022020c    "...    BIC      r2,r2,#0xc
        0x00001902:    6502        .e      STR      r2,[r0,#0x50]
        0x00001904:    2901        .)      CMP      r1,#1
        0x00001906:    6d01        .m      LDR      r1,[r0,#0x50]
        0x00001908:    d003        ..      BEQ      0x1912 ; I2C_SMBusOpen + 22
        0x0000190a:    f0410184    A...    ORR      r1,r1,#0x84
        0x0000190e:    6501        .e      STR      r1,[r0,#0x50]
        0x00001910:    4770        pG      BX       lr
        0x00001912:    f0410188    A...    ORR      r1,r1,#0x88
        0x00001916:    e7fa        ..      B        0x190e ; I2C_SMBusOpen + 18
    I2C_SMBusClose
        0x00001918:    2100        .!      MOVS     r1,#0
        0x0000191a:    6501        .e      STR      r1,[r0,#0x50]
        0x0000191c:    4770        pG      BX       lr
    I2C_SMBusPECTxEnable
        0x0000191e:    6d02        .m      LDR      r2,[r0,#0x50]
        0x00001920:    f4227280    "..r    BIC      r2,r2,#0x100
        0x00001924:    6502        .e      STR      r2,[r0,#0x50]
        0x00001926:    2900        .)      CMP      r1,#0
        0x00001928:    6d01        .m      LDR      r1,[r0,#0x50]
        0x0000192a:    d002        ..      BEQ      0x1932 ; I2C_SMBusPECTxEnable + 20
        0x0000192c:    f4417181    A..q    ORR      r1,r1,#0x102
        0x00001930:    e001        ..      B        0x1936 ; I2C_SMBusPECTxEnable + 24
        0x00001932:    f0410102    A...    ORR      r1,r1,#2
        0x00001936:    6501        .e      STR      r1,[r0,#0x50]
        0x00001938:    4770        pG      BX       lr
    I2C_SMBusGetPECValue
        0x0000193a:    6e00        .n      LDR      r0,[r0,#0x60]
        0x0000193c:    b2c0        ..      UXTB     r0,r0
        0x0000193e:    4770        pG      BX       lr
    I2C_SMBusIdleTimeout
        0x00001940:    6d03        .m      LDR      r3,[r0,#0x50]
        0x00001942:    f4437300    C..s    ORR      r3,r3,#0x200
        0x00001946:    6503        .e      STR      r3,[r0,#0x50]
        0x00001948:    f44f737a    O.zs    MOV      r3,#0x3e8
        0x0000194c:    fbb2f2f3    ....    UDIV     r2,r2,r3
        0x00001950:    4351        QC      MULS     r1,r2,r1
        0x00001952:    fbb1f1f3    ....    UDIV     r1,r1,r3
        0x00001956:    f04f32ff    O..2    MOV      r2,#0xffffffff
        0x0000195a:    eb020191    ....    ADD      r1,r2,r1,LSR #2
        0x0000195e:    29ff        .)      CMP      r1,#0xff
        0x00001960:    d900        ..      BLS      0x1964 ; I2C_SMBusIdleTimeout + 36
        0x00001962:    21ff        .!      MOVS     r1,#0xff
        0x00001964:    6641        Af      STR      r1,[r0,#0x64]
        0x00001966:    4770        pG      BX       lr
    I2C_SMBusTimeout
        0x00001968:    6d03        .m      LDR      r3,[r0,#0x50]
        0x0000196a:    f4237300    #..s    BIC      r3,r3,#0x200
        0x0000196e:    6503        .e      STR      r3,[r0,#0x50]
        0x00001970:    6943        Ci      LDR      r3,[r0,#0x14]
        0x00001972:    f0230304    #...    BIC      r3,r3,#4
        0x00001976:    6143        Ca      STR      r3,[r0,#0x14]
        0x00001978:    f44f737a    O.zs    MOV      r3,#0x3e8
        0x0000197c:    fbb2f2f3    ....    UDIV     r2,r2,r3
        0x00001980:    4351        QC      MULS     r1,r2,r1
        0x00001982:    f04f33ff    O..3    MOV      r3,#0xffffffff
        0x00001986:    eb033291    ...2    ADD      r2,r3,r1,LSR #14
        0x0000198a:    2aff        .*      CMP      r2,#0xff
        0x0000198c:    d801        ..      BHI      0x1992 ; I2C_SMBusTimeout + 42
        0x0000198e:    6642        Bf      STR      r2,[r0,#0x64]
        0x00001990:    4770        pG      BX       lr
        0x00001992:    6942        Bi      LDR      r2,[r0,#0x14]
        0x00001994:    f0420204    B...    ORR      r2,r2,#4
        0x00001998:    6142        Ba      STR      r2,[r0,#0x14]
        0x0000199a:    eb034111    ...A    ADD      r1,r3,r1,LSR #16
        0x0000199e:    b2c9        ..      UXTB     r1,r1
        0x000019a0:    6641        Af      STR      r1,[r0,#0x64]
        0x000019a2:    4770        pG      BX       lr
    I2C_SMBusClockLoTimeout
        0x000019a4:    6d03        .m      LDR      r3,[r0,#0x50]
        0x000019a6:    f4237300    #..s    BIC      r3,r3,#0x200
        0x000019aa:    6503        .e      STR      r3,[r0,#0x50]
        0x000019ac:    6943        Ci      LDR      r3,[r0,#0x14]
        0x000019ae:    f0230304    #...    BIC      r3,r3,#4
        0x000019b2:    6143        Ca      STR      r3,[r0,#0x14]
        0x000019b4:    f44f737a    O.zs    MOV      r3,#0x3e8
        0x000019b8:    fbb2f2f3    ....    UDIV     r2,r2,r3
        0x000019bc:    4351        QC      MULS     r1,r2,r1
        0x000019be:    f04f33ff    O..3    MOV      r3,#0xffffffff
        0x000019c2:    eb033291    ...2    ADD      r2,r3,r1,LSR #14
        0x000019c6:    2aff        .*      CMP      r2,#0xff
        0x000019c8:    d801        ..      BHI      0x19ce ; I2C_SMBusClockLoTimeout + 42
        0x000019ca:    6682        .f      STR      r2,[r0,#0x68]
        0x000019cc:    4770        pG      BX       lr
        0x000019ce:    6942        Bi      LDR      r2,[r0,#0x14]
        0x000019d0:    f0420204    B...    ORR      r2,r2,#4
        0x000019d4:    6142        Ba      STR      r2,[r0,#0x14]
        0x000019d6:    eb034111    ...A    ADD      r1,r3,r1,LSR #16
        0x000019da:    b2c9        ..      UXTB     r1,r1
        0x000019dc:    6681        .f      STR      r1,[r0,#0x68]
        0x000019de:    4770        pG      BX       lr
    I2C_WriteByte
        0x000019e0:    b570        p.      PUSH     {r4-r6,lr}
        0x000019e2:    2501        .%      MOVS     r5,#1
        0x000019e4:    2400        .$      MOVS     r4,#0
        0x000019e6:    6806        .h      LDR      r6,[r0,#0]
        0x000019e8:    4623        #F      MOV      r3,r4
        0x000019ea:    f0260608    &...    BIC      r6,r6,#8
        0x000019ee:    f0460620    F. .    ORR      r6,r6,#0x20
        0x000019f2:    6006        .`      STR      r6,[r0,#0]
        0x000019f4:    0649        I.      LSLS     r1,r1,#25
        0x000019f6:    0e0e        ..      LSRS     r6,r1,#24
        0x000019f8:    6801        .h      LDR      r1,[r0,#0]
        0x000019fa:    0709        ..      LSLS     r1,r1,#28
        0x000019fc:    d5fc        ..      BPL      0x19f8 ; I2C_WriteByte + 24
        0x000019fe:    68c1        .h      LDR      r1,[r0,#0xc]
        0x00001a00:    2920         )      CMP      r1,#0x20
        0x00001a02:    d016        ..      BEQ      0x1a32 ; I2C_WriteByte + 82
        0x00001a04:    dc04        ..      BGT      0x1a10 ; I2C_WriteByte + 48
        0x00001a06:    2908        .)      CMP      r1,#8
        0x00001a08:    d00e        ..      BEQ      0x1a28 ; I2C_WriteByte + 72
        0x00001a0a:    2918        .)      CMP      r1,#0x18
        0x00001a0c:    d104        ..      BNE      0x1a18 ; I2C_WriteByte + 56
        0x00001a0e:    e00e        ..      B        0x1a2e ; I2C_WriteByte + 78
        0x00001a10:    2928        ()      CMP      r1,#0x28
        0x00001a12:    d011        ..      BEQ      0x1a38 ; I2C_WriteByte + 88
        0x00001a14:    2930        0)      CMP      r1,#0x30
        0x00001a16:    d00c        ..      BEQ      0x1a32 ; I2C_WriteByte + 82
        0x00001a18:    6801        .h      LDR      r1,[r0,#0]
        0x00001a1a:    f021013c    !.<.    BIC      r1,r1,#0x3c
        0x00001a1e:    f0410118    A...    ORR      r1,r1,#0x18
        0x00001a22:    6001        .`      STR      r1,[r0,#0]
        0x00001a24:    2308        .#      MOVS     r3,#8
        0x00001a26:    e005        ..      B        0x1a34 ; I2C_WriteByte + 84
        0x00001a28:    6086        .`      STR      r6,[r0,#8]
        0x00001a2a:    2308        .#      MOVS     r3,#8
        0x00001a2c:    e006        ..      B        0x1a3c ; I2C_WriteByte + 92
        0x00001a2e:    6082        .`      STR      r2,[r0,#8]
        0x00001a30:    e004        ..      B        0x1a3c ; I2C_WriteByte + 92
        0x00001a32:    2318        .#      MOVS     r3,#0x18
        0x00001a34:    2401        .$      MOVS     r4,#1
        0x00001a36:    e001        ..      B        0x1a3c ; I2C_WriteByte + 92
        0x00001a38:    2318        .#      MOVS     r3,#0x18
        0x00001a3a:    2500        .%      MOVS     r5,#0
        0x00001a3c:    6801        .h      LDR      r1,[r0,#0]
        0x00001a3e:    f021013c    !.<.    BIC      r1,r1,#0x3c
        0x00001a42:    4319        .C      ORRS     r1,r1,r3
        0x00001a44:    6001        .`      STR      r1,[r0,#0]
        0x00001a46:    b10d        ..      CBZ      r5,0x1a4c ; I2C_WriteByte + 108
        0x00001a48:    2c00        .,      CMP      r4,#0
        0x00001a4a:    d0d5        ..      BEQ      0x19f8 ; I2C_WriteByte + 24
        0x00001a4c:    ea440005    D...    ORR      r0,r4,r5
        0x00001a50:    bd70        p.      POP      {r4-r6,pc}
    I2C_WriteMultiBytes
        0x00001a52:    b5f0        ..      PUSH     {r4-r7,lr}
        0x00001a54:    2700        .'      MOVS     r7,#0
        0x00001a56:    6804        .h      LDR      r4,[r0,#0]
        0x00001a58:    f04f0c01    O...    MOV      r12,#1
        0x00001a5c:    463d        =F      MOV      r5,r7
        0x00001a5e:    463e        >F      MOV      r6,r7
        0x00001a60:    f0240408    $...    BIC      r4,r4,#8
        0x00001a64:    f0440420    D. .    ORR      r4,r4,#0x20
        0x00001a68:    6004        .`      STR      r4,[r0,#0]
        0x00001a6a:    6804        .h      LDR      r4,[r0,#0]
        0x00001a6c:    0724        $.      LSLS     r4,r4,#28
        0x00001a6e:    d5fc        ..      BPL      0x1a6a ; I2C_WriteMultiBytes + 24
        0x00001a70:    68c4        .h      LDR      r4,[r0,#0xc]
        0x00001a72:    2c20         ,      CMP      r4,#0x20
        0x00001a74:    d020         .      BEQ      0x1ab8 ; I2C_WriteMultiBytes + 102
        0x00001a76:    dc04        ..      BGT      0x1a82 ; I2C_WriteMultiBytes + 48
        0x00001a78:    2c08        .,      CMP      r4,#8
        0x00001a7a:    d00e        ..      BEQ      0x1a9a ; I2C_WriteMultiBytes + 72
        0x00001a7c:    2c18        .,      CMP      r4,#0x18
        0x00001a7e:    d104        ..      BNE      0x1a8a ; I2C_WriteMultiBytes + 56
        0x00001a80:    e010        ..      B        0x1aa4 ; I2C_WriteMultiBytes + 82
        0x00001a82:    2c28        (,      CMP      r4,#0x28
        0x00001a84:    d00e        ..      BEQ      0x1aa4 ; I2C_WriteMultiBytes + 82
        0x00001a86:    2c30        0,      CMP      r4,#0x30
        0x00001a88:    d016        ..      BEQ      0x1ab8 ; I2C_WriteMultiBytes + 102
        0x00001a8a:    6804        .h      LDR      r4,[r0,#0]
        0x00001a8c:    f024043c    $.<.    BIC      r4,r4,#0x3c
        0x00001a90:    f0440418    D...    ORR      r4,r4,#0x18
        0x00001a94:    6004        .`      STR      r4,[r0,#0]
        0x00001a96:    2508        .%      MOVS     r5,#8
        0x00001a98:    e00f        ..      B        0x1aba ; I2C_WriteMultiBytes + 104
        0x00001a9a:    064c        L.      LSLS     r4,r1,#25
        0x00001a9c:    0e24        $.      LSRS     r4,r4,#24
        0x00001a9e:    6084        .`      STR      r4,[r0,#8]
        0x00001aa0:    2508        .%      MOVS     r5,#8
        0x00001aa2:    e00b        ..      B        0x1abc ; I2C_WriteMultiBytes + 106
        0x00001aa4:    429e        .B      CMP      r6,r3
        0x00001aa6:    d203        ..      BCS      0x1ab0 ; I2C_WriteMultiBytes + 94
        0x00001aa8:    5d94        .]      LDRB     r4,[r2,r6]
        0x00001aaa:    6084        .`      STR      r4,[r0,#8]
        0x00001aac:    1c76        v.      ADDS     r6,r6,#1
        0x00001aae:    e005        ..      B        0x1abc ; I2C_WriteMultiBytes + 106
        0x00001ab0:    2518        .%      MOVS     r5,#0x18
        0x00001ab2:    f04f0c00    O...    MOV      r12,#0
        0x00001ab6:    e001        ..      B        0x1abc ; I2C_WriteMultiBytes + 106
        0x00001ab8:    2518        .%      MOVS     r5,#0x18
        0x00001aba:    2701        .'      MOVS     r7,#1
        0x00001abc:    6804        .h      LDR      r4,[r0,#0]
        0x00001abe:    f024043c    $.<.    BIC      r4,r4,#0x3c
        0x00001ac2:    432c        ,C      ORRS     r4,r4,r5
        0x00001ac4:    6004        .`      STR      r4,[r0,#0]
        0x00001ac6:    f1bc0f00    ....    CMP      r12,#0
        0x00001aca:    d001        ..      BEQ      0x1ad0 ; I2C_WriteMultiBytes + 126
        0x00001acc:    2f00        ./      CMP      r7,#0
        0x00001ace:    d0cc        ..      BEQ      0x1a6a ; I2C_WriteMultiBytes + 24
        0x00001ad0:    4630        0F      MOV      r0,r6
        0x00001ad2:    bdf0        ..      POP      {r4-r7,pc}
    I2C_WriteByteOneReg
        0x00001ad4:    b5f0        ..      PUSH     {r4-r7,lr}
        0x00001ad6:    2701        .'      MOVS     r7,#1
        0x00001ad8:    2600        .&      MOVS     r6,#0
        0x00001ada:    6804        .h      LDR      r4,[r0,#0]
        0x00001adc:    4635        5F      MOV      r5,r6
        0x00001ade:    46b4        .F      MOV      r12,r6
        0x00001ae0:    f0240408    $...    BIC      r4,r4,#8
        0x00001ae4:    f0440420    D. .    ORR      r4,r4,#0x20
        0x00001ae8:    6004        .`      STR      r4,[r0,#0]
        0x00001aea:    6804        .h      LDR      r4,[r0,#0]
        0x00001aec:    0724        $.      LSLS     r4,r4,#28
        0x00001aee:    d5fc        ..      BPL      0x1aea ; I2C_WriteByteOneReg + 22
        0x00001af0:    68c4        .h      LDR      r4,[r0,#0xc]
        0x00001af2:    2c20         ,      CMP      r4,#0x20
        0x00001af4:    d018        ..      BEQ      0x1b28 ; I2C_WriteByteOneReg + 84
        0x00001af6:    dc04        ..      BGT      0x1b02 ; I2C_WriteByteOneReg + 46
        0x00001af8:    2c08        .,      CMP      r4,#8
        0x00001afa:    d00e        ..      BEQ      0x1b1a ; I2C_WriteByteOneReg + 70
        0x00001afc:    2c18        .,      CMP      r4,#0x18
        0x00001afe:    d104        ..      BNE      0x1b0a ; I2C_WriteByteOneReg + 54
        0x00001b00:    e010        ..      B        0x1b24 ; I2C_WriteByteOneReg + 80
        0x00001b02:    2c28        (,      CMP      r4,#0x28
        0x00001b04:    d018        ..      BEQ      0x1b38 ; I2C_WriteByteOneReg + 100
        0x00001b06:    2c30        0,      CMP      r4,#0x30
        0x00001b08:    d00e        ..      BEQ      0x1b28 ; I2C_WriteByteOneReg + 84
        0x00001b0a:    6804        .h      LDR      r4,[r0,#0]
        0x00001b0c:    f024043c    $.<.    BIC      r4,r4,#0x3c
        0x00001b10:    f0440418    D...    ORR      r4,r4,#0x18
        0x00001b14:    6004        .`      STR      r4,[r0,#0]
        0x00001b16:    2508        .%      MOVS     r5,#8
        0x00001b18:    e007        ..      B        0x1b2a ; I2C_WriteByteOneReg + 86
        0x00001b1a:    064c        L.      LSLS     r4,r1,#25
        0x00001b1c:    0e24        $.      LSRS     r4,r4,#24
        0x00001b1e:    6084        .`      STR      r4,[r0,#8]
        0x00001b20:    2508        .%      MOVS     r5,#8
        0x00001b22:    e012        ..      B        0x1b4a ; I2C_WriteByteOneReg + 118
        0x00001b24:    6082        .`      STR      r2,[r0,#8]
        0x00001b26:    e010        ..      B        0x1b4a ; I2C_WriteByteOneReg + 118
        0x00001b28:    2518        .%      MOVS     r5,#0x18
        0x00001b2a:    2601        .&      MOVS     r6,#1
        0x00001b2c:    e00d        ..      B        0x1b4a ; I2C_WriteByteOneReg + 118
    $d
        0x00001b2e:    0000        ..      DCW    0
        0x00001b30:    40081000    ...@    DCD    1074270208
        0x00001b34:    40080000    ...@    DCD    1074266112
    $t
        0x00001b38:    f1bc0f00    ....    CMP      r12,#0
        0x00001b3c:    d002        ..      BEQ      0x1b44 ; I2C_WriteByteOneReg + 112
        0x00001b3e:    2518        .%      MOVS     r5,#0x18
        0x00001b40:    2700        .'      MOVS     r7,#0
        0x00001b42:    e002        ..      B        0x1b4a ; I2C_WriteByteOneReg + 118
        0x00001b44:    6083        .`      STR      r3,[r0,#8]
        0x00001b46:    f04f0c01    O...    MOV      r12,#1
        0x00001b4a:    6804        .h      LDR      r4,[r0,#0]
        0x00001b4c:    f024043c    $.<.    BIC      r4,r4,#0x3c
        0x00001b50:    432c        ,C      ORRS     r4,r4,r5
        0x00001b52:    6004        .`      STR      r4,[r0,#0]
        0x00001b54:    b10f        ..      CBZ      r7,0x1b5a ; I2C_WriteByteOneReg + 134
        0x00001b56:    2e00        ..      CMP      r6,#0
        0x00001b58:    d0c7        ..      BEQ      0x1aea ; I2C_WriteByteOneReg + 22
        0x00001b5a:    ea460007    F...    ORR      r0,r6,r7
        0x00001b5e:    bdf0        ..      POP      {r4-r7,pc}
    I2C_WriteMultiBytesOneReg
        0x00001b60:    b5f0        ..      PUSH     {r4-r7,lr}
        0x00001b62:    2700        .'      MOVS     r7,#0
        0x00001b64:    f8dde014    ....    LDR      lr,[sp,#0x14]
        0x00001b68:    6804        .h      LDR      r4,[r0,#0]
        0x00001b6a:    f04f0c01    O...    MOV      r12,#1
        0x00001b6e:    463d        =F      MOV      r5,r7
        0x00001b70:    463e        >F      MOV      r6,r7
        0x00001b72:    f0240408    $...    BIC      r4,r4,#8
        0x00001b76:    f0440420    D. .    ORR      r4,r4,#0x20
        0x00001b7a:    6004        .`      STR      r4,[r0,#0]
        0x00001b7c:    6804        .h      LDR      r4,[r0,#0]
        0x00001b7e:    0724        $.      LSLS     r4,r4,#28
        0x00001b80:    d5fc        ..      BPL      0x1b7c ; I2C_WriteMultiBytesOneReg + 28
        0x00001b82:    68c4        .h      LDR      r4,[r0,#0xc]
        0x00001b84:    2c20         ,      CMP      r4,#0x20
        0x00001b86:    d018        ..      BEQ      0x1bba ; I2C_WriteMultiBytesOneReg + 90
        0x00001b88:    dc04        ..      BGT      0x1b94 ; I2C_WriteMultiBytesOneReg + 52
        0x00001b8a:    2c08        .,      CMP      r4,#8
        0x00001b8c:    d00e        ..      BEQ      0x1bac ; I2C_WriteMultiBytesOneReg + 76
        0x00001b8e:    2c18        .,      CMP      r4,#0x18
        0x00001b90:    d104        ..      BNE      0x1b9c ; I2C_WriteMultiBytesOneReg + 60
        0x00001b92:    e010        ..      B        0x1bb6 ; I2C_WriteMultiBytesOneReg + 86
        0x00001b94:    2c28        (,      CMP      r4,#0x28
        0x00001b96:    d013        ..      BEQ      0x1bc0 ; I2C_WriteMultiBytesOneReg + 96
        0x00001b98:    2c30        0,      CMP      r4,#0x30
        0x00001b9a:    d00e        ..      BEQ      0x1bba ; I2C_WriteMultiBytesOneReg + 90
        0x00001b9c:    6804        .h      LDR      r4,[r0,#0]
        0x00001b9e:    f024043c    $.<.    BIC      r4,r4,#0x3c
        0x00001ba2:    f0440418    D...    ORR      r4,r4,#0x18
        0x00001ba6:    6004        .`      STR      r4,[r0,#0]
        0x00001ba8:    2508        .%      MOVS     r5,#8
        0x00001baa:    e007        ..      B        0x1bbc ; I2C_WriteMultiBytesOneReg + 92
        0x00001bac:    064c        L.      LSLS     r4,r1,#25
        0x00001bae:    0e24        $.      LSRS     r4,r4,#24
        0x00001bb0:    6084        .`      STR      r4,[r0,#8]
        0x00001bb2:    2508        .%      MOVS     r5,#8
        0x00001bb4:    e00d        ..      B        0x1bd2 ; I2C_WriteMultiBytesOneReg + 114
        0x00001bb6:    6082        .`      STR      r2,[r0,#8]
        0x00001bb8:    e00b        ..      B        0x1bd2 ; I2C_WriteMultiBytesOneReg + 114
        0x00001bba:    2518        .%      MOVS     r5,#0x18
        0x00001bbc:    2701        .'      MOVS     r7,#1
        0x00001bbe:    e008        ..      B        0x1bd2 ; I2C_WriteMultiBytesOneReg + 114
        0x00001bc0:    4576        vE      CMP      r6,lr
        0x00001bc2:    d203        ..      BCS      0x1bcc ; I2C_WriteMultiBytesOneReg + 108
        0x00001bc4:    5d9c        .]      LDRB     r4,[r3,r6]
        0x00001bc6:    6084        .`      STR      r4,[r0,#8]
        0x00001bc8:    1c76        v.      ADDS     r6,r6,#1
        0x00001bca:    e002        ..      B        0x1bd2 ; I2C_WriteMultiBytesOneReg + 114
        0x00001bcc:    2518        .%      MOVS     r5,#0x18
        0x00001bce:    f04f0c00    O...    MOV      r12,#0
        0x00001bd2:    6804        .h      LDR      r4,[r0,#0]
        0x00001bd4:    f024043c    $.<.    BIC      r4,r4,#0x3c
        0x00001bd8:    432c        ,C      ORRS     r4,r4,r5
        0x00001bda:    6004        .`      STR      r4,[r0,#0]
        0x00001bdc:    f1bc0f00    ....    CMP      r12,#0
        0x00001be0:    d001        ..      BEQ      0x1be6 ; I2C_WriteMultiBytesOneReg + 134
        0x00001be2:    2f00        ./      CMP      r7,#0
        0x00001be4:    d0ca        ..      BEQ      0x1b7c ; I2C_WriteMultiBytesOneReg + 28
        0x00001be6:    4630        0F      MOV      r0,r6
        0x00001be8:    bdf0        ..      POP      {r4-r7,pc}
    I2C_WriteByteTwoRegs
        0x00001bea:    b5f0        ..      PUSH     {r4-r7,lr}
        0x00001bec:    2701        .'      MOVS     r7,#1
        0x00001bee:    2600        .&      MOVS     r6,#0
        0x00001bf0:    6804        .h      LDR      r4,[r0,#0]
        0x00001bf2:    46be        .F      MOV      lr,r7
        0x00001bf4:    4635        5F      MOV      r5,r6
        0x00001bf6:    46b4        .F      MOV      r12,r6
        0x00001bf8:    f0240408    $...    BIC      r4,r4,#8
        0x00001bfc:    f0440420    D. .    ORR      r4,r4,#0x20
        0x00001c00:    6004        .`      STR      r4,[r0,#0]
        0x00001c02:    6804        .h      LDR      r4,[r0,#0]
        0x00001c04:    0724        $.      LSLS     r4,r4,#28
        0x00001c06:    d5fc        ..      BPL      0x1c02 ; I2C_WriteByteTwoRegs + 24
        0x00001c08:    68c4        .h      LDR      r4,[r0,#0xc]
        0x00001c0a:    2c20         ,      CMP      r4,#0x20
        0x00001c0c:    d019        ..      BEQ      0x1c42 ; I2C_WriteByteTwoRegs + 88
        0x00001c0e:    dc04        ..      BGT      0x1c1a ; I2C_WriteByteTwoRegs + 48
        0x00001c10:    2c08        .,      CMP      r4,#8
        0x00001c12:    d00e        ..      BEQ      0x1c32 ; I2C_WriteByteTwoRegs + 72
        0x00001c14:    2c18        .,      CMP      r4,#0x18
        0x00001c16:    d104        ..      BNE      0x1c22 ; I2C_WriteByteTwoRegs + 56
        0x00001c18:    e010        ..      B        0x1c3c ; I2C_WriteByteTwoRegs + 82
        0x00001c1a:    2c28        (,      CMP      r4,#0x28
        0x00001c1c:    d014        ..      BEQ      0x1c48 ; I2C_WriteByteTwoRegs + 94
        0x00001c1e:    2c30        0,      CMP      r4,#0x30
        0x00001c20:    d00f        ..      BEQ      0x1c42 ; I2C_WriteByteTwoRegs + 88
        0x00001c22:    6804        .h      LDR      r4,[r0,#0]
        0x00001c24:    f024043c    $.<.    BIC      r4,r4,#0x3c
        0x00001c28:    f0440418    D...    ORR      r4,r4,#0x18
        0x00001c2c:    6004        .`      STR      r4,[r0,#0]
        0x00001c2e:    2508        .%      MOVS     r5,#8
        0x00001c30:    e008        ..      B        0x1c44 ; I2C_WriteByteTwoRegs + 90
        0x00001c32:    064c        L.      LSLS     r4,r1,#25
        0x00001c34:    0e24        $.      LSRS     r4,r4,#24
        0x00001c36:    6084        .`      STR      r4,[r0,#8]
        0x00001c38:    2508        .%      MOVS     r5,#8
        0x00001c3a:    e016        ..      B        0x1c6a ; I2C_WriteByteTwoRegs + 128
        0x00001c3c:    0a14        ..      LSRS     r4,r2,#8
        0x00001c3e:    6084        .`      STR      r4,[r0,#8]
        0x00001c40:    e013        ..      B        0x1c6a ; I2C_WriteByteTwoRegs + 128
        0x00001c42:    2518        .%      MOVS     r5,#0x18
        0x00001c44:    2601        .&      MOVS     r6,#1
        0x00001c46:    e010        ..      B        0x1c6a ; I2C_WriteByteTwoRegs + 128
        0x00001c48:    f1be0f00    ....    CMP      lr,#0
        0x00001c4c:    d004        ..      BEQ      0x1c58 ; I2C_WriteByteTwoRegs + 110
        0x00001c4e:    b2d4        ..      UXTB     r4,r2
        0x00001c50:    6084        .`      STR      r4,[r0,#8]
        0x00001c52:    f04f0e00    O...    MOV      lr,#0
        0x00001c56:    e008        ..      B        0x1c6a ; I2C_WriteByteTwoRegs + 128
        0x00001c58:    f1bc0f00    ....    CMP      r12,#0
        0x00001c5c:    d002        ..      BEQ      0x1c64 ; I2C_WriteByteTwoRegs + 122
        0x00001c5e:    2518        .%      MOVS     r5,#0x18
        0x00001c60:    2700        .'      MOVS     r7,#0
        0x00001c62:    e002        ..      B        0x1c6a ; I2C_WriteByteTwoRegs + 128
        0x00001c64:    6083        .`      STR      r3,[r0,#8]
        0x00001c66:    f04f0c01    O...    MOV      r12,#1
        0x00001c6a:    6804        .h      LDR      r4,[r0,#0]
        0x00001c6c:    f024043c    $.<.    BIC      r4,r4,#0x3c
        0x00001c70:    432c        ,C      ORRS     r4,r4,r5
        0x00001c72:    6004        .`      STR      r4,[r0,#0]
        0x00001c74:    b10f        ..      CBZ      r7,0x1c7a ; I2C_WriteByteTwoRegs + 144
        0x00001c76:    2e00        ..      CMP      r6,#0
        0x00001c78:    d0c3        ..      BEQ      0x1c02 ; I2C_WriteByteTwoRegs + 24
        0x00001c7a:    ea460007    F...    ORR      r0,r6,r7
        0x00001c7e:    bdf0        ..      POP      {r4-r7,pc}
    I2C_WriteMultiBytesTwoRegs
        0x00001c80:    e92d43f0    -..C    PUSH     {r4-r9,lr}
        0x00001c84:    2700        .'      MOVS     r7,#0
        0x00001c86:    f04f0801    O...    MOV      r8,#1
        0x00001c8a:    f8dd901c    ....    LDR      r9,[sp,#0x1c]
        0x00001c8e:    6804        .h      LDR      r4,[r0,#0]
        0x00001c90:    46c4        .F      MOV      r12,r8
        0x00001c92:    463d        =F      MOV      r5,r7
        0x00001c94:    463e        >F      MOV      r6,r7
        0x00001c96:    f0240408    $...    BIC      r4,r4,#8
        0x00001c9a:    f0440420    D. .    ORR      r4,r4,#0x20
        0x00001c9e:    6004        .`      STR      r4,[r0,#0]
        0x00001ca0:    6804        .h      LDR      r4,[r0,#0]
        0x00001ca2:    0724        $.      LSLS     r4,r4,#28
        0x00001ca4:    d5fc        ..      BPL      0x1ca0 ; I2C_WriteMultiBytesTwoRegs + 32
        0x00001ca6:    68c4        .h      LDR      r4,[r0,#0xc]
        0x00001ca8:    2c20         ,      CMP      r4,#0x20
        0x00001caa:    d019        ..      BEQ      0x1ce0 ; I2C_WriteMultiBytesTwoRegs + 96
        0x00001cac:    dc04        ..      BGT      0x1cb8 ; I2C_WriteMultiBytesTwoRegs + 56
        0x00001cae:    2c08        .,      CMP      r4,#8
        0x00001cb0:    d00e        ..      BEQ      0x1cd0 ; I2C_WriteMultiBytesTwoRegs + 80
        0x00001cb2:    2c18        .,      CMP      r4,#0x18
        0x00001cb4:    d104        ..      BNE      0x1cc0 ; I2C_WriteMultiBytesTwoRegs + 64
        0x00001cb6:    e010        ..      B        0x1cda ; I2C_WriteMultiBytesTwoRegs + 90
        0x00001cb8:    2c28        (,      CMP      r4,#0x28
        0x00001cba:    d014        ..      BEQ      0x1ce6 ; I2C_WriteMultiBytesTwoRegs + 102
        0x00001cbc:    2c30        0,      CMP      r4,#0x30
        0x00001cbe:    d00f        ..      BEQ      0x1ce0 ; I2C_WriteMultiBytesTwoRegs + 96
        0x00001cc0:    6804        .h      LDR      r4,[r0,#0]
        0x00001cc2:    f024043c    $.<.    BIC      r4,r4,#0x3c
        0x00001cc6:    f0440418    D...    ORR      r4,r4,#0x18
        0x00001cca:    6004        .`      STR      r4,[r0,#0]
        0x00001ccc:    2508        .%      MOVS     r5,#8
        0x00001cce:    e008        ..      B        0x1ce2 ; I2C_WriteMultiBytesTwoRegs + 98
        0x00001cd0:    064c        L.      LSLS     r4,r1,#25
        0x00001cd2:    0e24        $.      LSRS     r4,r4,#24
        0x00001cd4:    6084        .`      STR      r4,[r0,#8]
        0x00001cd6:    2508        .%      MOVS     r5,#8
        0x00001cd8:    e016        ..      B        0x1d08 ; I2C_WriteMultiBytesTwoRegs + 136
        0x00001cda:    0a14        ..      LSRS     r4,r2,#8
        0x00001cdc:    6084        .`      STR      r4,[r0,#8]
        0x00001cde:    e013        ..      B        0x1d08 ; I2C_WriteMultiBytesTwoRegs + 136
        0x00001ce0:    2518        .%      MOVS     r5,#0x18
        0x00001ce2:    2701        .'      MOVS     r7,#1
        0x00001ce4:    e010        ..      B        0x1d08 ; I2C_WriteMultiBytesTwoRegs + 136
        0x00001ce6:    f1bc0f00    ....    CMP      r12,#0
        0x00001cea:    d004        ..      BEQ      0x1cf6 ; I2C_WriteMultiBytesTwoRegs + 118
        0x00001cec:    b2d4        ..      UXTB     r4,r2
        0x00001cee:    6084        .`      STR      r4,[r0,#8]
        0x00001cf0:    f04f0c00    O...    MOV      r12,#0
        0x00001cf4:    e008        ..      B        0x1d08 ; I2C_WriteMultiBytesTwoRegs + 136
        0x00001cf6:    454e        NE      CMP      r6,r9
        0x00001cf8:    d203        ..      BCS      0x1d02 ; I2C_WriteMultiBytesTwoRegs + 130
        0x00001cfa:    5d9c        .]      LDRB     r4,[r3,r6]
        0x00001cfc:    6084        .`      STR      r4,[r0,#8]
        0x00001cfe:    1c76        v.      ADDS     r6,r6,#1
        0x00001d00:    e002        ..      B        0x1d08 ; I2C_WriteMultiBytesTwoRegs + 136
        0x00001d02:    2518        .%      MOVS     r5,#0x18
        0x00001d04:    f04f0800    O...    MOV      r8,#0
        0x00001d08:    6804        .h      LDR      r4,[r0,#0]
        0x00001d0a:    f024043c    $.<.    BIC      r4,r4,#0x3c
        0x00001d0e:    432c        ,C      ORRS     r4,r4,r5
        0x00001d10:    6004        .`      STR      r4,[r0,#0]
        0x00001d12:    f1b80f00    ....    CMP      r8,#0
        0x00001d16:    d001        ..      BEQ      0x1d1c ; I2C_WriteMultiBytesTwoRegs + 156
        0x00001d18:    2f00        ./      CMP      r7,#0
        0x00001d1a:    d0c1        ..      BEQ      0x1ca0 ; I2C_WriteMultiBytesTwoRegs + 32
        0x00001d1c:    4630        0F      MOV      r0,r6
        0x00001d1e:    e8bd83f0    ....    POP      {r4-r9,pc}
    I2C_ReadByte
        0x00001d22:    b570        p.      PUSH     {r4-r6,lr}
        0x00001d24:    2501        .%      MOVS     r5,#1
        0x00001d26:    2300        .#      MOVS     r3,#0
        0x00001d28:    6802        .h      LDR      r2,[r0,#0]
        0x00001d2a:    461c        .F      MOV      r4,r3
        0x00001d2c:    f0220208    "...    BIC      r2,r2,#8
        0x00001d30:    f0420220    B. .    ORR      r2,r2,#0x20
        0x00001d34:    6002        .`      STR      r2,[r0,#0]
        0x00001d36:    6802        .h      LDR      r2,[r0,#0]
        0x00001d38:    0712        ..      LSLS     r2,r2,#28
        0x00001d3a:    d5fc        ..      BPL      0x1d36 ; I2C_ReadByte + 20
        0x00001d3c:    68c2        .h      LDR      r2,[r0,#0xc]
        0x00001d3e:    2a08        .*      CMP      r2,#8
        0x00001d40:    d00d        ..      BEQ      0x1d5e ; I2C_ReadByte + 60
        0x00001d42:    2a40        @*      CMP      r2,#0x40
        0x00001d44:    d010        ..      BEQ      0x1d68 ; I2C_ReadByte + 70
        0x00001d46:    2a48        H*      CMP      r2,#0x48
        0x00001d48:    d010        ..      BEQ      0x1d6c ; I2C_ReadByte + 74
        0x00001d4a:    2a58        X*      CMP      r2,#0x58
        0x00001d4c:    d011        ..      BEQ      0x1d72 ; I2C_ReadByte + 80
        0x00001d4e:    6802        .h      LDR      r2,[r0,#0]
        0x00001d50:    f022023c    ".<.    BIC      r2,r2,#0x3c
        0x00001d54:    f0420218    B...    ORR      r2,r2,#0x18
        0x00001d58:    6002        .`      STR      r2,[r0,#0]
        0x00001d5a:    2208        ."      MOVS     r2,#8
        0x00001d5c:    e007        ..      B        0x1d6e ; I2C_ReadByte + 76
        0x00001d5e:    2201        ."      MOVS     r2,#1
        0x00001d60:    eb020241    ..A.    ADD      r2,r2,r1,LSL #1
        0x00001d64:    b2d2        ..      UXTB     r2,r2
        0x00001d66:    6082        .`      STR      r2,[r0,#8]
        0x00001d68:    2208        ."      MOVS     r2,#8
        0x00001d6a:    e006        ..      B        0x1d7a ; I2C_ReadByte + 88
        0x00001d6c:    2218        ."      MOVS     r2,#0x18
        0x00001d6e:    2301        .#      MOVS     r3,#1
        0x00001d70:    e003        ..      B        0x1d7a ; I2C_ReadByte + 88
        0x00001d72:    6882        .h      LDR      r2,[r0,#8]
        0x00001d74:    b2d4        ..      UXTB     r4,r2
        0x00001d76:    2218        ."      MOVS     r2,#0x18
        0x00001d78:    2500        .%      MOVS     r5,#0
        0x00001d7a:    6806        .h      LDR      r6,[r0,#0]
        0x00001d7c:    f026063c    &.<.    BIC      r6,r6,#0x3c
        0x00001d80:    4316        .C      ORRS     r6,r6,r2
        0x00001d82:    6006        .`      STR      r6,[r0,#0]
        0x00001d84:    b115        ..      CBZ      r5,0x1d8c ; I2C_ReadByte + 106
        0x00001d86:    2b00        .+      CMP      r3,#0
        0x00001d88:    d0d5        ..      BEQ      0x1d36 ; I2C_ReadByte + 20
        0x00001d8a:    e000        ..      B        0x1d8e ; I2C_ReadByte + 108
        0x00001d8c:    b103        ..      CBZ      r3,0x1d90 ; I2C_ReadByte + 110
        0x00001d8e:    2400        .$      MOVS     r4,#0
        0x00001d90:    4620         F      MOV      r0,r4
        0x00001d92:    bd70        p.      POP      {r4-r6,pc}
    I2C_ReadMultiBytes
        0x00001d94:    b5f0        ..      PUSH     {r4-r7,lr}
        0x00001d96:    2701        .'      MOVS     r7,#1
        0x00001d98:    2600        .&      MOVS     r6,#0
        0x00001d9a:    6805        .h      LDR      r5,[r0,#0]
        0x00001d9c:    4634        4F      MOV      r4,r6
        0x00001d9e:    f0250508    %...    BIC      r5,r5,#8
        0x00001da2:    f0450520    E. .    ORR      r5,r5,#0x20
        0x00001da6:    6005        .`      STR      r5,[r0,#0]
        0x00001da8:    6805        .h      LDR      r5,[r0,#0]
        0x00001daa:    072d        -.      LSLS     r5,r5,#28
        0x00001dac:    d5fc        ..      BPL      0x1da8 ; I2C_ReadMultiBytes + 20
        0x00001dae:    68c5        .h      LDR      r5,[r0,#0xc]
        0x00001db0:    2d48        H-      CMP      r5,#0x48
        0x00001db2:    d017        ..      BEQ      0x1de4 ; I2C_ReadMultiBytes + 80
        0x00001db4:    dc04        ..      BGT      0x1dc0 ; I2C_ReadMultiBytes + 44
        0x00001db6:    2d08        .-      CMP      r5,#8
        0x00001db8:    d00e        ..      BEQ      0x1dd8 ; I2C_ReadMultiBytes + 68
        0x00001dba:    2d40        @-      CMP      r5,#0x40
        0x00001dbc:    d104        ..      BNE      0x1dc8 ; I2C_ReadMultiBytes + 52
        0x00001dbe:    e01a        ..      B        0x1df6 ; I2C_ReadMultiBytes + 98
        0x00001dc0:    2d50        P-      CMP      r5,#0x50
        0x00001dc2:    d012        ..      BEQ      0x1dea ; I2C_ReadMultiBytes + 86
        0x00001dc4:    2d58        X-      CMP      r5,#0x58
        0x00001dc6:    d01a        ..      BEQ      0x1dfe ; I2C_ReadMultiBytes + 106
        0x00001dc8:    6805        .h      LDR      r5,[r0,#0]
        0x00001dca:    f025053c    %.<.    BIC      r5,r5,#0x3c
        0x00001dce:    f0450518    E...    ORR      r5,r5,#0x18
        0x00001dd2:    6005        .`      STR      r5,[r0,#0]
        0x00001dd4:    2508        .%      MOVS     r5,#8
        0x00001dd6:    e006        ..      B        0x1de6 ; I2C_ReadMultiBytes + 82
        0x00001dd8:    2501        .%      MOVS     r5,#1
        0x00001dda:    eb050541    ..A.    ADD      r5,r5,r1,LSL #1
        0x00001dde:    b2ed        ..      UXTB     r5,r5
        0x00001de0:    6085        .`      STR      r5,[r0,#8]
        0x00001de2:    e00a        ..      B        0x1dfa ; I2C_ReadMultiBytes + 102
        0x00001de4:    2518        .%      MOVS     r5,#0x18
        0x00001de6:    2601        .&      MOVS     r6,#1
        0x00001de8:    e00e        ..      B        0x1e08 ; I2C_ReadMultiBytes + 116
        0x00001dea:    6885        .h      LDR      r5,[r0,#8]
        0x00001dec:    5515        .U      STRB     r5,[r2,r4]
        0x00001dee:    1e5d        ].      SUBS     r5,r3,#1
        0x00001df0:    1c64        d.      ADDS     r4,r4,#1
        0x00001df2:    42ac        .B      CMP      r4,r5
        0x00001df4:    d201        ..      BCS      0x1dfa ; I2C_ReadMultiBytes + 102
        0x00001df6:    250c        .%      MOVS     r5,#0xc
        0x00001df8:    e006        ..      B        0x1e08 ; I2C_ReadMultiBytes + 116
        0x00001dfa:    2508        .%      MOVS     r5,#8
        0x00001dfc:    e004        ..      B        0x1e08 ; I2C_ReadMultiBytes + 116
        0x00001dfe:    6885        .h      LDR      r5,[r0,#8]
        0x00001e00:    5515        .U      STRB     r5,[r2,r4]
        0x00001e02:    2518        .%      MOVS     r5,#0x18
        0x00001e04:    2700        .'      MOVS     r7,#0
        0x00001e06:    1c64        d.      ADDS     r4,r4,#1
        0x00001e08:    f8d0c000    ....    LDR      r12,[r0,#0]
        0x00001e0c:    f02c0c3c    ,.<.    BIC      r12,r12,#0x3c
        0x00001e10:    ea4c0c05    L...    ORR      r12,r12,r5
        0x00001e14:    f8c0c000    ....    STR      r12,[r0,#0]
        0x00001e18:    b10f        ..      CBZ      r7,0x1e1e ; I2C_ReadMultiBytes + 138
        0x00001e1a:    2e00        ..      CMP      r6,#0
        0x00001e1c:    d0c4        ..      BEQ      0x1da8 ; I2C_ReadMultiBytes + 20
        0x00001e1e:    4620         F      MOV      r0,r4
        0x00001e20:    bdf0        ..      POP      {r4-r7,pc}
    I2C_ReadByteOneReg
        0x00001e22:    b5f0        ..      PUSH     {r4-r7,lr}
        0x00001e24:    2701        .'      MOVS     r7,#1
        0x00001e26:    2400        .$      MOVS     r4,#0
        0x00001e28:    6805        .h      LDR      r5,[r0,#0]
        0x00001e2a:    4626        &F      MOV      r6,r4
        0x00001e2c:    4623        #F      MOV      r3,r4
        0x00001e2e:    f0250508    %...    BIC      r5,r5,#8
        0x00001e32:    f0450520    E. .    ORR      r5,r5,#0x20
        0x00001e36:    6005        .`      STR      r5,[r0,#0]
        0x00001e38:    6805        .h      LDR      r5,[r0,#0]
        0x00001e3a:    072d        -.      LSLS     r5,r5,#28
        0x00001e3c:    d5fc        ..      BPL      0x1e38 ; I2C_ReadByteOneReg + 22
        0x00001e3e:    68c5        .h      LDR      r5,[r0,#0xc]
        0x00001e40:    f0150f07    ....    TST      r5,#7
        0x00001e44:    d127        '.      BNE      0x1e96 ; I2C_ReadByteOneReg + 116
        0x00001e46:    10ed        ..      ASRS     r5,r5,#3
        0x00001e48:    2d0c        .-      CMP      r5,#0xc
        0x00001e4a:    d224        $.      BCS      0x1e96 ; I2C_ReadByteOneReg + 116
        0x00001e4c:    e8dff005    ....    TBB      [pc,r5]
    $d
        0x00001e50:    080f0623    #...    DCD    135202339
        0x00001e54:    230a0d0a    ...#    DCD    587861258
        0x00001e58:    16230a14    ..#.    DCD    371395092
    $t
        0x00001e5c:    004b        K.      LSLS     r3,r1,#1
        0x00001e5e:    e009        ..      B        0x1e74 ; I2C_ReadByteOneReg + 82
        0x00001e60:    6082        .`      STR      r2,[r0,#8]
        0x00001e62:    e00f        ..      B        0x1e84 ; I2C_ReadByteOneReg + 98
        0x00001e64:    2318        .#      MOVS     r3,#0x18
        0x00001e66:    2401        .$      MOVS     r4,#1
        0x00001e68:    e00c        ..      B        0x1e84 ; I2C_ReadByteOneReg + 98
        0x00001e6a:    2328        (#      MOVS     r3,#0x28
        0x00001e6c:    e00a        ..      B        0x1e84 ; I2C_ReadByteOneReg + 98
        0x00001e6e:    2301        .#      MOVS     r3,#1
        0x00001e70:    eb030341    ..A.    ADD      r3,r3,r1,LSL #1
        0x00001e74:    b2db        ..      UXTB     r3,r3
        0x00001e76:    6083        .`      STR      r3,[r0,#8]
        0x00001e78:    2308        .#      MOVS     r3,#8
        0x00001e7a:    e003        ..      B        0x1e84 ; I2C_ReadByteOneReg + 98
        0x00001e7c:    6883        .h      LDR      r3,[r0,#8]
        0x00001e7e:    b2de        ..      UXTB     r6,r3
        0x00001e80:    2318        .#      MOVS     r3,#0x18
        0x00001e82:    2700        .'      MOVS     r7,#0
        0x00001e84:    6805        .h      LDR      r5,[r0,#0]
        0x00001e86:    f025053c    %.<.    BIC      r5,r5,#0x3c
        0x00001e8a:    431d        .C      ORRS     r5,r5,r3
        0x00001e8c:    6005        .`      STR      r5,[r0,#0]
        0x00001e8e:    b157        W.      CBZ      r7,0x1ea6 ; I2C_ReadByteOneReg + 132
        0x00001e90:    2c00        .,      CMP      r4,#0
        0x00001e92:    d0d1        ..      BEQ      0x1e38 ; I2C_ReadByteOneReg + 22
        0x00001e94:    e008        ..      B        0x1ea8 ; I2C_ReadByteOneReg + 134
        0x00001e96:    6803        .h      LDR      r3,[r0,#0]
        0x00001e98:    f023033c    #.<.    BIC      r3,r3,#0x3c
        0x00001e9c:    f0430318    C...    ORR      r3,r3,#0x18
        0x00001ea0:    6003        .`      STR      r3,[r0,#0]
        0x00001ea2:    2308        .#      MOVS     r3,#8
        0x00001ea4:    e7df        ..      B        0x1e66 ; I2C_ReadByteOneReg + 68
        0x00001ea6:    b104        ..      CBZ      r4,0x1eaa ; I2C_ReadByteOneReg + 136
        0x00001ea8:    2600        .&      MOVS     r6,#0
        0x00001eaa:    4630        0F      MOV      r0,r6
        0x00001eac:    bdf0        ..      POP      {r4-r7,pc}
    I2C_ReadMultiBytesOneReg
        0x00001eae:    e92d43f0    -..C    PUSH     {r4-r9,lr}
        0x00001eb2:    2600        .&      MOVS     r6,#0
        0x00001eb4:    f8dd901c    ....    LDR      r9,[sp,#0x1c]
        0x00001eb8:    6807        .h      LDR      r7,[r0,#0]
        0x00001eba:    f04f0c01    O...    MOV      r12,#1
        0x00001ebe:    4634        4F      MOV      r4,r6
        0x00001ec0:    4635        5F      MOV      r5,r6
        0x00001ec2:    f0270708    '...    BIC      r7,r7,#8
        0x00001ec6:    f0470720    G. .    ORR      r7,r7,#0x20
        0x00001eca:    6007        .`      STR      r7,[r0,#0]
        0x00001ecc:    6807        .h      LDR      r7,[r0,#0]
        0x00001ece:    073f        ?.      LSLS     r7,r7,#28
        0x00001ed0:    d5fc        ..      BPL      0x1ecc ; I2C_ReadMultiBytesOneReg + 30
        0x00001ed2:    68c7        .h      LDR      r7,[r0,#0xc]
        0x00001ed4:    f0170f07    ....    TST      r7,#7
        0x00001ed8:    d136        6.      BNE      0x1f48 ; I2C_ReadMultiBytesOneReg + 154
        0x00001eda:    10ff        ..      ASRS     r7,r7,#3
        0x00001edc:    2f0c        ./      CMP      r7,#0xc
        0x00001ede:    d233        3.      BCS      0x1f48 ; I2C_ReadMultiBytesOneReg + 154
        0x00001ee0:    e8dff007    ....    TBB      [pc,r7]
    $d
        0x00001ee4:    080f0632    2...    DCD    135202354
        0x00001ee8:    320a0d0a    ...2    DCD    839519498
        0x00001eec:    20150a1c    ...     DCD    538249756
    $t
        0x00001ef0:    004c        L.      LSLS     r4,r1,#1
        0x00001ef2:    e009        ..      B        0x1f08 ; I2C_ReadMultiBytesOneReg + 90
        0x00001ef4:    6082        .`      STR      r2,[r0,#8]
        0x00001ef6:    e01b        ..      B        0x1f30 ; I2C_ReadMultiBytesOneReg + 130
        0x00001ef8:    2418        .$      MOVS     r4,#0x18
        0x00001efa:    2601        .&      MOVS     r6,#1
        0x00001efc:    e018        ..      B        0x1f30 ; I2C_ReadMultiBytesOneReg + 130
        0x00001efe:    2428        ($      MOVS     r4,#0x28
        0x00001f00:    e016        ..      B        0x1f30 ; I2C_ReadMultiBytesOneReg + 130
        0x00001f02:    2401        .$      MOVS     r4,#1
        0x00001f04:    eb040441    ..A.    ADD      r4,r4,r1,LSL #1
        0x00001f08:    b2e4        ..      UXTB     r4,r4
        0x00001f0a:    6084        .`      STR      r4,[r0,#8]
        0x00001f0c:    e008        ..      B        0x1f20 ; I2C_ReadMultiBytesOneReg + 114
        0x00001f0e:    6884        .h      LDR      r4,[r0,#8]
        0x00001f10:    555c        \U      STRB     r4,[r3,r5]
        0x00001f12:    f1a90401    ....    SUB      r4,r9,#1
        0x00001f16:    1c6d        m.      ADDS     r5,r5,#1
        0x00001f18:    42a5        .B      CMP      r5,r4
        0x00001f1a:    d201        ..      BCS      0x1f20 ; I2C_ReadMultiBytesOneReg + 114
        0x00001f1c:    240c        .$      MOVS     r4,#0xc
        0x00001f1e:    e007        ..      B        0x1f30 ; I2C_ReadMultiBytesOneReg + 130
        0x00001f20:    2408        .$      MOVS     r4,#8
        0x00001f22:    e005        ..      B        0x1f30 ; I2C_ReadMultiBytesOneReg + 130
        0x00001f24:    6884        .h      LDR      r4,[r0,#8]
        0x00001f26:    555c        \U      STRB     r4,[r3,r5]
        0x00001f28:    2418        .$      MOVS     r4,#0x18
        0x00001f2a:    f04f0c00    O...    MOV      r12,#0
        0x00001f2e:    1c6d        m.      ADDS     r5,r5,#1
        0x00001f30:    6807        .h      LDR      r7,[r0,#0]
        0x00001f32:    f027073c    '.<.    BIC      r7,r7,#0x3c
        0x00001f36:    4327        'C      ORRS     r7,r7,r4
        0x00001f38:    6007        .`      STR      r7,[r0,#0]
        0x00001f3a:    f1bc0f00    ....    CMP      r12,#0
        0x00001f3e:    d001        ..      BEQ      0x1f44 ; I2C_ReadMultiBytesOneReg + 150
        0x00001f40:    2e00        ..      CMP      r6,#0
        0x00001f42:    d0c3        ..      BEQ      0x1ecc ; I2C_ReadMultiBytesOneReg + 30
        0x00001f44:    4628        (F      MOV      r0,r5
        0x00001f46:    e6ea        ..      B        0x1d1e ; I2C_WriteMultiBytesTwoRegs + 158
        0x00001f48:    6804        .h      LDR      r4,[r0,#0]
        0x00001f4a:    f024043c    $.<.    BIC      r4,r4,#0x3c
        0x00001f4e:    f0440418    D...    ORR      r4,r4,#0x18
        0x00001f52:    6004        .`      STR      r4,[r0,#0]
        0x00001f54:    2408        .$      MOVS     r4,#8
        0x00001f56:    e7d0        ..      B        0x1efa ; I2C_ReadMultiBytesOneReg + 76
    I2C_ReadByteTwoRegs
        0x00001f58:    b5f0        ..      PUSH     {r4-r7,lr}
        0x00001f5a:    2400        .$      MOVS     r4,#0
        0x00001f5c:    f04f0c01    O...    MOV      r12,#1
        0x00001f60:    6805        .h      LDR      r5,[r0,#0]
        0x00001f62:    4626        &F      MOV      r6,r4
        0x00001f64:    4667        gF      MOV      r7,r12
        0x00001f66:    4623        #F      MOV      r3,r4
        0x00001f68:    f0250508    %...    BIC      r5,r5,#8
        0x00001f6c:    f0450520    E. .    ORR      r5,r5,#0x20
        0x00001f70:    6005        .`      STR      r5,[r0,#0]
        0x00001f72:    6805        .h      LDR      r5,[r0,#0]
        0x00001f74:    072d        -.      LSLS     r5,r5,#28
        0x00001f76:    d5fc        ..      BPL      0x1f72 ; I2C_ReadByteTwoRegs + 26
        0x00001f78:    68c5        .h      LDR      r5,[r0,#0xc]
        0x00001f7a:    f0150f07    ....    TST      r5,#7
        0x00001f7e:    d130        0.      BNE      0x1fe2 ; I2C_ReadByteTwoRegs + 138
        0x00001f80:    10ed        ..      ASRS     r5,r5,#3
        0x00001f82:    2d0c        .-      CMP      r5,#0xc
        0x00001f84:    d22d        -.      BCS      0x1fe2 ; I2C_ReadByteTwoRegs + 138
        0x00001f86:    e8dff005    ....    TBB      [pc,r5]
    $d
        0x00001f8a:    062c        ,.      DCW    1580
        0x00001f8c:    0e0b0815    ....    DCD    235603989
        0x00001f90:    0b1a2c0b    .,..    DCD    186264587
        0x00001f94:    1c2c        ,.      DCW    7212
    $t
        0x00001f96:    004b        K.      LSLS     r3,r1,#1
        0x00001f98:    e00f        ..      B        0x1fba ; I2C_ReadByteTwoRegs + 98
        0x00001f9a:    0a15        ..      LSRS     r5,r2,#8
        0x00001f9c:    6085        .`      STR      r5,[r0,#8]
        0x00001f9e:    e015        ..      B        0x1fcc ; I2C_ReadByteTwoRegs + 116
        0x00001fa0:    2318        .#      MOVS     r3,#0x18
        0x00001fa2:    2401        .$      MOVS     r4,#1
        0x00001fa4:    e012        ..      B        0x1fcc ; I2C_ReadByteTwoRegs + 116
        0x00001fa6:    b11f        ..      CBZ      r7,0x1fb0 ; I2C_ReadByteTwoRegs + 88
        0x00001fa8:    b2d5        ..      UXTB     r5,r2
        0x00001faa:    6085        .`      STR      r5,[r0,#8]
        0x00001fac:    2700        .'      MOVS     r7,#0
        0x00001fae:    e00d        ..      B        0x1fcc ; I2C_ReadByteTwoRegs + 116
        0x00001fb0:    2328        (#      MOVS     r3,#0x28
        0x00001fb2:    e00b        ..      B        0x1fcc ; I2C_ReadByteTwoRegs + 116
        0x00001fb4:    2301        .#      MOVS     r3,#1
        0x00001fb6:    eb030341    ..A.    ADD      r3,r3,r1,LSL #1
        0x00001fba:    b2db        ..      UXTB     r3,r3
        0x00001fbc:    6083        .`      STR      r3,[r0,#8]
        0x00001fbe:    2308        .#      MOVS     r3,#8
        0x00001fc0:    e004        ..      B        0x1fcc ; I2C_ReadByteTwoRegs + 116
        0x00001fc2:    6883        .h      LDR      r3,[r0,#8]
        0x00001fc4:    f04f0c00    O...    MOV      r12,#0
        0x00001fc8:    b2de        ..      UXTB     r6,r3
        0x00001fca:    2318        .#      MOVS     r3,#0x18
        0x00001fcc:    6805        .h      LDR      r5,[r0,#0]
        0x00001fce:    f025053c    %.<.    BIC      r5,r5,#0x3c
        0x00001fd2:    431d        .C      ORRS     r5,r5,r3
        0x00001fd4:    6005        .`      STR      r5,[r0,#0]
        0x00001fd6:    f1bc0f00    ....    CMP      r12,#0
        0x00001fda:    d00a        ..      BEQ      0x1ff2 ; I2C_ReadByteTwoRegs + 154
        0x00001fdc:    2c00        .,      CMP      r4,#0
        0x00001fde:    d0c8        ..      BEQ      0x1f72 ; I2C_ReadByteTwoRegs + 26
        0x00001fe0:    e008        ..      B        0x1ff4 ; I2C_ReadByteTwoRegs + 156
        0x00001fe2:    6803        .h      LDR      r3,[r0,#0]
        0x00001fe4:    f023033c    #.<.    BIC      r3,r3,#0x3c
        0x00001fe8:    f0430318    C...    ORR      r3,r3,#0x18
        0x00001fec:    6003        .`      STR      r3,[r0,#0]
        0x00001fee:    2308        .#      MOVS     r3,#8
        0x00001ff0:    e7d7        ..      B        0x1fa2 ; I2C_ReadByteTwoRegs + 74
        0x00001ff2:    b104        ..      CBZ      r4,0x1ff6 ; I2C_ReadByteTwoRegs + 158
        0x00001ff4:    2600        .&      MOVS     r6,#0
        0x00001ff6:    4630        0F      MOV      r0,r6
        0x00001ff8:    bdf0        ..      POP      {r4-r7,pc}
    I2C_ReadMultiBytesTwoRegs
        0x00001ffa:    e92d47f0    -..G    PUSH     {r4-r10,lr}
        0x00001ffe:    2500        .%      MOVS     r5,#0
        0x00002000:    4691        .F      MOV      r9,r2
        0x00002002:    f04f0c01    O...    MOV      r12,#1
        0x00002006:    f8dda020    .. .    LDR      r10,[sp,#0x20]
        0x0000200a:    6806        .h      LDR      r6,[r0,#0]
        0x0000200c:    4667        gF      MOV      r7,r12
        0x0000200e:    462a        *F      MOV      r2,r5
        0x00002010:    462c        ,F      MOV      r4,r5
        0x00002012:    f0260608    &...    BIC      r6,r6,#8
        0x00002016:    f0460620    F. .    ORR      r6,r6,#0x20
        0x0000201a:    6006        .`      STR      r6,[r0,#0]
        0x0000201c:    6806        .h      LDR      r6,[r0,#0]
        0x0000201e:    0736        6.      LSLS     r6,r6,#28
        0x00002020:    d5fc        ..      BPL      0x201c ; I2C_ReadMultiBytesTwoRegs + 34
        0x00002022:    68c6        .h      LDR      r6,[r0,#0xc]
        0x00002024:    f0160f07    ....    TST      r6,#7
        0x00002028:    d13f        ?.      BNE      0x20aa ; I2C_ReadMultiBytesTwoRegs + 176
        0x0000202a:    10f6        ..      ASRS     r6,r6,#3
        0x0000202c:    2e0c        ..      CMP      r6,#0xc
        0x0000202e:    d23c        <.      BCS      0x20aa ; I2C_ReadMultiBytesTwoRegs + 176
        0x00002030:    e8dff006    ....    TBB      [pc,r6]
    $d
        0x00002034:    0817063b    ;...    DCD    135726651
        0x00002038:    3b0c0f0c    ...;    DCD    990646028
        0x0000203c:    281d0c24    $..(    DCD    672992292
    $t
        0x00002040:    004a        J.      LSLS     r2,r1,#1
        0x00002042:    e011        ..      B        0x2068 ; I2C_ReadMultiBytesTwoRegs + 110
        0x00002044:    ea4f2619    O..&    LSR      r6,r9,#8
        0x00002048:    6086        .`      STR      r6,[r0,#8]
        0x0000204a:    e021        !.      B        0x2090 ; I2C_ReadMultiBytesTwoRegs + 150
        0x0000204c:    2218        ."      MOVS     r2,#0x18
        0x0000204e:    2501        .%      MOVS     r5,#1
        0x00002050:    e01e        ..      B        0x2090 ; I2C_ReadMultiBytesTwoRegs + 150
        0x00002052:    b127        '.      CBZ      r7,0x205e ; I2C_ReadMultiBytesTwoRegs + 100
        0x00002054:    f00906ff    ....    AND      r6,r9,#0xff
        0x00002058:    6086        .`      STR      r6,[r0,#8]
        0x0000205a:    2700        .'      MOVS     r7,#0
        0x0000205c:    e018        ..      B        0x2090 ; I2C_ReadMultiBytesTwoRegs + 150
        0x0000205e:    2228        ("      MOVS     r2,#0x28
        0x00002060:    e016        ..      B        0x2090 ; I2C_ReadMultiBytesTwoRegs + 150
        0x00002062:    2201        ."      MOVS     r2,#1
        0x00002064:    eb020241    ..A.    ADD      r2,r2,r1,LSL #1
        0x00002068:    b2d2        ..      UXTB     r2,r2
        0x0000206a:    6082        .`      STR      r2,[r0,#8]
        0x0000206c:    e008        ..      B        0x2080 ; I2C_ReadMultiBytesTwoRegs + 134
        0x0000206e:    6882        .h      LDR      r2,[r0,#8]
        0x00002070:    551a        .U      STRB     r2,[r3,r4]
        0x00002072:    f1aa0201    ....    SUB      r2,r10,#1
        0x00002076:    1c64        d.      ADDS     r4,r4,#1
        0x00002078:    4294        .B      CMP      r4,r2
        0x0000207a:    d201        ..      BCS      0x2080 ; I2C_ReadMultiBytesTwoRegs + 134
        0x0000207c:    220c        ."      MOVS     r2,#0xc
        0x0000207e:    e007        ..      B        0x2090 ; I2C_ReadMultiBytesTwoRegs + 150
        0x00002080:    2208        ."      MOVS     r2,#8
        0x00002082:    e005        ..      B        0x2090 ; I2C_ReadMultiBytesTwoRegs + 150
        0x00002084:    6882        .h      LDR      r2,[r0,#8]
        0x00002086:    551a        .U      STRB     r2,[r3,r4]
        0x00002088:    2218        ."      MOVS     r2,#0x18
        0x0000208a:    f04f0c00    O...    MOV      r12,#0
        0x0000208e:    1c64        d.      ADDS     r4,r4,#1
        0x00002090:    6806        .h      LDR      r6,[r0,#0]
        0x00002092:    f026063c    &.<.    BIC      r6,r6,#0x3c
        0x00002096:    4316        .C      ORRS     r6,r6,r2
        0x00002098:    6006        .`      STR      r6,[r0,#0]
        0x0000209a:    f1bc0f00    ....    CMP      r12,#0
        0x0000209e:    d001        ..      BEQ      0x20a4 ; I2C_ReadMultiBytesTwoRegs + 170
        0x000020a0:    2d00        .-      CMP      r5,#0
        0x000020a2:    d0bb        ..      BEQ      0x201c ; I2C_ReadMultiBytesTwoRegs + 34
        0x000020a4:    4620         F      MOV      r0,r4
        0x000020a6:    e8bd87f0    ....    POP      {r4-r10,pc}
        0x000020aa:    6802        .h      LDR      r2,[r0,#0]
        0x000020ac:    f022023c    ".<.    BIC      r2,r2,#0x3c
        0x000020b0:    f0420218    B...    ORR      r2,r2,#0x18
        0x000020b4:    6002        .`      STR      r2,[r0,#0]
        0x000020b6:    2208        ."      MOVS     r2,#8
        0x000020b8:    e7c9        ..      B        0x204e ; I2C_ReadMultiBytesTwoRegs + 84
        0x000020ba:    0000        ..      MOVS     r0,r0
    .text
    Hard_Fault_Handler
    __tagsym$$used
        0x000020bc:    4604        .F      MOV      r4,r0
        0x000020be:    a02a        *.      ADR      r0,{pc}+0xaa ; 0x2168
        0x000020c0:    f000f8f4    ....    BL       __0printf$5 ; 0x22ac
        0x000020c4:    4620         F      MOV      r0,r4
        0x000020c6:    f000f81d    ....    BL       stackDump ; 0x2104
        0x000020ca:    e7fe        ..      B        0x20ca ; Hard_Fault_Handler + 14
    kbhit
        0x000020cc:    482c        ,H      LDR      r0,[pc,#176] ; [0x2180] = 0x40070000
        0x000020ce:    6980        .i      LDR      r0,[r0,#0x18]
        0x000020d0:    f3c03080    ...0    UBFX     r0,r0,#14,#1
        0x000020d4:    4770        pG      BX       lr
    IsDebugFifoEmpty
        0x000020d6:    482a        *H      LDR      r0,[pc,#168] ; [0x2180] = 0x40070000
        0x000020d8:    6980        .i      LDR      r0,[r0,#0x18]
        0x000020da:    f3c07000    ...p    UBFX     r0,r0,#28,#1
        0x000020de:    4770        pG      BX       lr
    _ttywrch
        0x000020e0:    f000b834    ..4.    B.W      SendChar ; 0x214c
    fputc
        0x000020e4:    b510        ..      PUSH     {r4,lr}
        0x000020e6:    4604        .F      MOV      r4,r0
        0x000020e8:    f000f830    ..0.    BL       SendChar ; 0x214c
        0x000020ec:    4620         F      MOV      r0,r4
        0x000020ee:    bd10        ..      POP      {r4,pc}
    fgetc
        0x000020f0:    4823        #H      LDR      r0,[pc,#140] ; [0x2180] = 0x40070000
        0x000020f2:    6981        .i      LDR      r1,[r0,#0x18]
        0x000020f4:    0449        I.      LSLS     r1,r1,#17
        0x000020f6:    d4fc        ..      BMI      0x20f2 ; fgetc + 2
        0x000020f8:    6800        .h      LDR      r0,[r0,#0]
        0x000020fa:    b2c0        ..      UXTB     r0,r0
        0x000020fc:    4770        pG      BX       lr
    ferror
        0x000020fe:    f04f30ff    O..0    MOV      r0,#0xffffffff
        0x00002102:    4770        pG      BX       lr
    stackDump
        0x00002104:    b510        ..      PUSH     {r4,lr}
        0x00002106:    4604        .F      MOV      r4,r0
        0x00002108:    6801        .h      LDR      r1,[r0,#0]
        0x0000210a:    a01e        ..      ADR      r0,{pc}+0x7a ; 0x2184
        0x0000210c:    f000f8ce    ....    BL       __0printf$5 ; 0x22ac
        0x00002110:    a01f        ..      ADR      r0,{pc}+0x80 ; 0x2190
        0x00002112:    6861        ah      LDR      r1,[r4,#4]
        0x00002114:    f000f8ca    ....    BL       __0printf$5 ; 0x22ac
        0x00002118:    a020         .      ADR      r0,{pc}+0x84 ; 0x219c
        0x0000211a:    68a1        .h      LDR      r1,[r4,#8]
        0x0000211c:    f000f8c6    ....    BL       __0printf$5 ; 0x22ac
        0x00002120:    a021        !.      ADR      r0,{pc}+0x88 ; 0x21a8
        0x00002122:    68e1        .h      LDR      r1,[r4,#0xc]
        0x00002124:    f000f8c2    ....    BL       __0printf$5 ; 0x22ac
        0x00002128:    a022        ".      ADR      r0,{pc}+0x8c ; 0x21b4
        0x0000212a:    6921        !i      LDR      r1,[r4,#0x10]
        0x0000212c:    f000f8be    ....    BL       __0printf$5 ; 0x22ac
        0x00002130:    a023        #.      ADR      r0,{pc}+0x90 ; 0x21c0
        0x00002132:    6961        ai      LDR      r1,[r4,#0x14]
        0x00002134:    f000f8ba    ....    BL       __0printf$5 ; 0x22ac
        0x00002138:    a024        $.      ADR      r0,{pc}+0x94 ; 0x21cc
        0x0000213a:    69a1        .i      LDR      r1,[r4,#0x18]
        0x0000213c:    f000f8b6    ....    BL       __0printf$5 ; 0x22ac
        0x00002140:    69e1        .i      LDR      r1,[r4,#0x1c]
        0x00002142:    e8bd4010    ...@    POP      {r4,lr}
        0x00002146:    a024        $.      ADR      r0,{pc}+0x92 ; 0x21d8
        0x00002148:    f000b8b0    ....    B.W      __0printf$5 ; 0x22ac
    SendChar
        0x0000214c:    490c        .I      LDR      r1,[pc,#48] ; [0x2180] = 0x40070000
        0x0000214e:    698a        .i      LDR      r2,[r1,#0x18]
        0x00002150:    0212        ..      LSLS     r2,r2,#8
        0x00002152:    d4fc        ..      BMI      0x214e ; SendChar + 2
        0x00002154:    280a        .(      CMP      r0,#0xa
        0x00002156:    d104        ..      BNE      0x2162 ; SendChar + 22
        0x00002158:    220d        ."      MOVS     r2,#0xd
        0x0000215a:    600a        .`      STR      r2,[r1,#0]
        0x0000215c:    698a        .i      LDR      r2,[r1,#0x18]
        0x0000215e:    0212        ..      LSLS     r2,r2,#8
        0x00002160:    d4fc        ..      BMI      0x215c ; SendChar + 16
        0x00002162:    6008        .`      STR      r0,[r1,#0]
        0x00002164:    4770        pG      BX       lr
    $d
        0x00002166:    0000        ..      DCW    0
        0x00002168:    48206e49    In H    DCD    1210084937
        0x0000216c:    20647261    ard     DCD    543453793
        0x00002170:    6c756146    Faul    DCD    1819631942
        0x00002174:    61482074    t Ha    DCD    1632116852
        0x00002178:    656c646e    ndle    DCD    1701602414
        0x0000217c:    00000a72    r...    DCD    2674
        0x00002180:    40070000    ...@    DCD    1074200576
        0x00002184:    20203072    r0      DCD    538980466
        0x00002188:    7830203d    = 0x    DCD    2016419901
        0x0000218c:    000a7825    %x..    DCD    686117
        0x00002190:    20203172    r1      DCD    538980722
        0x00002194:    7830203d    = 0x    DCD    2016419901
        0x00002198:    000a7825    %x..    DCD    686117
        0x0000219c:    20203272    r2      DCD    538980978
        0x000021a0:    7830203d    = 0x    DCD    2016419901
        0x000021a4:    000a7825    %x..    DCD    686117
        0x000021a8:    20203372    r3      DCD    538981234
        0x000021ac:    7830203d    = 0x    DCD    2016419901
        0x000021b0:    000a7825    %x..    DCD    686117
        0x000021b4:    20323172    r12     DCD    540160370
        0x000021b8:    7830203d    = 0x    DCD    2016419901
        0x000021bc:    000a7825    %x..    DCD    686117
        0x000021c0:    2020726c    lr      DCD    538997356
        0x000021c4:    7830203d    = 0x    DCD    2016419901
        0x000021c8:    000a7825    %x..    DCD    686117
        0x000021cc:    20206370    pc      DCD    538993520
        0x000021d0:    7830203d    = 0x    DCD    2016419901
        0x000021d4:    000a7825    %x..    DCD    686117
        0x000021d8:    20727370    psr     DCD    544371568
        0x000021dc:    7830203d    = 0x    DCD    2016419901
        0x000021e0:    000a7825    %x..    DCD    686117
    $t
    .text
    __aeabi_uldivmod
        0x000021e4:    e92d5ff0    -.._    PUSH     {r4-r12,lr}
        0x000021e8:    4605        .F      MOV      r5,r0
        0x000021ea:    2000        .       MOVS     r0,#0
        0x000021ec:    4692        .F      MOV      r10,r2
        0x000021ee:    469b        .F      MOV      r11,r3
        0x000021f0:    4688        .F      MOV      r8,r1
        0x000021f2:    4606        .F      MOV      r6,r0
        0x000021f4:    4681        .F      MOV      r9,r0
        0x000021f6:    2440        @$      MOVS     r4,#0x40
        0x000021f8:    e01b        ..      B        0x2232 ; __aeabi_uldivmod + 78
        0x000021fa:    4628        (F      MOV      r0,r5
        0x000021fc:    4641        AF      MOV      r1,r8
        0x000021fe:    4647        GF      MOV      r7,r8
        0x00002200:    4622        "F      MOV      r2,r4
        0x00002202:    f000f842    ..B.    BL       __aeabi_llsr ; 0x228a
        0x00002206:    4653        SF      MOV      r3,r10
        0x00002208:    465a        ZF      MOV      r2,r11
        0x0000220a:    1ac0        ..      SUBS     r0,r0,r3
        0x0000220c:    4191        .A      SBCS     r1,r1,r2
        0x0000220e:    d310        ..      BCC      0x2232 ; __aeabi_uldivmod + 78
        0x00002210:    4611        .F      MOV      r1,r2
        0x00002212:    4618        .F      MOV      r0,r3
        0x00002214:    4622        "F      MOV      r2,r4
        0x00002216:    f000f829    ..).    BL       __aeabi_llsl ; 0x226c
        0x0000221a:    1a2d        -.      SUBS     r5,r5,r0
        0x0000221c:    eb670801    g...    SBC      r8,r7,r1
        0x00002220:    464f        OF      MOV      r7,r9
        0x00002222:    4622        "F      MOV      r2,r4
        0x00002224:    2001        .       MOVS     r0,#1
        0x00002226:    2100        .!      MOVS     r1,#0
        0x00002228:    f000f820    .. .    BL       __aeabi_llsl ; 0x226c
        0x0000222c:    eb170900    ....    ADDS     r9,r7,r0
        0x00002230:    414e        NA      ADCS     r6,r6,r1
        0x00002232:    1e20         .      SUBS     r0,r4,#0
        0x00002234:    f1a40401    ....    SUB      r4,r4,#1
        0x00002238:    dcdf        ..      BGT      0x21fa ; __aeabi_uldivmod + 22
        0x0000223a:    4648        HF      MOV      r0,r9
        0x0000223c:    4631        1F      MOV      r1,r6
        0x0000223e:    462a        *F      MOV      r2,r5
        0x00002240:    4643        CF      MOV      r3,r8
        0x00002242:    e8bd9ff0    ....    POP      {r4-r12,pc}
        0x00002246:    0000        ..      MOVS     r0,r0
    .text
    __scatterload
    __scatterload_rt2
        0x00002248:    4c06        .L      LDR      r4,[pc,#24] ; [0x2264] = 0x25fc
        0x0000224a:    4d07        .M      LDR      r5,[pc,#28] ; [0x2268] = 0x261c
        0x0000224c:    e006        ..      B        0x225c ; __scatterload + 20
        0x0000224e:    68e0        .h      LDR      r0,[r4,#0xc]
        0x00002250:    f0400301    @...    ORR      r3,r0,#1
        0x00002254:    e8940007    ....    LDM      r4,{r0-r2}
        0x00002258:    4798        .G      BLX      r3
        0x0000225a:    3410        .4      ADDS     r4,r4,#0x10
        0x0000225c:    42ac        .B      CMP      r4,r5
        0x0000225e:    d3f6        ..      BCC      0x224e ; __scatterload + 6
        0x00002260:    f7fdffcc    ....    BL       __main_after_scatterload ; 0x1fc
    $d
        0x00002264:    000025fc    .%..    DCD    9724
        0x00002268:    0000261c    .&..    DCD    9756
    $t
    .text
    __aeabi_llsl
    _ll_shift_l
        0x0000226c:    2a20         *      CMP      r2,#0x20
        0x0000226e:    db04        ..      BLT      0x227a ; __aeabi_llsl + 14
        0x00002270:    3a20         :      SUBS     r2,r2,#0x20
        0x00002272:    fa00f102    ....    LSL      r1,r0,r2
        0x00002276:    2000        .       MOVS     r0,#0
        0x00002278:    4770        pG      BX       lr
        0x0000227a:    4091        .@      LSLS     r1,r1,r2
        0x0000227c:    f1c20320    .. .    RSB      r3,r2,#0x20
        0x00002280:    fa20f303     ...    LSR      r3,r0,r3
        0x00002284:    4319        .C      ORRS     r1,r1,r3
        0x00002286:    4090        .@      LSLS     r0,r0,r2
        0x00002288:    4770        pG      BX       lr
    .text
    __aeabi_llsr
    _ll_ushift_r
        0x0000228a:    2a20         *      CMP      r2,#0x20
        0x0000228c:    db04        ..      BLT      0x2298 ; __aeabi_llsr + 14
        0x0000228e:    3a20         :      SUBS     r2,r2,#0x20
        0x00002290:    fa21f002    !...    LSR      r0,r1,r2
        0x00002294:    2100        .!      MOVS     r1,#0
        0x00002296:    4770        pG      BX       lr
        0x00002298:    fa21f302    !...    LSR      r3,r1,r2
        0x0000229c:    40d0        .@      LSRS     r0,r0,r2
        0x0000229e:    f1c20220    .. .    RSB      r2,r2,#0x20
        0x000022a2:    4091        .@      LSLS     r1,r1,r2
        0x000022a4:    4308        .C      ORRS     r0,r0,r1
        0x000022a6:    4619        .F      MOV      r1,r3
        0x000022a8:    4770        pG      BX       lr
        0x000022aa:    0000        ..      MOVS     r0,r0
    i.__0printf$5
    __0printf$5
    __1printf$5
    __2printf
        0x000022ac:    b40f        ..      PUSH     {r0-r3}
        0x000022ae:    4b05        .K      LDR      r3,[pc,#20] ; [0x22c4] = 0x20e5
        0x000022b0:    b510        ..      PUSH     {r4,lr}
        0x000022b2:    a903        ..      ADD      r1,sp,#0xc
        0x000022b4:    4a04        .J      LDR      r2,[pc,#16] ; [0x22c8] = 0x20000044
        0x000022b6:    9802        ..      LDR      r0,[sp,#8]
        0x000022b8:    f000f818    ....    BL       _printf_core ; 0x22ec
        0x000022bc:    bc10        ..      POP      {r4}
        0x000022be:    f85dfb14    ]...    LDR      pc,[sp],#0x14
    $d
        0x000022c2:    0000        ..      DCW    0
        0x000022c4:    000020e5    . ..    DCD    8421
        0x000022c8:    20000044    D..     DCD    536870980
    $t
    i.__scatterload_copy
    __scatterload_copy
        0x000022cc:    e002        ..      B        0x22d4 ; __scatterload_copy + 8
        0x000022ce:    c808        ..      LDM      r0!,{r3}
        0x000022d0:    1f12        ..      SUBS     r2,r2,#4
        0x000022d2:    c108        ..      STM      r1!,{r3}
        0x000022d4:    2a00        .*      CMP      r2,#0
        0x000022d6:    d1fa        ..      BNE      0x22ce ; __scatterload_copy + 2
        0x000022d8:    4770        pG      BX       lr
    i.__scatterload_null
    __scatterload_null
        0x000022da:    4770        pG      BX       lr
    i.__scatterload_zeroinit
    __scatterload_zeroinit
        0x000022dc:    2000        .       MOVS     r0,#0
        0x000022de:    e001        ..      B        0x22e4 ; __scatterload_zeroinit + 8
        0x000022e0:    c101        ..      STM      r1!,{r0}
        0x000022e2:    1f12        ..      SUBS     r2,r2,#4
        0x000022e4:    2a00        .*      CMP      r2,#0
        0x000022e6:    d1fb        ..      BNE      0x22e0 ; __scatterload_zeroinit + 4
        0x000022e8:    4770        pG      BX       lr
        0x000022ea:    0000        ..      MOVS     r0,r0
    i._printf_core
    _printf_core
        0x000022ec:    e92d4fff    -..O    PUSH     {r0-r11,lr}
        0x000022f0:    b08d        ..      SUB      sp,sp,#0x34
        0x000022f2:    469b        .F      MOV      r11,r3
        0x000022f4:    460f        .F      MOV      r7,r1
        0x000022f6:    4604        .F      MOV      r4,r0
        0x000022f8:    2600        .&      MOVS     r6,#0
        0x000022fa:    e006        ..      B        0x230a ; _printf_core + 30
        0x000022fc:    2825        %(      CMP      r0,#0x25
        0x000022fe:    d00b        ..      BEQ      0x2318 ; _printf_core + 44
        0x00002300:    465a        ZF      MOV      r2,r11
        0x00002302:    990f        ..      LDR      r1,[sp,#0x3c]
        0x00002304:    4790        .G      BLX      r2
        0x00002306:    1c64        d.      ADDS     r4,r4,#1
        0x00002308:    1c76        v.      ADDS     r6,r6,#1
        0x0000230a:    7820         x      LDRB     r0,[r4,#0]
        0x0000230c:    2800        .(      CMP      r0,#0
        0x0000230e:    d1f5        ..      BNE      0x22fc ; _printf_core + 16
        0x00002310:    b011        ..      ADD      sp,sp,#0x44
        0x00002312:    4630        0F      MOV      r0,r6
        0x00002314:    e8bd8ff0    ....    POP      {r4-r11,pc}
        0x00002318:    2500        .%      MOVS     r5,#0
        0x0000231a:    46a8        .F      MOV      r8,r5
        0x0000231c:    2201        ."      MOVS     r2,#1
        0x0000231e:    4998        .I      LDR      r1,[pc,#608] ; [0x2580] = 0x12809
        0x00002320:    e000        ..      B        0x2324 ; _printf_core + 56
        0x00002322:    4305        .C      ORRS     r5,r5,r0
        0x00002324:    f8143f01    ...?    LDRB     r3,[r4,#1]!
        0x00002328:    3b20         ;      SUBS     r3,r3,#0x20
        0x0000232a:    fa02f003    ....    LSL      r0,r2,r3
        0x0000232e:    4208        .B      TST      r0,r1
        0x00002330:    d1f7        ..      BNE      0x2322 ; _printf_core + 54
        0x00002332:    7820         x      LDRB     r0,[r4,#0]
        0x00002334:    282e        .(      CMP      r0,#0x2e
        0x00002336:    d117        ..      BNE      0x2368 ; _printf_core + 124
        0x00002338:    f8140f01    ....    LDRB     r0,[r4,#1]!
        0x0000233c:    f0450504    E...    ORR      r5,r5,#4
        0x00002340:    282a        *(      CMP      r0,#0x2a
        0x00002342:    d00e        ..      BEQ      0x2362 ; _printf_core + 118
        0x00002344:    f06f022f    o./.    MVN      r2,#0x2f
        0x00002348:    7820         x      LDRB     r0,[r4,#0]
        0x0000234a:    f1a00130    ..0.    SUB      r1,r0,#0x30
        0x0000234e:    2909        .)      CMP      r1,#9
        0x00002350:    d80a        ..      BHI      0x2368 ; _printf_core + 124
        0x00002352:    eb080188    ....    ADD      r1,r8,r8,LSL #2
        0x00002356:    eb020141    ..A.    ADD      r1,r2,r1,LSL #1
        0x0000235a:    eb000801    ....    ADD      r8,r0,r1
        0x0000235e:    1c64        d.      ADDS     r4,r4,#1
        0x00002360:    e7f2        ..      B        0x2348 ; _printf_core + 92
        0x00002362:    f8578b04    W...    LDR      r8,[r7],#4
        0x00002366:    1c64        d.      ADDS     r4,r4,#1
        0x00002368:    7820         x      LDRB     r0,[r4,#0]
        0x0000236a:    286c        l(      CMP      r0,#0x6c
        0x0000236c:    d00d        ..      BEQ      0x238a ; _printf_core + 158
        0x0000236e:    dc04        ..      BGT      0x237a ; _printf_core + 142
        0x00002370:    284c        L(      CMP      r0,#0x4c
        0x00002372:    d012        ..      BEQ      0x239a ; _printf_core + 174
        0x00002374:    286a        j(      CMP      r0,#0x6a
        0x00002376:    d111        ..      BNE      0x239c ; _printf_core + 176
        0x00002378:    e004        ..      B        0x2384 ; _printf_core + 152
        0x0000237a:    2874        t(      CMP      r0,#0x74
        0x0000237c:    d00d        ..      BEQ      0x239a ; _printf_core + 174
        0x0000237e:    287a        z(      CMP      r0,#0x7a
        0x00002380:    d10c        ..      BNE      0x239c ; _printf_core + 176
        0x00002382:    e00a        ..      B        0x239a ; _printf_core + 174
        0x00002384:    f4451500    E...    ORR      r5,r5,#0x200000
        0x00002388:    e007        ..      B        0x239a ; _printf_core + 174
        0x0000238a:    7861        ax      LDRB     r1,[r4,#1]
        0x0000238c:    f4451580    E...    ORR      r5,r5,#0x100000
        0x00002390:    4281        .B      CMP      r1,r0
        0x00002392:    d102        ..      BNE      0x239a ; _printf_core + 174
        0x00002394:    1c64        d.      ADDS     r4,r4,#1
        0x00002396:    f5051580    ....    ADD      r5,r5,#0x100000
        0x0000239a:    1c64        d.      ADDS     r4,r4,#1
        0x0000239c:    7822        "x      LDRB     r2,[r4,#0]
        0x0000239e:    2a69        i*      CMP      r2,#0x69
        0x000023a0:    d045        E.      BEQ      0x242e ; _printf_core + 322
        0x000023a2:    dc08        ..      BGT      0x23b6 ; _printf_core + 202
        0x000023a4:    2a00        .*      CMP      r2,#0
        0x000023a6:    d0b3        ..      BEQ      0x2310 ; _printf_core + 36
        0x000023a8:    2a58        X*      CMP      r2,#0x58
        0x000023aa:    d069        i.      BEQ      0x2480 ; _printf_core + 404
        0x000023ac:    2a63        c*      CMP      r2,#0x63
        0x000023ae:    d010        ..      BEQ      0x23d2 ; _printf_core + 230
        0x000023b0:    2a64        d*      CMP      r2,#0x64
        0x000023b2:    d108        ..      BNE      0x23c6 ; _printf_core + 218
        0x000023b4:    e03b        ;.      B        0x242e ; _printf_core + 322
        0x000023b6:    2a70        p*      CMP      r2,#0x70
        0x000023b8:    d067        g.      BEQ      0x248a ; _printf_core + 414
        0x000023ba:    2a73        s*      CMP      r2,#0x73
        0x000023bc:    d013        ..      BEQ      0x23e6 ; _printf_core + 250
        0x000023be:    2a75        u*      CMP      r2,#0x75
        0x000023c0:    d05c        \.      BEQ      0x247c ; _printf_core + 400
        0x000023c2:    2a78        x*      CMP      r2,#0x78
        0x000023c4:    d05c        \.      BEQ      0x2480 ; _printf_core + 404
        0x000023c6:    4610        .F      MOV      r0,r2
        0x000023c8:    465a        ZF      MOV      r2,r11
        0x000023ca:    990f        ..      LDR      r1,[sp,#0x3c]
        0x000023cc:    4790        .G      BLX      r2
        0x000023ce:    1c76        v.      ADDS     r6,r6,#1
        0x000023d0:    e0d3        ..      B        0x257a ; _printf_core + 654
        0x000023d2:    f8170b04    ....    LDRB     r0,[r7],#4
        0x000023d6:    f88d0000    ....    STRB     r0,[sp,#0]
        0x000023da:    2000        .       MOVS     r0,#0
        0x000023dc:    f88d0001    ....    STRB     r0,[sp,#1]
        0x000023e0:    46e9        .F      MOV      r9,sp
        0x000023e2:    2001        .       MOVS     r0,#1
        0x000023e4:    e003        ..      B        0x23ee ; _printf_core + 258
        0x000023e6:    f8579b04    W...    LDR      r9,[r7],#4
        0x000023ea:    f04f30ff    O..0    MOV      r0,#0xffffffff
        0x000023ee:    0769        i.      LSLS     r1,r5,#29
        0x000023f0:    f04f0500    O...    MOV      r5,#0
        0x000023f4:    d401        ..      BMI      0x23fa ; _printf_core + 270
        0x000023f6:    e00a        ..      B        0x240e ; _printf_core + 290
        0x000023f8:    1c6d        m.      ADDS     r5,r5,#1
        0x000023fa:    4545        EE      CMP      r5,r8
        0x000023fc:    da0d        ..      BGE      0x241a ; _printf_core + 302
        0x000023fe:    4285        .B      CMP      r5,r0
        0x00002400:    dbfa        ..      BLT      0x23f8 ; _printf_core + 268
        0x00002402:    f8191005    ....    LDRB     r1,[r9,r5]
        0x00002406:    2900        .)      CMP      r1,#0
        0x00002408:    d1f6        ..      BNE      0x23f8 ; _printf_core + 268
        0x0000240a:    e006        ..      B        0x241a ; _printf_core + 302
        0x0000240c:    1c6d        m.      ADDS     r5,r5,#1
        0x0000240e:    4285        .B      CMP      r5,r0
        0x00002410:    dbfc        ..      BLT      0x240c ; _printf_core + 288
        0x00002412:    f8191005    ....    LDRB     r1,[r9,r5]
        0x00002416:    2900        .)      CMP      r1,#0
        0x00002418:    d1f8        ..      BNE      0x240c ; _printf_core + 288
        0x0000241a:    442e        .D      ADD      r6,r6,r5
        0x0000241c:    e004        ..      B        0x2428 ; _printf_core + 316
        0x0000241e:    f8190b01    ....    LDRB     r0,[r9],#1
        0x00002422:    465a        ZF      MOV      r2,r11
        0x00002424:    990f        ..      LDR      r1,[sp,#0x3c]
        0x00002426:    4790        .G      BLX      r2
        0x00002428:    1e6d        m.      SUBS     r5,r5,#1
        0x0000242a:    d2f8        ..      BCS      0x241e ; _printf_core + 306
        0x0000242c:    e0a5        ..      B        0x257a ; _printf_core + 654
        0x0000242e:    200a        .       MOVS     r0,#0xa
        0x00002430:    2100        .!      MOVS     r1,#0
        0x00002432:    e9cd0108    ....    STRD     r0,r1,[sp,#0x20]
        0x00002436:    f3c55002    ...P    UBFX     r0,r5,#20,#3
        0x0000243a:    2802        .(      CMP      r0,#2
        0x0000243c:    d00d        ..      BEQ      0x245a ; _printf_core + 366
        0x0000243e:    cf01        ..      LDM      r7!,{r0}
        0x00002440:    17c1        ..      ASRS     r1,r0,#31
        0x00002442:    1e03        ..      SUBS     r3,r0,#0
        0x00002444:    f1710300    q...    SBCS     r3,r1,#0
        0x00002448:    da0d        ..      BGE      0x2466 ; _printf_core + 378
        0x0000244a:    f04f0c00    O...    MOV      r12,#0
        0x0000244e:    ebd0000c    ....    RSBS     r0,r0,r12
        0x00002452:    eb6c0101    l...    SBC      r1,r12,r1
        0x00002456:    232d        -#      MOVS     r3,#0x2d
        0x00002458:    e008        ..      B        0x246c ; _printf_core + 384
        0x0000245a:    1dff        ..      ADDS     r7,r7,#7
        0x0000245c:    f0270707    '...    BIC      r7,r7,#7
        0x00002460:    e8f70102    ....    LDRD     r0,r1,[r7],#8
        0x00002464:    e7ed        ..      B        0x2442 ; _printf_core + 342
        0x00002466:    052b        +.      LSLS     r3,r5,#20
        0x00002468:    d504        ..      BPL      0x2474 ; _printf_core + 392
        0x0000246a:    232b        +#      MOVS     r3,#0x2b
        0x0000246c:    f88d3028    ..(0    STRB     r3,[sp,#0x28]
        0x00002470:    2301        .#      MOVS     r3,#1
        0x00002472:    e03b        ;.      B        0x24ec ; _printf_core + 512
        0x00002474:    07eb        ..      LSLS     r3,r5,#31
        0x00002476:    d039        9.      BEQ      0x24ec ; _printf_core + 512
        0x00002478:    2320         #      MOVS     r3,#0x20
        0x0000247a:    e7f7        ..      B        0x246c ; _printf_core + 384
        0x0000247c:    200a        .       MOVS     r0,#0xa
        0x0000247e:    e000        ..      B        0x2482 ; _printf_core + 406
        0x00002480:    2010        .       MOVS     r0,#0x10
        0x00002482:    2100        .!      MOVS     r1,#0
        0x00002484:    e9cd0108    ....    STRD     r0,r1,[sp,#0x20]
        0x00002488:    e007        ..      B        0x249a ; _printf_core + 430
        0x0000248a:    2010        .       MOVS     r0,#0x10
        0x0000248c:    2100        .!      MOVS     r1,#0
        0x0000248e:    f0450504    E...    ORR      r5,r5,#4
        0x00002492:    e9cd0108    ....    STRD     r0,r1,[sp,#0x20]
        0x00002496:    f04f0808    O...    MOV      r8,#8
        0x0000249a:    f3c55002    ...P    UBFX     r0,r5,#20,#3
        0x0000249e:    2802        .(      CMP      r0,#2
        0x000024a0:    d00f        ..      BEQ      0x24c2 ; _printf_core + 470
        0x000024a2:    cf01        ..      LDM      r7!,{r0}
        0x000024a4:    2100        .!      MOVS     r1,#0
        0x000024a6:    f04f0a00    O...    MOV      r10,#0
        0x000024aa:    072b        +.      LSLS     r3,r5,#28
        0x000024ac:    d51f        ..      BPL      0x24ee ; _printf_core + 514
        0x000024ae:    2a70        p*      CMP      r2,#0x70
        0x000024b0:    d00d        ..      BEQ      0x24ce ; _printf_core + 482
        0x000024b2:    e9ddc308    ....    LDRD     r12,r3,[sp,#0x20]
        0x000024b6:    f08c0c10    ....    EOR      r12,r12,#0x10
        0x000024ba:    ea5c0c03    \...    ORRS     r12,r12,r3
        0x000024be:    d00c        ..      BEQ      0x24da ; _printf_core + 494
        0x000024c0:    e015        ..      B        0x24ee ; _printf_core + 514
        0x000024c2:    1dff        ..      ADDS     r7,r7,#7
        0x000024c4:    f0270707    '...    BIC      r7,r7,#7
        0x000024c8:    e8f70102    ....    LDRD     r0,r1,[r7],#8
        0x000024cc:    e7eb        ..      B        0x24a6 ; _printf_core + 442
        0x000024ce:    2240        @"      MOVS     r2,#0x40
        0x000024d0:    f88d2028    ..(     STRB     r2,[sp,#0x28]
        0x000024d4:    f04f0a01    O...    MOV      r10,#1
        0x000024d8:    e00b        ..      B        0x24f2 ; _printf_core + 518
        0x000024da:    ea500301    P...    ORRS     r3,r0,r1
        0x000024de:    d006        ..      BEQ      0x24ee ; _printf_core + 514
        0x000024e0:    2330        0#      MOVS     r3,#0x30
        0x000024e2:    f88d3028    ..(0    STRB     r3,[sp,#0x28]
        0x000024e6:    f88d2029    ..)     STRB     r2,[sp,#0x29]
        0x000024ea:    2302        .#      MOVS     r3,#2
        0x000024ec:    469a        .F      MOV      r10,r3
        0x000024ee:    2a58        X*      CMP      r2,#0x58
        0x000024f0:    d004        ..      BEQ      0x24fc ; _printf_core + 528
        0x000024f2:    a224        $.      ADR      r2,{pc}+0x92 ; 0x2584
        0x000024f4:    f10d0920    .. .    ADD      r9,sp,#0x20
        0x000024f8:    920b        ..      STR      r2,[sp,#0x2c]
        0x000024fa:    e009        ..      B        0x2510 ; _printf_core + 548
        0x000024fc:    a226        &.      ADR      r2,{pc}+0x9c ; 0x2598
        0x000024fe:    e7f9        ..      B        0x24f4 ; _printf_core + 520
        0x00002500:    e9dd2308    ...#    LDRD     r2,r3,[sp,#0x20]
        0x00002504:    f7fffe6e    ..n.    BL       __aeabi_uldivmod ; 0x21e4
        0x00002508:    9b0b        ..      LDR      r3,[sp,#0x2c]
        0x0000250a:    5c9b        .\      LDRB     r3,[r3,r2]
        0x0000250c:    f8093d01    ...=    STRB     r3,[r9,#-1]!
        0x00002510:    ea500201    P...    ORRS     r2,r0,r1
        0x00002514:    d1f4        ..      BNE      0x2500 ; _printf_core + 532
        0x00002516:    ebad0009    ....    SUB      r0,sp,r9
        0x0000251a:    3020         0      ADDS     r0,r0,#0x20
        0x0000251c:    9008        ..      STR      r0,[sp,#0x20]
        0x0000251e:    0768        h.      LSLS     r0,r5,#29
        0x00002520:    d401        ..      BMI      0x2526 ; _printf_core + 570
        0x00002522:    f04f0801    O...    MOV      r8,#1
        0x00002526:    9908        ..      LDR      r1,[sp,#0x20]
        0x00002528:    4588        .E      CMP      r8,r1
        0x0000252a:    dd02        ..      BLE      0x2532 ; _printf_core + 582
        0x0000252c:    eba80001    ....    SUB      r0,r8,r1
        0x00002530:    e000        ..      B        0x2534 ; _printf_core + 584
        0x00002532:    2000        .       MOVS     r0,#0
        0x00002534:    4680        .F      MOV      r8,r0
        0x00002536:    2500        .%      MOVS     r5,#0
        0x00002538:    e006        ..      B        0x2548 ; _printf_core + 604
        0x0000253a:    a80a        ..      ADD      r0,sp,#0x28
        0x0000253c:    465a        ZF      MOV      r2,r11
        0x0000253e:    5d40        @]      LDRB     r0,[r0,r5]
        0x00002540:    990f        ..      LDR      r1,[sp,#0x3c]
        0x00002542:    4790        .G      BLX      r2
        0x00002544:    1c6d        m.      ADDS     r5,r5,#1
        0x00002546:    1c76        v.      ADDS     r6,r6,#1
        0x00002548:    4555        UE      CMP      r5,r10
        0x0000254a:    dbf6        ..      BLT      0x253a ; _printf_core + 590
        0x0000254c:    e004        ..      B        0x2558 ; _printf_core + 620
        0x0000254e:    2030        0       MOVS     r0,#0x30
        0x00002550:    465a        ZF      MOV      r2,r11
        0x00002552:    990f        ..      LDR      r1,[sp,#0x3c]
        0x00002554:    4790        .G      BLX      r2
        0x00002556:    1c76        v.      ADDS     r6,r6,#1
        0x00002558:    f1b80100    ....    SUBS     r1,r8,#0
        0x0000255c:    f1a80801    ....    SUB      r8,r8,#1
        0x00002560:    dcf5        ..      BGT      0x254e ; _printf_core + 610
        0x00002562:    e005        ..      B        0x2570 ; _printf_core + 644
        0x00002564:    f8190b01    ....    LDRB     r0,[r9],#1
        0x00002568:    465a        ZF      MOV      r2,r11
        0x0000256a:    990f        ..      LDR      r1,[sp,#0x3c]
        0x0000256c:    4790        .G      BLX      r2
        0x0000256e:    1c76        v.      ADDS     r6,r6,#1
        0x00002570:    9908        ..      LDR      r1,[sp,#0x20]
        0x00002572:    1e48        H.      SUBS     r0,r1,#1
        0x00002574:    9008        ..      STR      r0,[sp,#0x20]
        0x00002576:    2900        .)      CMP      r1,#0
        0x00002578:    dcf4        ..      BGT      0x2564 ; _printf_core + 632
        0x0000257a:    1c64        d.      ADDS     r4,r4,#1
        0x0000257c:    e6c5        ..      B        0x230a ; _printf_core + 30
    $d
        0x0000257e:    0000        ..      DCW    0
        0x00002580:    00012809    .(..    DCD    75785
        0x00002584:    33323130    0123    DCD    858927408
        0x00002588:    37363534    4567    DCD    926299444
        0x0000258c:    62613938    89ab    DCD    1650538808
        0x00002590:    66656463    cdef    DCD    1717920867
        0x00002594:    00000000    ....    DCD    0
        0x00002598:    33323130    0123    DCD    858927408
        0x0000259c:    37363534    4567    DCD    926299444
        0x000025a0:    42413938    89AB    DCD    1111570744
        0x000025a4:    46454443    CDEF    DCD    1178944579
        0x000025a8:    00000000    ....    DCD    0
    $d.realdata
    .constdata
        0x000025ac:    00b71b00    ....    DCD    12000000
        0x000025b0:    00000000    ....    DCD    0
        0x000025b4:    00008000    ....    DCD    32768
        0x000025b8:    00b71b00    ....    DCD    12000000
        0x000025bc:    00b71b00    ....    DCD    12000000
        0x000025c0:    00000000    ....    DCD    0
        0x000025c4:    00008000    ....    DCD    32768
        0x000025c8:    00b71b00    ....    DCD    12000000
        0x000025cc:    00b71b00    ....    DCD    12000000
        0x000025d0:    00000000    ....    DCD    0
        0x000025d4:    00008000    ....    DCD    32768
        0x000025d8:    00b71b00    ....    DCD    12000000
    .constdata
        0x000025dc:    00000000    ....    DCD    0
        0x000025e0:    00000004    ....    DCD    4
        0x000025e4:    00000008    ....    DCD    8
        0x000025e8:    0000000c    ....    DCD    12
        0x000025ec:    00000000    ....    DCD    0
        0x000025f0:    00000004    ....    DCD    4
        0x000025f4:    0000000c    ....    DCD    12
        0x000025f8:    00000010    ....    DCD    16
    Region$$Table$$Base
        0x000025fc:    0000261c    .&..    DCD    9756
        0x00002600:    20000000    ...     DCD    536870912
        0x00002604:    00000048    H...    DCD    72
        0x00002608:    000022cc    ."..    DCD    8908
        0x0000260c:    00002664    d&..    DCD    9828
        0x00002610:    20000048    H..     DCD    536870984
        0x00002614:    00000900    ....    DCD    2304
        0x00002618:    000022dc    ."..    DCD    8924
    Region$$Table$$Limit

** Section #2 'ER_RW' (SHT_PROGBITS) [SHF_ALLOC + SHF_WRITE]
    Size   : 72 bytes (alignment 4)
    Address: 0x20000000


** Section #3 'ER_ZI' (SHT_NOBITS) [SHF_ALLOC + SHF_WRITE]
    Size   : 2304 bytes (alignment 8)
    Address: 0x20000048


** Section #4 '.debug_abbrev' (SHT_PROGBITS)
    Size   : 1476 bytes


** Section #5 '.debug_frame' (SHT_PROGBITS)
    Size   : 3964 bytes


** Section #6 '.debug_info' (SHT_PROGBITS)
    Size   : 25612 bytes


** Section #7 '.debug_line' (SHT_PROGBITS)
    Size   : 10312 bytes


** Section #8 '.debug_loc' (SHT_PROGBITS)
    Size   : 9272 bytes


** Section #9 '.debug_macinfo' (SHT_PROGBITS)
    Size   : 138096 bytes


** Section #10 '.debug_pubnames' (SHT_PROGBITS)
    Size   : 2781 bytes


** Section #11 '.symtab' (SHT_SYMTAB)
    Size   : 7008 bytes (alignment 4)
    String table #12 '.strtab'
    Last local symbol no. 143


** Section #12 '.strtab' (SHT_STRTAB)
    Size   : 6512 bytes


** Section #13 '.note' (SHT_NOTE)
    Size   : 28 bytes (alignment 4)


** Section #14 '.comment' (SHT_PROGBITS)
    Size   : 8716 bytes


** Section #15 '.shstrtab' (SHT_STRTAB)
    Size   : 156 bytes


