
========================================================================

** ELF Header Information

    File Name: .\obj\dsp_fft.axf

    Machine class: ELFCLASS32 (32-bit)
    Data encoding: ELFDATA2LSB (Little endian)
    Header version: EV_CURRENT (Current version)
    Operating System ABI: none
    ABI Version: 0
    File Type: ET_EXEC (Executable) (2)
    Machine: EM_ARM (ARM)

    Image Entry point: 0x00000225
    Flags: EF_ARM_HASENTRY (0x05000002)

    ARM ELF revision: 5 (ABI version 2)

    Conforms to Base float procedure-call standard

    Built with
    Component: ARM Compiler 5.06 (build 20) Tool: armasm [4d35a2]
    Component: ARM Compiler 5.06 update 6 (build 750) Tool: armasm [4d35ec]
    Component: ARM Compiler 5.06 (build 20) Tool: armlink [4d35a3]
    Component: ARM Compiler 5.06 update 6 (build 750) Tool: armlink [4d35ed]

    Header size: 52 bytes (0x34)
    Program header entry size: 32 bytes (0x20)
    Section header entry size: 40 bytes (0x28)

    Program header entries: 1
    Section header entries: 16

    Program header offset: 259568 (0x0003f5f0)
    Section header offset: 259600 (0x0003f610)

    Section header string table index: 15

========================================================================

** Program header #0 (PT_LOAD) [PF_X + PF_W + PF_R + PF_ARM_ENTRY]
    Size : 55824 bytes (49676 bytes in file)
    Virtual address: 0x00000000 (Alignment 8)


========================================================================

** Section #1 'ER_RO' (SHT_PROGBITS) [SHF_ALLOC + SHF_EXECINSTR]
    Size   : 41416 bytes (alignment 4)
    Address: 0x00000000

    $d.realdata
    RESET
    __Vectors
        0x00000000:    20003848    H8.     DCD    536885320
        0x00000004:    00000225    %...    DCD    549
        0x00000008:    00000265    e...    DCD    613
        0x0000000c:    00000209    ....    DCD    521
        0x00000010:    00000269    i...    DCD    617
        0x00000014:    0000026b    k...    DCD    619
        0x00000018:    0000026d    m...    DCD    621
        0x0000001c:    00000000    ....    DCD    0
        0x00000020:    00000000    ....    DCD    0
        0x00000024:    00000000    ....    DCD    0
        0x00000028:    00000000    ....    DCD    0
        0x0000002c:    0000026f    o...    DCD    623
        0x00000030:    00000271    q...    DCD    625
        0x00000034:    00000000    ....    DCD    0
        0x00000038:    00000273    s...    DCD    627
        0x0000003c:    00000275    u...    DCD    629
        0x00000040:    00000277    w...    DCD    631
        0x00000044:    00000277    w...    DCD    631
        0x00000048:    00000277    w...    DCD    631
        0x0000004c:    00000277    w...    DCD    631
        0x00000050:    00000277    w...    DCD    631
        0x00000054:    00000277    w...    DCD    631
        0x00000058:    00000277    w...    DCD    631
        0x0000005c:    00000277    w...    DCD    631
        0x00000060:    00000277    w...    DCD    631
        0x00000064:    00000277    w...    DCD    631
        0x00000068:    00000277    w...    DCD    631
        0x0000006c:    00000277    w...    DCD    631
        0x00000070:    00000277    w...    DCD    631
        0x00000074:    00000277    w...    DCD    631
        0x00000078:    00000277    w...    DCD    631
        0x0000007c:    00000277    w...    DCD    631
        0x00000080:    00000277    w...    DCD    631
        0x00000084:    00000277    w...    DCD    631
        0x00000088:    00000277    w...    DCD    631
        0x0000008c:    00000277    w...    DCD    631
        0x00000090:    00000277    w...    DCD    631
        0x00000094:    00000277    w...    DCD    631
        0x00000098:    00000277    w...    DCD    631
        0x0000009c:    00000277    w...    DCD    631
        0x000000a0:    00000277    w...    DCD    631
        0x000000a4:    00000277    w...    DCD    631
        0x000000a8:    00000277    w...    DCD    631
        0x000000ac:    00000277    w...    DCD    631
        0x000000b0:    00000277    w...    DCD    631
        0x000000b4:    00000277    w...    DCD    631
        0x000000b8:    00000277    w...    DCD    631
        0x000000bc:    00000277    w...    DCD    631
        0x000000c0:    00000277    w...    DCD    631
        0x000000c4:    00000277    w...    DCD    631
        0x000000c8:    00000277    w...    DCD    631
        0x000000cc:    00000277    w...    DCD    631
        0x000000d0:    00000277    w...    DCD    631
        0x000000d4:    00000277    w...    DCD    631
        0x000000d8:    00000277    w...    DCD    631
        0x000000dc:    00000277    w...    DCD    631
        0x000000e0:    00000277    w...    DCD    631
        0x000000e4:    00000277    w...    DCD    631
        0x000000e8:    00000277    w...    DCD    631
        0x000000ec:    00000277    w...    DCD    631
        0x000000f0:    00000277    w...    DCD    631
        0x000000f4:    00000277    w...    DCD    631
        0x000000f8:    00000277    w...    DCD    631
        0x000000fc:    00000277    w...    DCD    631
        0x00000100:    00000277    w...    DCD    631
        0x00000104:    00000277    w...    DCD    631
        0x00000108:    00000277    w...    DCD    631
        0x0000010c:    00000277    w...    DCD    631
        0x00000110:    00000277    w...    DCD    631
        0x00000114:    00000277    w...    DCD    631
        0x00000118:    00000277    w...    DCD    631
        0x0000011c:    00000277    w...    DCD    631
        0x00000120:    00000277    w...    DCD    631
        0x00000124:    00000277    w...    DCD    631
        0x00000128:    00000277    w...    DCD    631
        0x0000012c:    00000277    w...    DCD    631
        0x00000130:    00000277    w...    DCD    631
        0x00000134:    00000277    w...    DCD    631
        0x00000138:    00000277    w...    DCD    631
        0x0000013c:    00000277    w...    DCD    631
        0x00000140:    00000277    w...    DCD    631
        0x00000144:    00000277    w...    DCD    631
        0x00000148:    00000277    w...    DCD    631
        0x0000014c:    00000277    w...    DCD    631
        0x00000150:    00000277    w...    DCD    631
        0x00000154:    00000277    w...    DCD    631
        0x00000158:    00000277    w...    DCD    631
        0x0000015c:    00000277    w...    DCD    631
        0x00000160:    00000277    w...    DCD    631
        0x00000164:    00000277    w...    DCD    631
        0x00000168:    00000277    w...    DCD    631
        0x0000016c:    00000277    w...    DCD    631
        0x00000170:    00000277    w...    DCD    631
        0x00000174:    00000277    w...    DCD    631
        0x00000178:    00000277    w...    DCD    631
        0x0000017c:    00000277    w...    DCD    631
        0x00000180:    00000277    w...    DCD    631
        0x00000184:    00000277    w...    DCD    631
        0x00000188:    00000277    w...    DCD    631
        0x0000018c:    00000277    w...    DCD    631
        0x00000190:    00000277    w...    DCD    631
        0x00000194:    00000277    w...    DCD    631
        0x00000198:    00000277    w...    DCD    631
        0x0000019c:    00000277    w...    DCD    631
        0x000001a0:    00000277    w...    DCD    631
        0x000001a4:    00000277    w...    DCD    631
        0x000001a8:    00000277    w...    DCD    631
        0x000001ac:    00000277    w...    DCD    631
        0x000001b0:    00000277    w...    DCD    631
        0x000001b4:    00000277    w...    DCD    631
        0x000001b8:    00000277    w...    DCD    631
        0x000001bc:    00000277    w...    DCD    631
        0x000001c0:    00000277    w...    DCD    631
        0x000001c4:    00000277    w...    DCD    631
        0x000001c8:    00000277    w...    DCD    631
        0x000001cc:    00000277    w...    DCD    631
        0x000001d0:    00000277    w...    DCD    631
        0x000001d4:    00000277    w...    DCD    631
        0x000001d8:    00000277    w...    DCD    631
        0x000001dc:    00000277    w...    DCD    631
        0x000001e0:    00000277    w...    DCD    631
        0x000001e4:    00000277    w...    DCD    631
        0x000001e8:    00000277    w...    DCD    631
        0x000001ec:    00000277    w...    DCD    631
        0x000001f0:    00000277    w...    DCD    631
    $t
    .ARM.Collect$$$$00000000
    .ARM.Collect$$$$00000001
    __Vectors_End
    __main
    _main_stk
        0x000001f4:    f8dfd00c    ....    LDR      sp,__lit__00000000 ; [0x204] = 0x20003848
    .ARM.Collect$$$$00000004
    _main_scatterload
        0x000001f8:    f000fdfe    ....    BL       __scatterload ; 0xdf8
    .ARM.Collect$$$$00000008
    .ARM.Collect$$$$0000000A
    .ARM.Collect$$$$0000000B
    __main_after_scatterload
    _main_clock
    _main_cpp_init
    _main_init
        0x000001fc:    4800        .H      LDR      r0,[pc,#0] ; [0x200] = 0x17a9
        0x000001fe:    4700        .G      BX       r0
    $d
        0x00000200:    000017a9    ....    DCD    6057
    .ARM.Collect$$$$00002712
    __lit__00000000
    .ARM.Collect$$$$0000000D
    .ARM.Collect$$$$0000000F
    __rt_final_cpp
    __rt_final_exit
        0x00000204:    20003848    H8.     DCD    536885320
    $t
    .emb_text
    $v0
    HardFault_Handler
        0x00000208:    2004        .       MOVS     r0,#4
        0x0000020a:    4671        qF      MOV      r1,lr
        0x0000020c:    4208        .B      TST      r0,r1
        0x0000020e:    d002        ..      BEQ      0x216 ; HardFault_Handler + 14
        0x00000210:    f3ef8009    ....    MRS      r0,PSP
        0x00000214:    e001        ..      B        0x21a ; HardFault_Handler + 18
        0x00000216:    f3ef8008    ....    MRS      r0,MSP
        0x0000021a:    4671        qF      MOV      r1,lr
        0x0000021c:    4a00        .J      LDR      r2,[pc,#0] ; [0x220] = 0x11e5
        0x0000021e:    4710        .G      BX       r2
    $d
        0x00000220:    000011e5    ....    DCD    4581
    $t
    .text
    $v0
    Reset_Handler
        0x00000224:    4814        .H      LDR      r0,[pc,#80] ; [0x278] = 0x40000100
        0x00000226:    f04f0159    O.Y.    MOV      r1,#0x59
        0x0000022a:    6001        .`      STR      r1,[r0,#0]
        0x0000022c:    f04f0116    O...    MOV      r1,#0x16
        0x00000230:    6001        .`      STR      r1,[r0,#0]
        0x00000232:    f04f0188    O...    MOV      r1,#0x88
        0x00000236:    6001        .`      STR      r1,[r0,#0]
        0x00000238:    4810        .H      LDR      r0,[pc,#64] ; [0x27c] = 0x40000200
        0x0000023a:    6841        Ah      LDR      r1,[r0,#4]
        0x0000023c:    f4414180    A..A    ORR      r1,r1,#0x4000
        0x00000240:    6041        A`      STR      r1,[r0,#4]
        0x00000242:    480f        .H      LDR      r0,[pc,#60] ; [0x280] = 0x40007000
        0x00000244:    6841        Ah      LDR      r1,[r0,#4]
        0x00000246:    f0410102    A...    ORR      r1,r1,#2
        0x0000024a:    6041        A`      STR      r1,[r0,#4]
        0x0000024c:    6841        Ah      LDR      r1,[r0,#4]
        0x0000024e:    f0410104    A...    ORR      r1,r1,#4
        0x00000252:    6041        A`      STR      r1,[r0,#4]
        0x00000254:    480b        .H      LDR      r0,[pc,#44] ; [0x284] = 0x12fd
        0x00000256:    4780        .G      BLX      r0
        0x00000258:    4807        .H      LDR      r0,[pc,#28] ; [0x278] = 0x40000100
        0x0000025a:    f04f0100    O...    MOV      r1,#0
        0x0000025e:    6001        .`      STR      r1,[r0,#0]
        0x00000260:    4809        .H      LDR      r0,[pc,#36] ; [0x288] = 0x1f5
        0x00000262:    4700        .G      BX       r0
    NMI_Handler
        0x00000264:    e7fe        ..      B        NMI_Handler ; 0x264
        0x00000266:    e7fe        ..      B        0x266 ; NMI_Handler + 2
    MemManage_Handler
        0x00000268:    e7fe        ..      B        MemManage_Handler ; 0x268
    BusFault_Handler
        0x0000026a:    e7fe        ..      B        BusFault_Handler ; 0x26a
    UsageFault_Handler
        0x0000026c:    e7fe        ..      B        UsageFault_Handler ; 0x26c
    SVC_Handler
        0x0000026e:    e7fe        ..      B        SVC_Handler ; 0x26e
    DebugMon_Handler
        0x00000270:    e7fe        ..      B        DebugMon_Handler ; 0x270
    PendSV_Handler
        0x00000272:    e7fe        ..      B        PendSV_Handler ; 0x272
    SysTick_Handler
        0x00000274:    e7fe        ..      B        SysTick_Handler ; 0x274
    Default_Handler
    ACMP01_IRQHandler
    BOD_IRQHandler
    BPWM0_IRQHandler
    BPWM1_IRQHandler
    BRAKE0_IRQHandler
    BRAKE1_IRQHandler
    CAN0_IRQHandler
    CAN1_IRQHandler
    CAN2_IRQHandler
    CCAP_IRQHandler
    CKFAIL_IRQHandler
    CRYPTO_IRQHandler
    DAC_IRQHandler
    EADC00_IRQHandler
    EADC01_IRQHandler
    EADC02_IRQHandler
    EADC03_IRQHandler
    EADC10_IRQHandler
    EADC11_IRQHandler
    EADC12_IRQHandler
    EADC13_IRQHandler
    ECAP0_IRQHandler
    ECAP1_IRQHandler
    EHCI_IRQHandler
    EINT0_IRQHandler
    EINT1_IRQHandler
    EINT2_IRQHandler
    EINT3_IRQHandler
    EINT4_IRQHandler
    EINT5_IRQHandler
    EINT6_IRQHandler
    EINT7_IRQHandler
    EMAC_RX_IRQHandler
    EMAC_TX_IRQHandler
    EPWM0P0_IRQHandler
    EPWM0P1_IRQHandler
    EPWM0P2_IRQHandler
    EPWM1P0_IRQHandler
    EPWM1P1_IRQHandler
    EPWM1P2_IRQHandler
    GPA_IRQHandler
    GPB_IRQHandler
    GPC_IRQHandler
    GPD_IRQHandler
    GPE_IRQHandler
    GPF_IRQHandler
    GPG_IRQHandler
    GPH_IRQHandler
    I2C0_IRQHandler
    I2C1_IRQHandler
    I2C2_IRQHandler
    I2S0_IRQHandler
    IRC_IRQHandler
    OHCI_IRQHandler
    OPA0_IRQHandler
    PDMA_IRQHandler
    PWRWU_IRQHandler
    QEI0_IRQHandler
    QEI1_IRQHandler
    QSPI0_IRQHandler
    QSPI1_IRQHandler
    RAMPE_IRQHandler
    RTC_IRQHandler
    SC0_IRQHandler
    SC1_IRQHandler
    SC2_IRQHandler
    SDH0_IRQHandler
    SDH1_IRQHandler
    SPI0_IRQHandler
    SPI1_IRQHandler
    SPI2_IRQHandler
    SPI3_IRQHandler
    SPIM_IRQHandler
    TAMPER_IRQHandler
    TMR0_IRQHandler
    TMR1_IRQHandler
    TMR2_IRQHandler
    TMR3_IRQHandler
    TRNG_IRQHandler
    UART0_IRQHandler
    UART1_IRQHandler
    UART2_IRQHandler
    UART3_IRQHandler
    UART4_IRQHandler
    UART5_IRQHandler
    UART6_IRQHandler
    UART7_IRQHandler
    USBD20_IRQHandler
    USBD_IRQHandler
    USBOTG20_IRQHandler
    USBOTG_IRQHandler
    USCI0_IRQHandler
    USCI1_IRQHandler
    WDT_IRQHandler
    WWDT_IRQHandler
        0x00000276:    e7fe        ..      B        Default_Handler ; 0x276
    $d
        0x00000278:    40000100    ...@    DCD    1073742080
        0x0000027c:    40000200    ...@    DCD    1073742336
        0x00000280:    40007000    .p.@    DCD    1073770496
        0x00000284:    000012fd    ....    DCD    4861
        0x00000288:    000001f5    ....    DCD    501
    $t
    .text
    arm_cmplx_mag_f32
        0x0000028c:    ed9f0a3d    ..=.    VLDR     s0,[pc,#244] ; [0x384] = 0
        0x00000290:    ea5f0c92    _...    LSRS     r12,r2,#2
        0x00000294:    d057        W.      BEQ      0x346 ; arm_cmplx_mag_f32 + 186
        0x00000296:    bf00        ..      NOP      
        0x00000298:    edd00a00    ....    VLDR     s1,[r0,#0]
        0x0000029c:    ed901a01    ....    VLDR     s2,[r0,#4]
        0x000002a0:    1d0b        ..      ADDS     r3,r1,#4
        0x000002a2:    ee600aa0    `...    VMUL.F32 s1,s1,s1
        0x000002a6:    3008        .0      ADDS     r0,r0,#8
        0x000002a8:    ee410a01    A...    VMLA.F32 s1,s2,s2
        0x000002ac:    eef50ac0    ....    VCMPE.F32 s1,#0.0
        0x000002b0:    eef1fa10    ....    VMRS     APSR_nzcv,FPSCR
        0x000002b4:    bfa6        ..      ITTE     GE
        0x000002b6:    eeb11ae0    ....    VSQRTGE.F32 s2,s1
        0x000002ba:    ed811a00    ....    VSTRGE   s2,[r1,#0]
        0x000002be:    ed810a00    ....    VSTRLT   s0,[r1,#0]
        0x000002c2:    edd00a00    ....    VLDR     s1,[r0,#0]
        0x000002c6:    ed901a01    ....    VLDR     s2,[r0,#4]
        0x000002ca:    1d19        ..      ADDS     r1,r3,#4
        0x000002cc:    ee600aa0    `...    VMUL.F32 s1,s1,s1
        0x000002d0:    3008        .0      ADDS     r0,r0,#8
        0x000002d2:    ee410a01    A...    VMLA.F32 s1,s2,s2
        0x000002d6:    eef50ac0    ....    VCMPE.F32 s1,#0.0
        0x000002da:    eef1fa10    ....    VMRS     APSR_nzcv,FPSCR
        0x000002de:    bfa6        ..      ITTE     GE
        0x000002e0:    eeb11ae0    ....    VSQRTGE.F32 s2,s1
        0x000002e4:    ed831a00    ....    VSTRGE   s2,[r3,#0]
        0x000002e8:    ed830a00    ....    VSTRLT   s0,[r3,#0]
        0x000002ec:    edd00a00    ....    VLDR     s1,[r0,#0]
        0x000002f0:    ed901a01    ....    VLDR     s2,[r0,#4]
        0x000002f4:    1d0b        ..      ADDS     r3,r1,#4
        0x000002f6:    ee600aa0    `...    VMUL.F32 s1,s1,s1
        0x000002fa:    3008        .0      ADDS     r0,r0,#8
        0x000002fc:    ee410a01    A...    VMLA.F32 s1,s2,s2
        0x00000300:    eef50ac0    ....    VCMPE.F32 s1,#0.0
        0x00000304:    eef1fa10    ....    VMRS     APSR_nzcv,FPSCR
        0x00000308:    bfa6        ..      ITTE     GE
        0x0000030a:    eeb11ae0    ....    VSQRTGE.F32 s2,s1
        0x0000030e:    ed811a00    ....    VSTRGE   s2,[r1,#0]
        0x00000312:    ed810a00    ....    VSTRLT   s0,[r1,#0]
        0x00000316:    ed901a00    ....    VLDR     s2,[r0,#0]
        0x0000031a:    edd00a01    ....    VLDR     s1,[r0,#4]
        0x0000031e:    1d19        ..      ADDS     r1,r3,#4
        0x00000320:    ee211a01    !...    VMUL.F32 s2,s2,s2
        0x00000324:    3008        .0      ADDS     r0,r0,#8
        0x00000326:    ee001aa0    ....    VMLA.F32 s2,s1,s1
        0x0000032a:    eeb51ac0    ....    VCMPE.F32 s2,#0.0
        0x0000032e:    eef1fa10    ....    VMRS     APSR_nzcv,FPSCR
        0x00000332:    bfa6        ..      ITTE     GE
        0x00000334:    eef10ac1    ....    VSQRTGE.F32 s1,s2
        0x00000338:    edc30a00    ....    VSTRGE   s1,[r3,#0]
        0x0000033c:    ed830a00    ....    VSTRLT   s0,[r3,#0]
        0x00000340:    f1bc0c01    ....    SUBS     r12,r12,#1
        0x00000344:    d1a8        ..      BNE      0x298 ; arm_cmplx_mag_f32 + 12
        0x00000346:    f0120203    ....    ANDS     r2,r2,#3
        0x0000034a:    bf08        ..      IT       EQ
        0x0000034c:    4770        pG      BXEQ     lr
        0x0000034e:    bf00        ..      NOP      
        0x00000350:    edd00a00    ....    VLDR     s1,[r0,#0]
        0x00000354:    ed901a01    ....    VLDR     s2,[r0,#4]
        0x00000358:    460b        .F      MOV      r3,r1
        0x0000035a:    ee600aa0    `...    VMUL.F32 s1,s1,s1
        0x0000035e:    1d09        ..      ADDS     r1,r1,#4
        0x00000360:    3008        .0      ADDS     r0,r0,#8
        0x00000362:    ee410a01    A...    VMLA.F32 s1,s2,s2
        0x00000366:    eef50ac0    ....    VCMPE.F32 s1,#0.0
        0x0000036a:    eef1fa10    ....    VMRS     APSR_nzcv,FPSCR
        0x0000036e:    bfa6        ..      ITTE     GE
        0x00000370:    eeb11ae0    ....    VSQRTGE.F32 s2,s1
        0x00000374:    ed831a00    ....    VSTRGE   s2,[r3,#0]
        0x00000378:    ed830a00    ....    VSTRLT   s0,[r3,#0]
        0x0000037c:    1e52        R.      SUBS     r2,r2,#1
        0x0000037e:    d1e7        ..      BNE      0x350 ; arm_cmplx_mag_f32 + 196
        0x00000380:    4770        pG      BX       lr
    $d
        0x00000382:    0000        ..      DCW    0
        0x00000384:    00000000    ....    DCD    0
    $t
    .text
    arm_radix4_butterfly_f32
        0x00000388:    e92d4ff0    -..O    PUSH     {r4-r11,lr}
        0x0000038c:    088d        ..      LSRS     r5,r1,#2
        0x0000038e:    ed2d8b04    -...    VPUSH    {d8-d9}
        0x00000392:    b082        ..      SUB      sp,sp,#8
        0x00000394:    2600        .&      MOVS     r6,#0
        0x00000396:    46ac        .F      MOV      r12,r5
        0x00000398:    4634        4F      MOV      r4,r6
        0x0000039a:    9501        ..      STR      r5,[sp,#4]
        0x0000039c:    eb06090c    ....    ADD      r9,r6,r12
        0x000003a0:    eb090a0c    ....    ADD      r10,r9,r12
        0x000003a4:    eb0a080c    ....    ADD      r8,r10,r12
        0x000003a8:    eb0007c6    ....    ADD      r7,r0,r6,LSL #3
        0x000003ac:    eb0009c9    ....    ADD      r9,r0,r9,LSL #3
        0x000003b0:    eb000aca    ....    ADD      r10,r0,r10,LSL #3
        0x000003b4:    eb0008c8    ....    ADD      r8,r0,r8,LSL #3
        0x000003b8:    ed973a00    ...:    VLDR     s6,[r7,#0]
        0x000003bc:    edd93a00    ...:    VLDR     s7,[r9,#0]
        0x000003c0:    edda6a00    ...j    VLDR     s13,[r10,#0]
        0x000003c4:    ed986a00    ...j    VLDR     s12,[r8,#0]
        0x000003c8:    ed970a01    ....    VLDR     s0,[r7,#4]
        0x000003cc:    edda4a01    ...J    VLDR     s9,[r10,#4]
        0x000003d0:    ee335a26    3.&Z    VADD.F32 s10,s6,s13
        0x000003d4:    ee730a86    s...    VADD.F32 s1,s7,s12
        0x000003d8:    ed994a01    ...J    VLDR     s8,[r9,#4]
        0x000003dc:    edd85a01    ...Z    VLDR     s11,[r8,#4]
        0x000003e0:    ee301a24    0.$.    VADD.F32 s2,s0,s9
        0x000003e4:    ea4f0b44    O.D.    LSL      r11,r4,#1
        0x000003e8:    eb020ecb    ....    ADD      lr,r2,r11,LSL #3
        0x000003ec:    ee704a64    p.dJ    VSUB.F32 s9,s0,s9
        0x000003f0:    ee741a25    t.%.    VADD.F32 s3,s8,s11
        0x000003f4:    ee350a20    5. .    VADD.F32 s0,s10,s1
        0x000003f8:    ed9e2a00    ...*    VLDR     s4,[lr,#0]
        0x000003fc:    edde2a01    ...*    VLDR     s5,[lr,#4]
        0x00000400:    ed870a00    ....    VSTR     s0,[r7,#0]
        0x00000404:    ee310a21    1.!.    VADD.F32 s0,s2,s3
        0x00000408:    ee733ac6    s..:    VSUB.F32 s7,s7,s12
        0x0000040c:    ee346a65    4.ej    VSUB.F32 s12,s8,s11
        0x00000410:    ed870a01    ....    VSTR     s0,[r7,#4]
        0x00000414:    ee350a60    5.`.    VSUB.F32 s0,s10,s1
        0x00000418:    ee333a66    3.f:    VSUB.F32 s6,s6,s13
        0x0000041c:    ee710a61    q.a.    VSUB.F32 s1,s2,s3
        0x00000420:    eb0207c4    ....    ADD      r7,r2,r4,LSL #3
        0x00000424:    ee745ae3    t..Z    VSUB.F32 s11,s9,s7
        0x00000428:    ee334a06    3..J    VADD.F32 s8,s6,s12
        0x0000042c:    ed975a00    ...Z    VLDR     s10,[r7,#0]
        0x00000430:    ee731aa4    s...    VADD.F32 s3,s7,s9
        0x00000434:    edd74a01    ...J    VLDR     s9,[r7,#4]
        0x00000438:    ee331a46    3.F.    VSUB.F32 s2,s6,s12
        0x0000043c:    ee246a05    $..j    VMUL.F32 s12,s8,s10
        0x00000440:    eb0b0704    ....    ADD      r7,r11,r4
        0x00000444:    ee255a85    %..Z    VMUL.F32 s10,s11,s10
        0x00000448:    eb0207c7    ....    ADD      r7,r2,r7,LSL #3
        0x0000044c:    ee606a02    `..j    VMUL.F32 s13,s0,s4
        0x00000450:    ee655aa4    e..Z    VMUL.F32 s11,s11,s9
        0x00000454:    ee244a24    $.$J    VMUL.F32 s8,s8,s9
        0x00000458:    ed973a00    ...:    VLDR     s6,[r7,#0]
        0x0000045c:    edd73a01    ...:    VLDR     s7,[r7,#4]
        0x00000460:    ee604aa2    `..J    VMUL.F32 s9,s1,s5
        0x00000464:    ee202a82     ..*    VMUL.F32 s4,s1,s4
        0x00000468:    ee217a03    !..z    VMUL.F32 s14,s2,s6
        0x0000046c:    ee200a22     .".    VMUL.F32 s0,s0,s5
        0x00000470:    ee610aa3    a...    VMUL.F32 s1,s3,s7
        0x00000474:    ee213a83    !..:    VMUL.F32 s6,s3,s6
        0x00000478:    ee611a23    a.#.    VMUL.F32 s3,s2,s7
        0x0000047c:    ee762aa4    v..*    VADD.F32 s5,s13,s9
        0x00000480:    ee320a40    2.@.    VSUB.F32 s0,s4,s0
        0x00000484:    ee361a25    6.%.    VADD.F32 s2,s12,s11
        0x00000488:    ee753a44    u.D:    VSUB.F32 s7,s10,s8
        0x0000048c:    edc92a00    ...*    VSTR     s5,[r9,#0]
        0x00000490:    ee770a20    w. .    VADD.F32 s1,s14,s1
        0x00000494:    ed890a01    ....    VSTR     s0,[r9,#4]
        0x00000498:    ee731a61    s.a.    VSUB.F32 s3,s6,s3
        0x0000049c:    ed8a1a00    ....    VSTR     s2,[r10,#0]
        0x000004a0:    edca3a01    ...:    VSTR     s7,[r10,#4]
        0x000004a4:    edc80a00    ....    VSTR     s1,[r8,#0]
        0x000004a8:    edc81a01    ....    VSTR     s3,[r8,#4]
        0x000004ac:    441c        .D      ADD      r4,r4,r3
        0x000004ae:    1e6d        m.      SUBS     r5,r5,#1
        0x000004b0:    f1060601    ....    ADD      r6,r6,#1
        0x000004b4:    f47faf72    ..r.    BNE      0x39c ; arm_radix4_butterfly_f32 + 20
        0x000004b8:    f64f74ff    O..t    MOV      r4,#0xffff
        0x000004bc:    ea040b83    ....    AND      r11,r4,r3,LSL #2
        0x000004c0:    9b01        ..      LDR      r3,[sp,#4]
        0x000004c2:    9300        ..      STR      r3,[sp,#0]
        0x000004c4:    2b04        .+      CMP      r3,#4
        0x000004c6:    d97c        |.      BLS      0x5c2 ; arm_radix4_butterfly_f32 + 570
        0x000004c8:    4666        fF      MOV      r6,r12
        0x000004ca:    ea4f0c9c    O...    LSR      r12,r12,#2
        0x000004ce:    f04f0800    O...    MOV      r8,#0
        0x000004d2:    46c1        .F      MOV      r9,r8
        0x000004d4:    f1ac0e01    ....    SUB      lr,r12,#1
        0x000004d8:    ea4f0348    O.H.    LSL      r3,r8,#1
        0x000004dc:    eb030408    ....    ADD      r4,r3,r8
        0x000004e0:    eb0203c3    ....    ADD      r3,r2,r3,LSL #3
        0x000004e4:    eb0205c8    ....    ADD      r5,r2,r8,LSL #3
        0x000004e8:    ed933a00    ...:    VLDR     s6,[r3,#0]
        0x000004ec:    edd34a01    ...J    VLDR     s9,[r3,#4]
        0x000004f0:    eb0203c4    ....    ADD      r3,r2,r4,LSL #3
        0x000004f4:    ed955a00    ...Z    VLDR     s10,[r5,#0]
        0x000004f8:    edd55a01    ...Z    VLDR     s11,[r5,#4]
        0x000004fc:    ed936a00    ...j    VLDR     s12,[r3,#0]
        0x00000500:    ed934a01    ...J    VLDR     s8,[r3,#4]
        0x00000504:    44d8        .D      ADD      r8,r8,r11
        0x00000506:    464b        KF      MOV      r3,r9
        0x00000508:    eb03040c    ....    ADD      r4,r3,r12
        0x0000050c:    eb04070c    ....    ADD      r7,r4,r12
        0x00000510:    eb070a0c    ....    ADD      r10,r7,r12
        0x00000514:    eb0005c3    ....    ADD      r5,r0,r3,LSL #3
        0x00000518:    eb0007c7    ....    ADD      r7,r0,r7,LSL #3
        0x0000051c:    eb0004c4    ....    ADD      r4,r0,r4,LSL #3
        0x00000520:    eb000aca    ....    ADD      r10,r0,r10,LSL #3
        0x00000524:    edd53a00    ...:    VLDR     s7,[r5,#0]
        0x00000528:    ed977a00    ...z    VLDR     s14,[r7,#0]
        0x0000052c:    edd48a00    ....    VLDR     s17,[r4,#0]
        0x00000530:    ed9a8a00    ....    VLDR     s16,[r10,#0]
        0x00000534:    ed950a01    ....    VLDR     s0,[r5,#4]
        0x00000538:    edd40a01    ....    VLDR     s1,[r4,#4]
        0x0000053c:    edd77a01    ...z    VLDR     s15,[r7,#4]
        0x00000540:    edda1a01    ....    VLDR     s3,[r10,#4]
        0x00000544:    ee332ac7    3..*    VSUB.F32 s4,s7,s14
        0x00000548:    ee706a67    p.gj    VSUB.F32 s13,s0,s15
        0x0000054c:    ee702ae1    p..*    VSUB.F32 s5,s1,s3
        0x00000550:    ee337a87    3..z    VADD.F32 s14,s7,s14
        0x00000554:    ee783a88    x..:    VADD.F32 s7,s17,s16
        0x00000558:    ee300a27    0.'.    VADD.F32 s0,s0,s15
        0x0000055c:    ee381ac8    8...    VSUB.F32 s2,s17,s16
        0x00000560:    ee701aa1    p...    VADD.F32 s3,s1,s3
        0x00000564:    ee727a22    r."z    VADD.F32 s15,s4,s5
        0x00000568:    ee322a62    2.b*    VSUB.F32 s4,s4,s5
        0x0000056c:    ee772a23    w.#*    VADD.F32 s5,s14,s7
        0x00000570:    ee708a61    p.a.    VSUB.F32 s17,s0,s3
        0x00000574:    ee368ac1    6...    VSUB.F32 s16,s13,s2
        0x00000578:    ee300a21    0.!.    VADD.F32 s0,s0,s3
        0x0000057c:    ee770a63    w.c.    VSUB.F32 s1,s14,s7
        0x00000580:    ee311a26    1.&.    VADD.F32 s2,s2,s13
        0x00000584:    edc52a00    ...*    VSTR     s5,[r5,#0]
        0x00000588:    ed850a01    ....    VSTR     s0,[r5,#4]
        0x0000058c:    ee280a05    (...    VMUL.F32 s0,s16,s10
        0x00000590:    ee676a85    g..j    VMUL.F32 s13,s15,s10
        0x00000594:    ee288a25    (.%.    VMUL.F32 s16,s16,s11
        0x00000598:    ee207a83     ..z    VMUL.F32 s14,s1,s6
        0x0000059c:    ee209aa4     ...    VMUL.F32 s18,s1,s9
        0x000005a0:    ee681a83    h...    VMUL.F32 s3,s17,s6
        0x000005a4:    ee622a06    b..*    VMUL.F32 s5,s4,s12
        0x000005a8:    ee613a06    a..:    VMUL.F32 s7,s2,s12
        0x000005ac:    ee620a04    b...    VMUL.F32 s1,s4,s8
        0x000005b0:    ee677aa5    g..z    VMUL.F32 s15,s15,s11
        0x000005b4:    ee688aa4    h...    VMUL.F32 s17,s17,s9
        0x000005b8:    ee211a04    !...    VMUL.F32 s2,s2,s8
        0x000005bc:    ee362a88    6..*    VADD.F32 s4,s13,s16
        0x000005c0:    e000        ..      B        0x5c4 ; arm_radix4_butterfly_f32 + 572
        0x000005c2:    e027        '.      B        0x614 ; arm_radix4_butterfly_f32 + 652
        0x000005c4:    ee776a28    w.(j    VADD.F32 s13,s14,s17
        0x000005c8:    ee711ac9    q...    VSUB.F32 s3,s3,s18
        0x000005cc:    ee300a67    0.g.    VSUB.F32 s0,s0,s15
        0x000005d0:    edc46a00    ...j    VSTR     s13,[r4,#0]
        0x000005d4:    ee321a81    2...    VADD.F32 s2,s5,s2
        0x000005d8:    edc41a01    ....    VSTR     s3,[r4,#4]
        0x000005dc:    ee730ae0    s...    VSUB.F32 s1,s7,s1
        0x000005e0:    ed872a00    ...*    VSTR     s4,[r7,#0]
        0x000005e4:    ed870a01    ....    VSTR     s0,[r7,#4]
        0x000005e8:    ed8a1a00    ....    VSTR     s2,[r10,#0]
        0x000005ec:    4433        3D      ADD      r3,r3,r6
        0x000005ee:    edca0a01    ....    VSTR     s1,[r10,#4]
        0x000005f2:    428b        .B      CMP      r3,r1
        0x000005f4:    d388        ..      BCC      0x508 ; arm_radix4_butterfly_f32 + 384
        0x000005f6:    f1090901    ....    ADD      r9,r9,#1
        0x000005fa:    45f1        .E      CMP      r9,lr
        0x000005fc:    f67faf6c    ..l.    BLS      0x4d8 ; arm_radix4_butterfly_f32 + 336
        0x00000600:    f64f73ff    O..s    MOV      r3,#0xffff
        0x00000604:    ea030b8b    ....    AND      r11,r3,r11,LSL #2
        0x00000608:    9b00        ..      LDR      r3,[sp,#0]
        0x0000060a:    089b        ..      LSRS     r3,r3,#2
        0x0000060c:    9300        ..      STR      r3,[sp,#0]
        0x0000060e:    2b04        .+      CMP      r3,#4
        0x00000610:    f63faf5a    ?.Z.    BHI      0x4c8 ; arm_radix4_butterfly_f32 + 320
        0x00000614:    f8dd1004    ....    LDR.W    r1,[sp,#4]
        0x00000618:    ed900a00    ....    VLDR     s0,[r0,#0]
        0x0000061c:    edd02a04    ...*    VLDR     s5,[r0,#0x10]
        0x00000620:    ed905a02    ...Z    VLDR     s10,[r0,#8]
        0x00000624:    ed901a03    ....    VLDR     s2,[r0,#0xc]
        0x00000628:    edd04a06    ...J    VLDR     s9,[r0,#0x18]
        0x0000062c:    ed903a07    ...:    VLDR     s6,[r0,#0x1c]
        0x00000630:    ee302a22    0."*    VADD.F32 s4,s0,s5
        0x00000634:    edd01a01    ....    VLDR     s3,[r0,#4]
        0x00000638:    edd00a05    ....    VLDR     s1,[r0,#0x14]
        0x0000063c:    ee753a24    u.$:    VADD.F32 s7,s10,s9
        0x00000640:    ee314a03    1..J    VADD.F32 s8,s2,s6
        0x00000644:    ee300a62    0.b.    VSUB.F32 s0,s0,s5
        0x00000648:    ee712aa0    q..*    VADD.F32 s5,s3,s1
        0x0000064c:    ee311a43    1.C.    VSUB.F32 s2,s2,s6
        0x00000650:    ee323a23    2.#:    VADD.F32 s6,s4,s7
        0x00000654:    ee710ae0    q...    VSUB.F32 s1,s3,s1
        0x00000658:    ee751a64    u.d.    VSUB.F32 s3,s10,s9
        0x0000065c:    ee724a84    r..J    VADD.F32 s9,s5,s8
        0x00000660:    ee322a63    2.c*    VSUB.F32 s4,s4,s7
        0x00000664:    ee723ac4    r..:    VSUB.F32 s7,s5,s8
        0x00000668:    ed803a00    ...:    VSTR     s6,[r0,#0]
        0x0000066c:    ee702a01    p..*    VADD.F32 s5,s0,s2
        0x00000670:    edc04a01    ...J    VSTR     s9,[r0,#4]
        0x00000674:    ee304ae1    0..J    VSUB.F32 s8,s1,s3
        0x00000678:    ed802a02    ...*    VSTR     s4,[r0,#8]
        0x0000067c:    ee300a41    0.A.    VSUB.F32 s0,s0,s2
        0x00000680:    edc03a03    ...:    VSTR     s7,[r0,#0xc]
        0x00000684:    ee710aa0    q...    VADD.F32 s1,s3,s1
        0x00000688:    edc02a04    ...*    VSTR     s5,[r0,#0x10]
        0x0000068c:    ed804a05    ...J    VSTR     s8,[r0,#0x14]
        0x00000690:    ed800a06    ....    VSTR     s0,[r0,#0x18]
        0x00000694:    edc00a07    ....    VSTR     s1,[r0,#0x1c]
        0x00000698:    3020         0      ADDS     r0,r0,#0x20
        0x0000069a:    1e49        I.      SUBS     r1,r1,#1
        0x0000069c:    d1bc        ..      BNE      0x618 ; arm_radix4_butterfly_f32 + 656
        0x0000069e:    b002        ..      ADD      sp,sp,#8
        0x000006a0:    ecbd8b04    ....    VPOP     {d8-d9}
        0x000006a4:    e8bd8ff0    ....    POP      {r4-r11,pc}
    arm_radix4_butterfly_inverse_f32
        0x000006a8:    e92d4ff0    -..O    PUSH     {r4-r11,lr}
        0x000006ac:    ea4f0a91    O...    LSR      r10,r1,#2
        0x000006b0:    ed2d8b04    -...    VPUSH    {d8-d9}
        0x000006b4:    b082        ..      SUB      sp,sp,#8
        0x000006b6:    2400        .$      MOVS     r4,#0
        0x000006b8:    46d4        .F      MOV      r12,r10
        0x000006ba:    46a0        .F      MOV      r8,r4
        0x000006bc:    f8cda004    ....    STR      r10,[sp,#4]
        0x000006c0:    eb04050c    ....    ADD      r5,r4,r12
        0x000006c4:    eb05060c    ....    ADD      r6,r5,r12
        0x000006c8:    eb06090c    ....    ADD      r9,r6,r12
        0x000006cc:    eb0007c4    ....    ADD      r7,r0,r4,LSL #3
        0x000006d0:    eb0006c6    ....    ADD      r6,r0,r6,LSL #3
        0x000006d4:    eb0005c5    ....    ADD      r5,r0,r5,LSL #3
        0x000006d8:    eb0009c9    ....    ADD      r9,r0,r9,LSL #3
        0x000006dc:    edd71a01    ....    VLDR     s3,[r7,#4]
        0x000006e0:    edd62a01    ...*    VLDR     s5,[r6,#4]
        0x000006e4:    ed956a00    ...j    VLDR     s12,[r5,#0]
        0x000006e8:    edd96a00    ...j    VLDR     s13,[r9,#0]
        0x000006ec:    edd75a00    ...Z    VLDR     s11,[r7,#0]
        0x000006f0:    ed967a00    ...z    VLDR     s14,[r6,#0]
        0x000006f4:    edd50a01    ....    VLDR     s1,[r5,#4]
        0x000006f8:    ed991a01    ....    VLDR     s2,[r9,#4]
        0x000006fc:    ee362a26    6.&*    VADD.F32 s4,s12,s13
        0x00000700:    ee713aa2    q..:    VADD.F32 s7,s3,s5
        0x00000704:    ee353a87    5..:    VADD.F32 s6,s11,s14
        0x00000708:    ee711ae2    q...    VSUB.F32 s3,s3,s5
        0x0000070c:    ee305a81    0..Z    VADD.F32 s10,s1,s2
        0x00000710:    ee702ac1    p..*    VSUB.F32 s5,s1,s2
        0x00000714:    ea4f0b48    O.H.    LSL      r11,r8,#1
        0x00000718:    eb020ecb    ....    ADD      lr,r2,r11,LSL #3
        0x0000071c:    ee730a02    s...    VADD.F32 s1,s6,s4
        0x00000720:    ed9e4a00    ...J    VLDR     s8,[lr,#0]
        0x00000724:    edde4a01    ...J    VLDR     s9,[lr,#4]
        0x00000728:    edc70a00    ....    VSTR     s1,[r7,#0]
        0x0000072c:    ee730a85    s...    VADD.F32 s1,s7,s10
        0x00000730:    ee366a66    6.fj    VSUB.F32 s12,s12,s13
        0x00000734:    ee755ac7    u..Z    VSUB.F32 s11,s11,s14
        0x00000738:    edc70a01    ....    VSTR     s1,[r7,#4]
        0x0000073c:    ee332a42    3.B*    VSUB.F32 s4,s6,s4
        0x00000740:    eb0207c8    ....    ADD      r7,r2,r8,LSL #3
        0x00000744:    ee311a86    1...    VADD.F32 s2,s3,s12
        0x00000748:    ee333ac5    3..:    VSUB.F32 s6,s7,s10
        0x0000074c:    ee711ac6    q...    VSUB.F32 s3,s3,s12
        0x00000750:    ed976a00    ...j    VLDR     s12,[r7,#0]
        0x00000754:    ed975a01    ...Z    VLDR     s10,[r7,#4]
        0x00000758:    ee750ae2    u...    VSUB.F32 s1,s11,s5
        0x0000075c:    eb0b0708    ....    ADD      r7,r11,r8
        0x00000760:    eb0207c7    ....    ADD      r7,r2,r7,LSL #3
        0x00000764:    ee752aa2    u..*    VADD.F32 s5,s11,s5
        0x00000768:    edd75a00    ...Z    VLDR     s11,[r7,#0]
        0x0000076c:    edd73a01    ...:    VLDR     s7,[r7,#4]
        0x00000770:    ee606a86    `..j    VMUL.F32 s13,s1,s12
        0x00000774:    ee227a04    "..z    VMUL.F32 s14,s4,s8
        0x00000778:    ee627aa5    b..z    VMUL.F32 s15,s5,s11
        0x0000077c:    ee234a04    #..J    VMUL.F32 s8,s6,s8
        0x00000780:    ee216a06    !..j    VMUL.F32 s12,s2,s12
        0x00000784:    ee615aa5    a..Z    VMUL.F32 s11,s3,s11
        0x00000788:    ee600a85    `...    VMUL.F32 s1,s1,s10
        0x0000078c:    ee233a24    #.$:    VMUL.F32 s6,s6,s9
        0x00000790:    ee222a24    ".$*    VMUL.F32 s4,s4,s9
        0x00000794:    ee211a05    !...    VMUL.F32 s2,s2,s10
        0x00000798:    ee611aa3    a...    VMUL.F32 s3,s3,s7
        0x0000079c:    ee622aa3    b..*    VMUL.F32 s5,s5,s7
        0x000007a0:    ee763a20    v. :    VADD.F32 s7,s12,s1
        0x000007a4:    ee373a43    7.C:    VSUB.F32 s6,s14,s6
        0x000007a8:    ee740a02    t...    VADD.F32 s1,s8,s4
        0x000007ac:    ee361ac1    6...    VSUB.F32 s2,s13,s2
        0x000007b0:    ed853a00    ...:    VSTR     s6,[r5,#0]
        0x000007b4:    ee771ae1    w...    VSUB.F32 s3,s15,s3
        0x000007b8:    edc50a01    ....    VSTR     s1,[r5,#4]
        0x000007bc:    ee352aa2    5..*    VADD.F32 s4,s11,s5
        0x000007c0:    ed861a00    ....    VSTR     s2,[r6,#0]
        0x000007c4:    edc63a01    ...:    VSTR     s7,[r6,#4]
        0x000007c8:    edc91a00    ....    VSTR     s3,[r9,#0]
        0x000007cc:    1c64        d.      ADDS     r4,r4,#1
        0x000007ce:    ed892a01    ...*    VSTR     s4,[r9,#4]
        0x000007d2:    4498        .D      ADD      r8,r8,r3
        0x000007d4:    f1ba0a01    ....    SUBS     r10,r10,#1
        0x000007d8:    f47faf72    ..r.    BNE      0x6c0 ; arm_radix4_butterfly_inverse_f32 + 24
        0x000007dc:    f64f74ff    O..t    MOV      r4,#0xffff
        0x000007e0:    ea040b83    ....    AND      r11,r4,r3,LSL #2
        0x000007e4:    9b01        ..      LDR      r3,[sp,#4]
        0x000007e6:    9300        ..      STR      r3,[sp,#0]
        0x000007e8:    2b04        .+      CMP      r3,#4
        0x000007ea:    d97c        |.      BLS      0x8e6 ; arm_radix4_butterfly_inverse_f32 + 574
        0x000007ec:    4666        fF      MOV      r6,r12
        0x000007ee:    ea4f0c9c    O...    LSR      r12,r12,#2
        0x000007f2:    f04f0800    O...    MOV      r8,#0
        0x000007f6:    46c1        .F      MOV      r9,r8
        0x000007f8:    f1ac0e01    ....    SUB      lr,r12,#1
        0x000007fc:    ea4f0348    O.H.    LSL      r3,r8,#1
        0x00000800:    eb030408    ....    ADD      r4,r3,r8
        0x00000804:    eb0203c3    ....    ADD      r3,r2,r3,LSL #3
        0x00000808:    eb0205c8    ....    ADD      r5,r2,r8,LSL #3
        0x0000080c:    edd33a00    ...:    VLDR     s7,[r3,#0]
        0x00000810:    ed937a01    ...z    VLDR     s14,[r3,#4]
        0x00000814:    eb0203c4    ....    ADD      r3,r2,r4,LSL #3
        0x00000818:    edd56a00    ...j    VLDR     s13,[r5,#0]
        0x0000081c:    edd55a01    ...Z    VLDR     s11,[r5,#4]
        0x00000820:    edd34a00    ...J    VLDR     s9,[r3,#0]
        0x00000824:    ed933a01    ...:    VLDR     s6,[r3,#4]
        0x00000828:    44d8        .D      ADD      r8,r8,r11
        0x0000082a:    464b        KF      MOV      r3,r9
        0x0000082c:    eb03040c    ....    ADD      r4,r3,r12
        0x00000830:    eb04070c    ....    ADD      r7,r4,r12
        0x00000834:    eb070a0c    ....    ADD      r10,r7,r12
        0x00000838:    eb0005c3    ....    ADD      r5,r0,r3,LSL #3
        0x0000083c:    eb0007c7    ....    ADD      r7,r0,r7,LSL #3
        0x00000840:    eb0004c4    ....    ADD      r4,r0,r4,LSL #3
        0x00000844:    eb000aca    ....    ADD      r10,r0,r10,LSL #3
        0x00000848:    ed952a01    ...*    VLDR     s4,[r5,#4]
        0x0000084c:    ed978a01    ....    VLDR     s16,[r7,#4]
        0x00000850:    ed951a00    ....    VLDR     s2,[r5,#0]
        0x00000854:    edd48a00    ....    VLDR     s17,[r4,#0]
        0x00000858:    edd47a01    ...z    VLDR     s15,[r4,#4]
        0x0000085c:    ed979a00    ....    VLDR     s18,[r7,#0]
        0x00000860:    edda1a00    ....    VLDR     s3,[r10,#0]
        0x00000864:    edda0a01    ....    VLDR     s1,[r10,#4]
        0x00000868:    ee325a48    2.HZ    VSUB.F32 s10,s4,s16
        0x0000086c:    ee712a49    q.I*    VSUB.F32 s5,s2,s18
        0x00000870:    ee384ae1    8..J    VSUB.F32 s8,s17,s3
        0x00000874:    ee322a08    2..*    VADD.F32 s4,s4,s16
        0x00000878:    ee378aa0    7...    VADD.F32 s16,s15,s1
        0x0000087c:    ee376ae0    7..j    VSUB.F32 s12,s15,s1
        0x00000880:    ee781aa1    x...    VADD.F32 s3,s17,s3
        0x00000884:    ee311a09    1...    VADD.F32 s2,s2,s18
        0x00000888:    ee758a04    u...    VADD.F32 s17,s10,s8
        0x0000088c:    ee727ac6    r..z    VSUB.F32 s15,s5,s12
        0x00000890:    ee722a86    r..*    VADD.F32 s5,s5,s12
        0x00000894:    ee710a61    q.a.    VSUB.F32 s1,s2,s3
        0x00000898:    ee311a21    1.!.    VADD.F32 s2,s2,s3
        0x0000089c:    ee354a44    5.DJ    VSUB.F32 s8,s10,s8
        0x000008a0:    ee329a48    2.H.    VSUB.F32 s18,s4,s16
        0x000008a4:    ed851a00    ....    VSTR     s2,[r5,#0]
        0x000008a8:    ee321a08    2...    VADD.F32 s2,s4,s16
        0x000008ac:    ee286aa6    (..j    VMUL.F32 s12,s17,s13
        0x000008b0:    ee275aa6    '..Z    VMUL.F32 s10,s15,s13
        0x000008b4:    ee688aa5    h...    VMUL.F32 s17,s17,s11
        0x000008b8:    ed851a01    ....    VSTR     s2,[r5,#4]
        0x000008bc:    ee201aa3     ...    VMUL.F32 s2,s1,s7
        0x000008c0:    ee691a23    i.#.    VMUL.F32 s3,s18,s7
        0x000008c4:    ee222aa4    "..*    VMUL.F32 s4,s5,s9
        0x000008c8:    ee248a24    $.$.    VMUL.F32 s16,s8,s9
        0x000008cc:    ee677aa5    g..z    VMUL.F32 s15,s15,s11
        0x000008d0:    ee299a07    )...    VMUL.F32 s18,s18,s14
        0x000008d4:    ee600a87    `...    VMUL.F32 s1,s1,s14
        0x000008d8:    ee244a03    $..J    VMUL.F32 s8,s8,s6
        0x000008dc:    ee622a83    b..*    VMUL.F32 s5,s5,s6
        0x000008e0:    ee355a68    5.hZ    VSUB.F32 s10,s10,s17
        0x000008e4:    e000        ..      B        0x8e8 ; arm_radix4_butterfly_inverse_f32 + 576
        0x000008e6:    e027        '.      B        0x938 ; arm_radix4_butterfly_inverse_f32 + 656
        0x000008e8:    ee366a27    6.'j    VADD.F32 s12,s12,s15
        0x000008ec:    ee717a49    q.Iz    VSUB.F32 s15,s2,s18
        0x000008f0:    ee311aa0    1...    VADD.F32 s2,s3,s1
        0x000008f4:    ee720a44    r.D.    VSUB.F32 s1,s4,s8
        0x000008f8:    edc47a00    ...z    VSTR     s15,[r4,#0]
        0x000008fc:    ed841a01    ....    VSTR     s2,[r4,#4]
        0x00000900:    ee781a22    x.".    VADD.F32 s3,s16,s5
        0x00000904:    ed875a00    ...Z    VSTR     s10,[r7,#0]
        0x00000908:    ed876a01    ...j    VSTR     s12,[r7,#4]
        0x0000090c:    edca0a00    ....    VSTR     s1,[r10,#0]
        0x00000910:    4433        3D      ADD      r3,r3,r6
        0x00000912:    edca1a01    ....    VSTR     s3,[r10,#4]
        0x00000916:    428b        .B      CMP      r3,r1
        0x00000918:    d388        ..      BCC      0x82c ; arm_radix4_butterfly_inverse_f32 + 388
        0x0000091a:    f1090901    ....    ADD      r9,r9,#1
        0x0000091e:    45f1        .E      CMP      r9,lr
        0x00000920:    f67faf6c    ..l.    BLS      0x7fc ; arm_radix4_butterfly_inverse_f32 + 340
        0x00000924:    f64f73ff    O..s    MOV      r3,#0xffff
        0x00000928:    ea030b8b    ....    AND      r11,r3,r11,LSL #2
        0x0000092c:    9b00        ..      LDR      r3,[sp,#0]
        0x0000092e:    089b        ..      LSRS     r3,r3,#2
        0x00000930:    9300        ..      STR      r3,[sp,#0]
        0x00000932:    2b04        .+      CMP      r3,#4
        0x00000934:    f63faf5a    ?.Z.    BHI      0x7ec ; arm_radix4_butterfly_inverse_f32 + 324
        0x00000938:    f8dd1004    ....    LDR.W    r1,[sp,#4]
        0x0000093c:    ed903a00    ...:    VLDR     s6,[r0,#0]
        0x00000940:    edd04a04    ...J    VLDR     s9,[r0,#0x10]
        0x00000944:    edd02a03    ...*    VLDR     s5,[r0,#0xc]
        0x00000948:    ed901a07    ....    VLDR     s2,[r0,#0x1c]
        0x0000094c:    ed904a02    ...J    VLDR     s8,[r0,#8]
        0x00000950:    edd01a06    ....    VLDR     s3,[r0,#0x18]
        0x00000954:    edd03a01    ...:    VLDR     s7,[r0,#4]
        0x00000958:    edd00a05    ....    VLDR     s1,[r0,#0x14]
        0x0000095c:    ee332a24    3.$*    VADD.F32 s4,s6,s9
        0x00000960:    ee725a81    r..Z    VADD.F32 s11,s5,s2
        0x00000964:    ee333a64    3.d:    VSUB.F32 s6,s6,s9
        0x00000968:    ee345a21    4.!Z    VADD.F32 s10,s8,s3
        0x0000096c:    ee734aa0    s..J    VADD.F32 s9,s7,s1
        0x00000970:    ee733ae0    s..:    VSUB.F32 s7,s7,s1
        0x00000974:    ee321ac1    2...    VSUB.F32 s2,s5,s2
        0x00000978:    ee740a61    t.a.    VSUB.F32 s1,s8,s3
        0x0000097c:    ee324a45    2.EJ    VSUB.F32 s8,s4,s10
        0x00000980:    ee722a05    r..*    VADD.F32 s5,s4,s10
        0x00000984:    ee741aa5    t...    VADD.F32 s3,s9,s11
        0x00000988:    ee345ae5    4..Z    VSUB.F32 s10,s9,s11
        0x0000098c:    ee734a41    s.AJ    VSUB.F32 s9,s6,s2
        0x00000990:    ee332aa0    3..*    VADD.F32 s4,s7,s1
        0x00000994:    ee331a01    3...    VADD.F32 s2,s6,s2
        0x00000998:    ee333ae0    3..:    VSUB.F32 s6,s7,s1
        0x0000099c:    ee625a80    b..Z    VMUL.F32 s11,s5,s0
        0x000009a0:    ee610a80    a...    VMUL.F32 s1,s3,s0
        0x000009a4:    ee643a00    d..:    VMUL.F32 s7,s8,s0
        0x000009a8:    ee652a00    e..*    VMUL.F32 s5,s10,s0
        0x000009ac:    edc05a00    ...Z    VSTR     s11,[r0,#0]
        0x000009b0:    ee641a80    d...    VMUL.F32 s3,s9,s0
        0x000009b4:    edc00a01    ....    VSTR     s1,[r0,#4]
        0x000009b8:    ee222a00    "..*    VMUL.F32 s4,s4,s0
        0x000009bc:    edc03a02    ...:    VSTR     s7,[r0,#8]
        0x000009c0:    ee214a00    !..J    VMUL.F32 s8,s2,s0
        0x000009c4:    edc02a03    ...*    VSTR     s5,[r0,#0xc]
        0x000009c8:    ee231a00    #...    VMUL.F32 s2,s6,s0
        0x000009cc:    edc01a04    ....    VSTR     s3,[r0,#0x10]
        0x000009d0:    ed802a05    ...*    VSTR     s4,[r0,#0x14]
        0x000009d4:    ed804a06    ...J    VSTR     s8,[r0,#0x18]
        0x000009d8:    ed801a07    ....    VSTR     s2,[r0,#0x1c]
        0x000009dc:    3020         0      ADDS     r0,r0,#0x20
        0x000009de:    1e49        I.      SUBS     r1,r1,#1
        0x000009e0:    d1ac        ..      BNE      0x93c ; arm_radix4_butterfly_inverse_f32 + 660
        0x000009e2:    b002        ..      ADD      sp,sp,#8
        0x000009e4:    ecbd8b04    ....    VPOP     {d8-d9}
        0x000009e8:    e8bd8ff0    ....    POP      {r4-r11,pc}
    arm_cfft_radix4_f32
        0x000009ec:    b570        p.      PUSH     {r4-r6,lr}
        0x000009ee:    4604        .F      MOV      r4,r0
        0x000009f0:    460d        .F      MOV      r5,r1
        0x000009f2:    7880        .x      LDRB     r0,[r0,#2]
        0x000009f4:    8821        !.      LDRH     r1,[r4,#0]
        0x000009f6:    89a3        ..      LDRH     r3,[r4,#0xc]
        0x000009f8:    6862        bh      LDR      r2,[r4,#4]
        0x000009fa:    2801        .(      CMP      r0,#1
        0x000009fc:    d00e        ..      BEQ      0xa1c ; arm_cfft_radix4_f32 + 48
        0x000009fe:    4628        (F      MOV      r0,r5
        0x00000a00:    f7fffcc2    ....    BL       arm_radix4_butterfly_f32 ; 0x388
        0x00000a04:    78e0        .x      LDRB     r0,[r4,#3]
        0x00000a06:    2801        .(      CMP      r0,#1
        0x00000a08:    bf18        ..      IT       NE
        0x00000a0a:    bd70        p.      POPNE    {r4-r6,pc}
        0x00000a0c:    89e2        ..      LDRH     r2,[r4,#0xe]
        0x00000a0e:    8821        !.      LDRH     r1,[r4,#0]
        0x00000a10:    4628        (F      MOV      r0,r5
        0x00000a12:    68a3        .h      LDR      r3,[r4,#8]
        0x00000a14:    e8bd4070    ..p@    POP      {r4-r6,lr}
        0x00000a18:    f000b8d2    ....    B.W      arm_bitreversal_f32 ; 0xbc0
        0x00000a1c:    ed940a04    ....    VLDR     s0,[r4,#0x10]
        0x00000a20:    4628        (F      MOV      r0,r5
        0x00000a22:    f7fffe41    ..A.    BL       arm_radix4_butterfly_inverse_f32 ; 0x6a8
        0x00000a26:    e7ed        ..      B        0xa04 ; arm_cfft_radix4_f32 + 24
    .text
    arm_cfft_radix4_init_f32
        0x00000a28:    b410        ..      PUSH     {r4}
        0x00000a2a:    8001        ..      STRH     r1,[r0,#0]
        0x00000a2c:    4c23        #L      LDR      r4,[pc,#140] ; [0xabc] = 0x21a8
        0x00000a2e:    6044        D`      STR      r4,[r0,#4]
        0x00000a30:    7082        .p      STRB     r2,[r0,#2]
        0x00000a32:    f04f0c00    O...    MOV      r12,#0
        0x00000a36:    70c3        .p      STRB     r3,[r0,#3]
        0x00000a38:    f5b17f80    ....    CMP      r1,#0x100
        0x00000a3c:    d020         .      BEQ      0xa80 ; arm_cfft_radix4_init_f32 + 88
        0x00000a3e:    dc04        ..      BGT      0xa4a ; arm_cfft_radix4_init_f32 + 34
        0x00000a40:    2910        .)      CMP      r1,#0x10
        0x00000a42:    d02f        /.      BEQ      0xaa4 ; arm_cfft_radix4_init_f32 + 124
        0x00000a44:    2940        @)      CMP      r1,#0x40
        0x00000a46:    d023        #.      BEQ      0xa90 ; arm_cfft_radix4_init_f32 + 104
        0x00000a48:    e005        ..      B        0xa56 ; arm_cfft_radix4_init_f32 + 46
        0x00000a4a:    f5b16f80    ...o    CMP      r1,#0x400
        0x00000a4e:    d00f        ..      BEQ      0xa70 ; arm_cfft_radix4_init_f32 + 72
        0x00000a50:    f5b15f80    ..._    CMP      r1,#0x1000
        0x00000a54:    d004        ..      BEQ      0xa60 ; arm_cfft_radix4_init_f32 + 56
        0x00000a56:    f04f3cff    O..<    MOV      r12,#0xffffffff
        0x00000a5a:    bc10        ..      POP      {r4}
        0x00000a5c:    4660        `F      MOV      r0,r12
        0x00000a5e:    4770        pG      BX       lr
        0x00000a60:    2101        .!      MOVS     r1,#1
        0x00000a62:    8181        ..      STRH     r1,[r0,#0xc]
        0x00000a64:    81c1        ..      STRH     r1,[r0,#0xe]
        0x00000a66:    4916        .I      LDR      r1,[pc,#88] ; [0xac0] = 0x19a8
        0x00000a68:    ed9f0a16    ....    VLDR     s0,[pc,#88] ; [0xac4] = 0x39800000
        0x00000a6c:    6081        .`      STR      r1,[r0,#8]
        0x00000a6e:    e016        ..      B        0xa9e ; arm_cfft_radix4_init_f32 + 118
        0x00000a70:    2104        .!      MOVS     r1,#4
        0x00000a72:    8181        ..      STRH     r1,[r0,#0xc]
        0x00000a74:    81c1        ..      STRH     r1,[r0,#0xe]
        0x00000a76:    4914        .I      LDR      r1,[pc,#80] ; [0xac8] = 0x19ae
        0x00000a78:    ed9f0a14    ....    VLDR     s0,[pc,#80] ; [0xacc] = 0x3a800000
        0x00000a7c:    6081        .`      STR      r1,[r0,#8]
        0x00000a7e:    e00e        ..      B        0xa9e ; arm_cfft_radix4_init_f32 + 118
        0x00000a80:    2110        .!      MOVS     r1,#0x10
        0x00000a82:    8181        ..      STRH     r1,[r0,#0xc]
        0x00000a84:    81c1        ..      STRH     r1,[r0,#0xe]
        0x00000a86:    4912        .I      LDR      r1,[pc,#72] ; [0xad0] = 0x19c6
        0x00000a88:    ed9f0a12    ....    VLDR     s0,[pc,#72] ; [0xad4] = 0x3b800000
        0x00000a8c:    6081        .`      STR      r1,[r0,#8]
        0x00000a8e:    e006        ..      B        0xa9e ; arm_cfft_radix4_init_f32 + 118
        0x00000a90:    2140        @!      MOVS     r1,#0x40
        0x00000a92:    8181        ..      STRH     r1,[r0,#0xc]
        0x00000a94:    81c1        ..      STRH     r1,[r0,#0xe]
        0x00000a96:    4910        .I      LDR      r1,[pc,#64] ; [0xad8] = 0x1a26
        0x00000a98:    ed9f0a10    ....    VLDR     s0,[pc,#64] ; [0xadc] = 0x3c800000
        0x00000a9c:    6081        .`      STR      r1,[r0,#8]
        0x00000a9e:    ed800a04    ....    VSTR     s0,[r0,#0x10]
        0x00000aa2:    e7da        ..      B        0xa5a ; arm_cfft_radix4_init_f32 + 50
        0x00000aa4:    f44f7180    O..q    MOV      r1,#0x100
        0x00000aa8:    8181        ..      STRH     r1,[r0,#0xc]
        0x00000aaa:    81c1        ..      STRH     r1,[r0,#0xe]
        0x00000aac:    490c        .I      LDR      r1,[pc,#48] ; [0xae0] = 0x1ba6
        0x00000aae:    ed9f0a0d    ....    VLDR     s0,[pc,#52] ; [0xae4] = 0x3d800000
        0x00000ab2:    6081        .`      STR      r1,[r0,#8]
        0x00000ab4:    ed800a04    ....    VSTR     s0,[r0,#0x10]
        0x00000ab8:    e7cf        ..      B        0xa5a ; arm_cfft_radix4_init_f32 + 50
    $d
        0x00000aba:    0000        ..      DCW    0
        0x00000abc:    000021a8    .!..    DCD    8616
        0x00000ac0:    000019a8    ....    DCD    6568
        0x00000ac4:    39800000    ...9    DCD    964689920
        0x00000ac8:    000019ae    ....    DCD    6574
        0x00000acc:    3a800000    ...:    DCD    981467136
        0x00000ad0:    000019c6    ....    DCD    6598
        0x00000ad4:    3b800000    ...;    DCD    998244352
        0x00000ad8:    00001a26    &...    DCD    6694
        0x00000adc:    3c800000    ...<    DCD    1015021568
        0x00000ae0:    00001ba6    ....    DCD    7078
        0x00000ae4:    3d800000    ...=    DCD    1031798784
    $t
    .text
    arm_max_f32
        0x00000ae8:    b470        p.      PUSH     {r4-r6}
        0x00000aea:    f04f0c00    O...    MOV      r12,#0
        0x00000aee:    ecb00a01    ....    VLDM     r0!,{s0}
        0x00000af2:    1e4e        N.      SUBS     r6,r1,#1
        0x00000af4:    4664        dF      MOV      r4,r12
        0x00000af6:    08b5        ..      LSRS     r5,r6,#2
        0x00000af8:    d031        1.      BEQ      0xb5e ; arm_max_f32 + 118
        0x00000afa:    bf00        ..      NOP      
        0x00000afc:    edd00a00    ....    VLDR     s1,[r0,#0]
        0x00000b00:    ed901a01    ....    VLDR     s2,[r0,#4]
        0x00000b04:    3008        .0      ADDS     r0,r0,#8
        0x00000b06:    eeb40ae0    ....    VCMPE.F32 s0,s1
        0x00000b0a:    eef1fa10    ....    VMRS     APSR_nzcv,FPSCR
        0x00000b0e:    bf3c        <.      ITT      CC
        0x00000b10:    eeb00a60    ..`.    VMOVCC.F32 s0,s1
        0x00000b14:    f10c0401    ....    ADDCC    r4,r12,#1
        0x00000b18:    ecf00a01    ....    VLDM     r0!,{s1}
        0x00000b1c:    eeb40ac1    ....    VCMPE.F32 s0,s2
        0x00000b20:    eef1fa10    ....    VMRS     APSR_nzcv,FPSCR
        0x00000b24:    bf3c        <.      ITT      CC
        0x00000b26:    eeb00a41    ..A.    VMOVCC.F32 s0,s2
        0x00000b2a:    f10c0402    ....    ADDCC    r4,r12,#2
        0x00000b2e:    ecb01a01    ....    VLDM     r0!,{s2}
        0x00000b32:    eeb40ae0    ....    VCMPE.F32 s0,s1
        0x00000b36:    eef1fa10    ....    VMRS     APSR_nzcv,FPSCR
        0x00000b3a:    bf3c        <.      ITT      CC
        0x00000b3c:    eeb00a60    ..`.    VMOVCC.F32 s0,s1
        0x00000b40:    f10c0403    ....    ADDCC    r4,r12,#3
        0x00000b44:    eeb40ac1    ....    VCMPE.F32 s0,s2
        0x00000b48:    eef1fa10    ....    VMRS     APSR_nzcv,FPSCR
        0x00000b4c:    bf3c        <.      ITT      CC
        0x00000b4e:    eeb00a41    ..A.    VMOVCC.F32 s0,s2
        0x00000b52:    f10c0404    ....    ADDCC    r4,r12,#4
        0x00000b56:    1e6d        m.      SUBS     r5,r5,#1
        0x00000b58:    f10c0c04    ....    ADD      r12,r12,#4
        0x00000b5c:    d1ce        ..      BNE      0xafc ; arm_max_f32 + 20
        0x00000b5e:    f0060c03    ....    AND      r12,r6,#3
        0x00000b62:    ea5f060c    _...    MOVS     r6,r12
        0x00000b66:    d017        ..      BEQ      0xb98 ; arm_max_f32 + 176
        0x00000b68:    f1b64f00    ...O    CMP      r6,#0x80000000
        0x00000b6c:    d219        ..      BCS      0xba2 ; arm_max_f32 + 186
        0x00000b6e:    2e00        ..      CMP      r6,#0
        0x00000b70:    bfc8        ..      IT       GT
        0x00000b72:    2500        .%      MOVGT    r5,#0
        0x00000b74:    dd10        ..      BLE      0xb98 ; arm_max_f32 + 176
        0x00000b76:    bf00        ..      NOP      
        0x00000b78:    edd00a00    ....    VLDR     s1,[r0,#0]
        0x00000b7c:    eef40ac0    ....    VCMPE.F32 s1,s0
        0x00000b80:    eef1fa10    ....    VMRS     APSR_nzcv,FPSCR
        0x00000b84:    dd04        ..      BLE      0xb90 ; arm_max_f32 + 168
        0x00000b86:    194c        L.      ADDS     r4,r1,r5
        0x00000b88:    eeb00a60    ..`.    VMOV.F32 s0,s1
        0x00000b8c:    eba4040c    ....    SUB      r4,r4,r12
        0x00000b90:    1d00        ..      ADDS     r0,r0,#4
        0x00000b92:    1c6d        m.      ADDS     r5,r5,#1
        0x00000b94:    1e76        v.      SUBS     r6,r6,#1
        0x00000b96:    d1ef        ..      BNE      0xb78 ; arm_max_f32 + 144
        0x00000b98:    ed820a00    ....    VSTR     s0,[r2,#0]
        0x00000b9c:    601c        .`      STR      r4,[r3,#0]
        0x00000b9e:    bc70        p.      POP      {r4-r6}
        0x00000ba0:    4770        pG      BX       lr
        0x00000ba2:    ecf00a01    ....    VLDM     r0!,{s1}
        0x00000ba6:    eeb40ae0    ....    VCMPE.F32 s0,s1
        0x00000baa:    eef1fa10    ....    VMRS     APSR_nzcv,FPSCR
        0x00000bae:    bf3c        <.      ITT      CC
        0x00000bb0:    eeb00a60    ..`.    VMOVCC.F32 s0,s1
        0x00000bb4:    eba1040c    ....    SUBCC    r4,r1,r12
        0x00000bb8:    f1bc0c01    ....    SUBS     r12,r12,#1
        0x00000bbc:    d1f1        ..      BNE      0xba2 ; arm_max_f32 + 186
        0x00000bbe:    e7eb        ..      B        0xb98 ; arm_max_f32 + 176
    .text
    arm_bitreversal_f32
        0x00000bc0:    e92d01f0    -...    PUSH     {r4-r8}
        0x00000bc4:    084e        N.      LSRS     r6,r1,#1
        0x00000bc6:    2401        .$      MOVS     r4,#1
        0x00000bc8:    f04f0c00    O...    MOV      r12,#0
        0x00000bcc:    eb040751    ..Q.    ADD      r7,r4,r1,LSR #1
        0x00000bd0:    4661        aF      MOV      r1,r12
        0x00000bd2:    f1a60802    ....    SUB      r8,r6,#2
        0x00000bd6:    e02c        ,.      B        0xc32 ; arm_bitreversal_f32 + 114
        0x00000bd8:    4561        aE      CMP      r1,r12
        0x00000bda:    d22a        *.      BCS      0xc32 ; arm_bitreversal_f32 + 114
        0x00000bdc:    eb0005cc    ....    ADD      r5,r0,r12,LSL #3
        0x00000be0:    eb0004c1    ....    ADD      r4,r0,r1,LSL #3
        0x00000be4:    edd50a00    ....    VLDR     s1,[r5,#0]
        0x00000be8:    ed940a00    ....    VLDR     s0,[r4,#0]
        0x00000bec:    edc40a00    ....    VSTR     s1,[r4,#0]
        0x00000bf0:    ed850a00    ....    VSTR     s0,[r5,#0]
        0x00000bf4:    edd50a01    ....    VLDR     s1,[r5,#4]
        0x00000bf8:    ed940a01    ....    VLDR     s0,[r4,#4]
        0x00000bfc:    edc40a01    ....    VSTR     s1,[r4,#4]
        0x00000c00:    ed850a01    ....    VSTR     s0,[r5,#4]
        0x00000c04:    19cc        ..      ADDS     r4,r1,r7
        0x00000c06:    eb0005c4    ....    ADD      r5,r0,r4,LSL #3
        0x00000c0a:    eb0c0407    ....    ADD      r4,r12,r7
        0x00000c0e:    eb0004c4    ....    ADD      r4,r0,r4,LSL #3
        0x00000c12:    ed950a00    ....    VLDR     s0,[r5,#0]
        0x00000c16:    edd40a00    ....    VLDR     s1,[r4,#0]
        0x00000c1a:    edc50a00    ....    VSTR     s1,[r5,#0]
        0x00000c1e:    ed840a00    ....    VSTR     s0,[r4,#0]
        0x00000c22:    edd40a01    ....    VLDR     s1,[r4,#4]
        0x00000c26:    ed950a01    ....    VLDR     s0,[r5,#4]
        0x00000c2a:    edc50a01    ....    VSTR     s1,[r5,#4]
        0x00000c2e:    ed840a01    ....    VSTR     s0,[r4,#4]
        0x00000c32:    eb0004c1    ....    ADD      r4,r0,r1,LSL #3
        0x00000c36:    44b4        .D      ADD      r12,r12,r6
        0x00000c38:    eb000ccc    ....    ADD      r12,r0,r12,LSL #3
        0x00000c3c:    ed940a02    ....    VLDR     s0,[r4,#8]
        0x00000c40:    eddc0a00    ....    VLDR     s1,[r12,#0]
        0x00000c44:    1c89        ..      ADDS     r1,r1,#2
        0x00000c46:    edc40a02    ....    VSTR     s1,[r4,#8]
        0x00000c4a:    ed8c0a00    ....    VSTR     s0,[r12,#0]
        0x00000c4e:    eddc0a01    ....    VLDR     s1,[r12,#4]
        0x00000c52:    ed940a03    ....    VLDR     s0,[r4,#0xc]
        0x00000c56:    edc40a03    ....    VSTR     s1,[r4,#0xc]
        0x00000c5a:    ed8c0a01    ....    VSTR     s0,[r12,#4]
        0x00000c5e:    f8b3c000    ....    LDRH     r12,[r3,#0]
        0x00000c62:    b289        ..      UXTH     r1,r1
        0x00000c64:    eb030342    ..B.    ADD      r3,r3,r2,LSL #1
        0x00000c68:    4541        AE      CMP      r1,r8
        0x00000c6a:    d9b5        ..      BLS      0xbd8 ; arm_bitreversal_f32 + 24
        0x00000c6c:    e8bd01f0    ....    POP      {r4-r8}
        0x00000c70:    4770        pG      BX       lr
    arm_bitreversal_q31
        0x00000c72:    e92d07f0    -...    PUSH     {r4-r10}
        0x00000c76:    084d        M.      LSRS     r5,r1,#1
        0x00000c78:    2401        .$      MOVS     r4,#1
        0x00000c7a:    f04f0c00    O...    MOV      r12,#0
        0x00000c7e:    eb040651    ..Q.    ADD      r6,r4,r1,LSR #1
        0x00000c82:    4661        aF      MOV      r1,r12
        0x00000c84:    f1a50802    ....    SUB      r8,r5,#2
        0x00000c88:    e02b        +.      B        0xce2 ; arm_bitreversal_q31 + 112
        0x00000c8a:    4561        aE      CMP      r1,r12
        0x00000c8c:    d229        ).      BCS      0xce2 ; arm_bitreversal_q31 + 112
        0x00000c8e:    f8504031    P.1@    LDR      r4,[r0,r1,LSL #3]
        0x00000c92:    f850703c    P.<p    LDR      r7,[r0,r12,LSL #3]
        0x00000c96:    f8407031    @.1p    STR      r7,[r0,r1,LSL #3]
        0x00000c9a:    f840403c    @.<@    STR      r4,[r0,r12,LSL #3]
        0x00000c9e:    eb0009c1    ....    ADD      r9,r0,r1,LSL #3
        0x00000ca2:    eb0004cc    ....    ADD      r4,r0,r12,LSL #3
        0x00000ca6:    f8d97004    ...p    LDR      r7,[r9,#4]
        0x00000caa:    f8d4a004    ....    LDR      r10,[r4,#4]
        0x00000cae:    f8c9a004    ....    STR      r10,[r9,#4]
        0x00000cb2:    6067        g`      STR      r7,[r4,#4]
        0x00000cb4:    198c        ..      ADDS     r4,r1,r6
        0x00000cb6:    eb0c0706    ....    ADD      r7,r12,r6
        0x00000cba:    f8509034    P.4.    LDR      r9,[r0,r4,LSL #3]
        0x00000cbe:    f850a037    P.7.    LDR      r10,[r0,r7,LSL #3]
        0x00000cc2:    f840a034    @.4.    STR      r10,[r0,r4,LSL #3]
        0x00000cc6:    f8409037    @.7.    STR      r9,[r0,r7,LSL #3]
        0x00000cca:    eb0004c4    ....    ADD      r4,r0,r4,LSL #3
        0x00000cce:    eb0007c7    ....    ADD      r7,r0,r7,LSL #3
        0x00000cd2:    f8d49004    ....    LDR      r9,[r4,#4]
        0x00000cd6:    f8d7a004    ....    LDR      r10,[r7,#4]
        0x00000cda:    f8c4a004    ....    STR      r10,[r4,#4]
        0x00000cde:    f8c79004    ....    STR      r9,[r7,#4]
        0x00000ce2:    eb0004c1    ....    ADD      r4,r0,r1,LSL #3
        0x00000ce6:    44ac        .D      ADD      r12,r12,r5
        0x00000ce8:    68a7        .h      LDR      r7,[r4,#8]
        0x00000cea:    f850903c    P.<.    LDR      r9,[r0,r12,LSL #3]
        0x00000cee:    f8c49008    ....    STR      r9,[r4,#8]
        0x00000cf2:    f840703c    @.<p    STR      r7,[r0,r12,LSL #3]
        0x00000cf6:    eb000ccc    ....    ADD      r12,r0,r12,LSL #3
        0x00000cfa:    68e7        .h      LDR      r7,[r4,#0xc]
        0x00000cfc:    f8dc9004    ....    LDR      r9,[r12,#4]
        0x00000d00:    f8c4900c    ....    STR      r9,[r4,#0xc]
        0x00000d04:    f8cc7004    ...p    STR      r7,[r12,#4]
        0x00000d08:    f8b3c000    ....    LDRH     r12,[r3,#0]
        0x00000d0c:    1c89        ..      ADDS     r1,r1,#2
        0x00000d0e:    eb030342    ..B.    ADD      r3,r3,r2,LSL #1
        0x00000d12:    4541        AE      CMP      r1,r8
        0x00000d14:    d9b9        ..      BLS      0xc8a ; arm_bitreversal_q31 + 24
        0x00000d16:    e8bd07f0    ....    POP      {r4-r10}
        0x00000d1a:    4770        pG      BX       lr
    arm_bitreversal_q15
        0x00000d1c:    e92d0ff0    -...    PUSH     {r4-r11}
        0x00000d20:    2401        .$      MOVS     r4,#1
        0x00000d22:    084f        O.      LSRS     r7,r1,#1
        0x00000d24:    eb040851    ..Q.    ADD      r8,r4,r1,LSR #1
        0x00000d28:    f04f0c00    O...    MOV      r12,#0
        0x00000d2c:    087c        |.      LSRS     r4,r7,#1
        0x00000d2e:    bf04        ..      ITT      EQ
        0x00000d30:    e8bd0ff0    ....    POPEQ    {r4-r11}
        0x00000d34:    4770        pG      BXEQ     lr
        0x00000d36:    4601        .F      MOV      r1,r0
        0x00000d38:    eb000588    ....    ADD      r5,r0,r8,LSL #2
        0x00000d3c:    2600        .&      MOVS     r6,#0
        0x00000d3e:    e014        ..      B        0xd6a ; arm_bitreversal_q15 + 78
        0x00000d40:    ebbc0f46    ..F.    CMP      r12,r6,LSL #1
        0x00000d44:    d911        ..      BLS      0xd6a ; arm_bitreversal_q15 + 78
        0x00000d46:    f850a02c    P.,.    LDR      r10,[r0,r12,LSL #2]
        0x00000d4a:    f8d19000    ....    LDR      r9,[r1,#0]
        0x00000d4e:    f8c1a000    ....    STR      r10,[r1,#0]
        0x00000d52:    f840902c    @.,.    STR      r9,[r0,r12,LSL #2]
        0x00000d56:    eb0c0908    ....    ADD      r9,r12,r8
        0x00000d5a:    f8d5a000    ....    LDR      r10,[r5,#0]
        0x00000d5e:    f850b029    P.).    LDR      r11,[r0,r9,LSL #2]
        0x00000d62:    f8c5b000    ....    STR      r11,[r5,#0]
        0x00000d66:    f840a029    @.).    STR      r10,[r0,r9,LSL #2]
        0x00000d6a:    44bc        .D      ADD      r12,r12,r7
        0x00000d6c:    f8519f04    Q...    LDR      r9,[r1,#4]!
        0x00000d70:    f850a02c    P.,.    LDR      r10,[r0,r12,LSL #2]
        0x00000d74:    f841ab04    A...    STR      r10,[r1],#4
        0x00000d78:    f840902c    @.,.    STR      r9,[r0,r12,LSL #2]
        0x00000d7c:    f8b3c000    ....    LDRH     r12,[r3,#0]
        0x00000d80:    eb030342    ..B.    ADD      r3,r3,r2,LSL #1
        0x00000d84:    1e64        d.      SUBS     r4,r4,#1
        0x00000d86:    f1050508    ....    ADD      r5,r5,#8
        0x00000d8a:    f1060601    ....    ADD      r6,r6,#1
        0x00000d8e:    d1d7        ..      BNE      0xd40 ; arm_bitreversal_q15 + 36
        0x00000d90:    e8bd0ff0    ....    POP      {r4-r11}
        0x00000d94:    4770        pG      BX       lr
    .text
    __aeabi_uldivmod
        0x00000d96:    e92d5ff0    -.._    PUSH     {r4-r12,lr}
        0x00000d9a:    4605        .F      MOV      r5,r0
        0x00000d9c:    2000        .       MOVS     r0,#0
        0x00000d9e:    4692        .F      MOV      r10,r2
        0x00000da0:    469b        .F      MOV      r11,r3
        0x00000da2:    4688        .F      MOV      r8,r1
        0x00000da4:    4606        .F      MOV      r6,r0
        0x00000da6:    4681        .F      MOV      r9,r0
        0x00000da8:    2440        @$      MOVS     r4,#0x40
        0x00000daa:    e01b        ..      B        0xde4 ; __aeabi_uldivmod + 78
        0x00000dac:    4628        (F      MOV      r0,r5
        0x00000dae:    4641        AF      MOV      r1,r8
        0x00000db0:    4647        GF      MOV      r7,r8
        0x00000db2:    4622        "F      MOV      r2,r4
        0x00000db4:    f000f841    ..A.    BL       __aeabi_llsr ; 0xe3a
        0x00000db8:    4653        SF      MOV      r3,r10
        0x00000dba:    465a        ZF      MOV      r2,r11
        0x00000dbc:    1ac0        ..      SUBS     r0,r0,r3
        0x00000dbe:    4191        .A      SBCS     r1,r1,r2
        0x00000dc0:    d310        ..      BCC      0xde4 ; __aeabi_uldivmod + 78
        0x00000dc2:    4611        .F      MOV      r1,r2
        0x00000dc4:    4618        .F      MOV      r0,r3
        0x00000dc6:    4622        "F      MOV      r2,r4
        0x00000dc8:    f000f828    ..(.    BL       __aeabi_llsl ; 0xe1c
        0x00000dcc:    1a2d        -.      SUBS     r5,r5,r0
        0x00000dce:    eb670801    g...    SBC      r8,r7,r1
        0x00000dd2:    464f        OF      MOV      r7,r9
        0x00000dd4:    4622        "F      MOV      r2,r4
        0x00000dd6:    2001        .       MOVS     r0,#1
        0x00000dd8:    2100        .!      MOVS     r1,#0
        0x00000dda:    f000f81f    ....    BL       __aeabi_llsl ; 0xe1c
        0x00000dde:    eb170900    ....    ADDS     r9,r7,r0
        0x00000de2:    414e        NA      ADCS     r6,r6,r1
        0x00000de4:    1e20         .      SUBS     r0,r4,#0
        0x00000de6:    f1a40401    ....    SUB      r4,r4,#1
        0x00000dea:    dcdf        ..      BGT      0xdac ; __aeabi_uldivmod + 22
        0x00000dec:    4648        HF      MOV      r0,r9
        0x00000dee:    4631        1F      MOV      r1,r6
        0x00000df0:    462a        *F      MOV      r2,r5
        0x00000df2:    4643        CF      MOV      r3,r8
        0x00000df4:    e8bd9ff0    ....    POP      {r4-r12,pc}
    .text
    __scatterload
    __scatterload_rt2
        0x00000df8:    4c06        .L      LDR      r4,[pc,#24] ; [0xe14] = 0xa1a8
        0x00000dfa:    4d07        .M      LDR      r5,[pc,#28] ; [0xe18] = 0xa1c8
        0x00000dfc:    e006        ..      B        0xe0c ; __scatterload + 20
        0x00000dfe:    68e0        .h      LDR      r0,[r4,#0xc]
        0x00000e00:    f0400301    @...    ORR      r3,r0,#1
        0x00000e04:    e8940007    ....    LDM      r4,{r0-r2}
        0x00000e08:    4798        .G      BLX      r3
        0x00000e0a:    3410        .4      ADDS     r4,r4,#0x10
        0x00000e0c:    42ac        .B      CMP      r4,r5
        0x00000e0e:    d3f6        ..      BCC      0xdfe ; __scatterload + 6
        0x00000e10:    f7fff9f4    ....    BL       __main_after_scatterload ; 0x1fc
    $d
        0x00000e14:    0000a1a8    ....    DCD    41384
        0x00000e18:    0000a1c8    ....    DCD    41416
    $t
    .text
    __aeabi_llsl
    _ll_shift_l
        0x00000e1c:    2a20         *      CMP      r2,#0x20
        0x00000e1e:    db04        ..      BLT      0xe2a ; __aeabi_llsl + 14
        0x00000e20:    3a20         :      SUBS     r2,r2,#0x20
        0x00000e22:    fa00f102    ....    LSL      r1,r0,r2
        0x00000e26:    2000        .       MOVS     r0,#0
        0x00000e28:    4770        pG      BX       lr
        0x00000e2a:    4091        .@      LSLS     r1,r1,r2
        0x00000e2c:    f1c20320    .. .    RSB      r3,r2,#0x20
        0x00000e30:    fa20f303     ...    LSR      r3,r0,r3
        0x00000e34:    4319        .C      ORRS     r1,r1,r3
        0x00000e36:    4090        .@      LSLS     r0,r0,r2
        0x00000e38:    4770        pG      BX       lr
    .text
    __aeabi_llsr
    _ll_ushift_r
        0x00000e3a:    2a20         *      CMP      r2,#0x20
        0x00000e3c:    db04        ..      BLT      0xe48 ; __aeabi_llsr + 14
        0x00000e3e:    3a20         :      SUBS     r2,r2,#0x20
        0x00000e40:    fa21f002    !...    LSR      r0,r1,r2
        0x00000e44:    2100        .!      MOVS     r1,#0
        0x00000e46:    4770        pG      BX       lr
        0x00000e48:    fa21f302    !...    LSR      r3,r1,r2
        0x00000e4c:    40d0        .@      LSRS     r0,r0,r2
        0x00000e4e:    f1c20220    .. .    RSB      r2,r2,#0x20
        0x00000e52:    4091        .@      LSLS     r1,r1,r2
        0x00000e54:    4308        .C      ORRS     r0,r0,r1
        0x00000e56:    4619        .F      MOV      r1,r3
        0x00000e58:    4770        pG      BX       lr
    i.CLK_DisablePLL
    CLK_DisablePLL
        0x00000e5a:    f04f4080    O..@    MOV      r0,#0x40000000
        0x00000e5e:    f8d01240    ..@.    LDR      r1,[r0,#0x240]
        0x00000e62:    f4413180    A..1    ORR      r1,r1,#0x10000
        0x00000e66:    f8c01240    ..@.    STR      r1,[r0,#0x240]
        0x00000e6a:    4770        pG      BX       lr
    i.CLK_EnableModuleClock
    CLK_EnableModuleClock
        0x00000e6c:    f000021f    ....    AND      r2,r0,#0x1f
        0x00000e70:    2101        .!      MOVS     r1,#1
        0x00000e72:    4091        .@      LSLS     r1,r1,r2
        0x00000e74:    4a03        .J      LDR      r2,[pc,#12] ; [0xe84] = 0x40000204
        0x00000e76:    0f80        ..      LSRS     r0,r0,#30
        0x00000e78:    eb020080    ....    ADD      r0,r2,r0,LSL #2
        0x00000e7c:    6802        .h      LDR      r2,[r0,#0]
        0x00000e7e:    430a        .C      ORRS     r2,r2,r1
        0x00000e80:    6002        .`      STR      r2,[r0,#0]
        0x00000e82:    4770        pG      BX       lr
    $d
        0x00000e84:    40000204    ...@    DCD    1073742340
    $t
    i.CLK_EnablePLL
    CLK_EnablePLL
        0x00000e88:    e92d4ff8    -..O    PUSH     {r3-r11,lr}
        0x00000e8c:    460d        .F      MOV      r5,r1
        0x00000e8e:    4604        .F      MOV      r4,r0
        0x00000e90:    f7ffffe3    ....    BL       CLK_DisablePLL ; 0xe5a
        0x00000e94:    f04f4080    O..@    MOV      r0,#0x40000000
        0x00000e98:    4e48        HN      LDR      r6,[pc,#288] ; [0xfbc] = 0xb71b00
        0x00000e9a:    f8d01200    ....    LDR      r1,[r0,#0x200]
        0x00000e9e:    b1c4        ..      CBZ      r4,0xed2 ; CLK_EnablePLL + 74
        0x00000ea0:    f0410104    A...    ORR      r1,r1,#4
        0x00000ea4:    f8c01200    ....    STR      r1,[r0,#0x200]
        0x00000ea8:    2010        .       MOVS     r0,#0x10
        0x00000eaa:    f000f985    ....    BL       CLK_WaitClockReady ; 0x11b8
        0x00000eae:    f44f2000    O..     MOV      r0,#0x80000
        0x00000eb2:    9000        ..      STR      r0,[sp,#0]
        0x00000eb4:    4842        BH      LDR      r0,[pc,#264] ; [0xfc0] = 0xfd050f80
        0x00000eb6:    4943        CI      LDR      r1,[pc,#268] ; [0xfc4] = 0x1ad27480
        0x00000eb8:    4428        (D      ADD      r0,r0,r5
        0x00000eba:    46b3        .F      MOV      r11,r6
        0x00000ebc:    4288        .B      CMP      r0,r1
        0x00000ebe:    d86d        m.      BHI      0xf9c ; CLK_EnablePLL + 276
        0x00000ec0:    f04f0900    O...    MOV      r9,#0
        0x00000ec4:    f04f32ff    O..2    MOV      r2,#0xffffffff
        0x00000ec8:    464f        OF      MOV      r7,r9
        0x00000eca:    464e        NF      MOV      r6,r9
        0x00000ecc:    46ae        .F      MOV      lr,r5
        0x00000ece:    2001        .       MOVS     r0,#1
        0x00000ed0:    e015        ..      B        0xefe ; CLK_EnablePLL + 118
        0x00000ed2:    f0410101    A...    ORR      r1,r1,#1
        0x00000ed6:    f8c01200    ....    STR      r1,[r0,#0x200]
        0x00000eda:    2001        .       MOVS     r0,#1
        0x00000edc:    f000f96c    ..l.    BL       CLK_WaitClockReady ; 0x11b8
        0x00000ee0:    2000        .       MOVS     r0,#0
        0x00000ee2:    e7e6        ..      B        0xeb2 ; CLK_EnablePLL + 42
        0x00000ee4:    b3f2        ..      CBZ      r2,0xf64 ; CLK_EnablePLL + 220
        0x00000ee6:    2803        .(      CMP      r0,#3
        0x00000ee8:    d039        9.      BEQ      0xf5e ; CLK_EnablePLL + 214
        0x00000eea:    2804        .(      CMP      r0,#4
        0x00000eec:    d002        ..      BEQ      0xef4 ; CLK_EnablePLL + 108
        0x00000eee:    2802        .(      CMP      r0,#2
        0x00000ef0:    d105        ..      BNE      0xefe ; CLK_EnablePLL + 118
        0x00000ef2:    e002        ..      B        0xefa ; CLK_EnablePLL + 114
        0x00000ef4:    ea4f058e    O...    LSL      r5,lr,#2
        0x00000ef8:    e001        ..      B        0xefe ; CLK_EnablePLL + 118
        0x00000efa:    ea4f054e    O.N.    LSL      r5,lr,#1
        0x00000efe:    2302        .#      MOVS     r3,#2
        0x00000f00:    b36a        j.      CBZ      r2,0xf5e ; CLK_EnablePLL + 214
        0x00000f02:    fbbbf1f3    ....    UDIV     r1,r11,r3
        0x00000f06:    4c30        0L      LDR      r4,[pc,#192] ; [0xfc8] = 0xffc2f700
        0x00000f08:    f8dfc0bc    ....    LDR      r12,[pc,#188] ; [0xfc8] = 0xffc2f700
        0x00000f0c:    440c        .D      ADD      r4,r4,r1
        0x00000f0e:    f1cc0c00    ....    RSB      r12,r12,#0
        0x00000f12:    4564        dE      CMP      r4,r12
        0x00000f14:    d820         .      BHI      0xf58 ; CLK_EnablePLL + 208
        0x00000f16:    2402        .$      MOVS     r4,#2
        0x00000f18:    f3c10a5d    ..].    UBFX     r10,r1,#1,#30
        0x00000f1c:    f8dfc0a0    ....    LDR      r12,[pc,#160] ; [0xfc0] = 0xfd050f80
        0x00000f20:    fb0af104    ....    MUL      r1,r10,r4
        0x00000f24:    eb01080c    ....    ADD      r8,r1,r12
        0x00000f28:    f8dfc0a0    ....    LDR      r12,[pc,#160] ; [0xfcc] = 0x47868c0
        0x00000f2c:    45e0        .E      CMP      r8,r12
        0x00000f2e:    d80e        ..      BHI      0xf4e ; CLK_EnablePLL + 198
        0x00000f30:    ebb10f95    ....    CMP      r1,r5,LSR #2
        0x00000f34:    d902        ..      BLS      0xf3c ; CLK_EnablePLL + 180
        0x00000f36:    eba10195    ....    SUB      r1,r1,r5,LSR #2
        0x00000f3a:    e001        ..      B        0xf40 ; CLK_EnablePLL + 184
        0x00000f3c:    ebc10195    ....    RSB      r1,r1,r5,LSR #2
        0x00000f40:    4291        .B      CMP      r1,r2
        0x00000f42:    d204        ..      BCS      0xf4e ; CLK_EnablePLL + 198
        0x00000f44:    000a        ..      MOVS     r2,r1
        0x00000f46:    4699        .F      MOV      r9,r3
        0x00000f48:    4627        'F      MOV      r7,r4
        0x00000f4a:    4606        .F      MOV      r6,r0
        0x00000f4c:    d004        ..      BEQ      0xf58 ; CLK_EnablePLL + 208
        0x00000f4e:    f2402101    @..!    MOV      r1,#0x201
        0x00000f52:    1c64        d.      ADDS     r4,r4,#1
        0x00000f54:    428c        .B      CMP      r4,r1
        0x00000f56:    d9e1        ..      BLS      0xf1c ; CLK_EnablePLL + 148
        0x00000f58:    1c5b        [.      ADDS     r3,r3,#1
        0x00000f5a:    2b20         +      CMP      r3,#0x20
        0x00000f5c:    d9d0        ..      BLS      0xf00 ; CLK_EnablePLL + 120
        0x00000f5e:    1c40        @.      ADDS     r0,r0,#1
        0x00000f60:    2804        .(      CMP      r0,#4
        0x00000f62:    e000        ..      B        0xf66 ; CLK_EnablePLL + 222
        0x00000f64:    e000        ..      B        0xf68 ; CLK_EnablePLL + 224
        0x00000f66:    d9bd        ..      BLS      0xee4 ; CLK_EnablePLL + 92
        0x00000f68:    4819        .H      LDR      r0,[pc,#100] ; [0xfd0] = 0xffffc000
        0x00000f6a:    9900        ..      LDR      r1,[sp,#0]
        0x00000f6c:    eb003086    ...0    ADD      r0,r0,r6,LSL #14
        0x00000f70:    4a18        .J      LDR      r2,[pc,#96] ; [0xfd4] = 0xfffffe00
        0x00000f72:    4308        .C      ORRS     r0,r0,r1
        0x00000f74:    eb022149    ..I!    ADD      r1,r2,r9,LSL #9
        0x00000f78:    4308        .C      ORRS     r0,r0,r1
        0x00000f7a:    1eb9        ..      SUBS     r1,r7,#2
        0x00000f7c:    4308        .C      ORRS     r0,r0,r1
        0x00000f7e:    f04f4180    O..A    MOV      r1,#0x40000000
        0x00000f82:    f8c10240    ..@.    STR      r0,[r1,#0x240]
        0x00000f86:    2004        .       MOVS     r0,#4
        0x00000f88:    f000f916    ....    BL       CLK_WaitClockReady ; 0x11b8
        0x00000f8c:    fb06f609    ....    MUL      r6,r6,r9
        0x00000f90:    fbbbf0f6    ....    UDIV     r0,r11,r6
        0x00000f94:    4378        xC      MULS     r0,r7,r0
        0x00000f96:    0040        @.      LSLS     r0,r0,#1
        0x00000f98:    e8bd8ff8    ....    POP      {r3-r11,pc}
        0x00000f9c:    b15c        \.      CBZ      r4,0xfb6 ; CLK_EnablePLL + 302
        0x00000f9e:    490e        .I      LDR      r1,[pc,#56] ; [0xfd8] = 0x8421e
        0x00000fa0:    f04f4080    O..@    MOV      r0,#0x40000000
        0x00000fa4:    f8c01240    ..@.    STR      r1,[r0,#0x240]
        0x00000fa8:    2004        .       MOVS     r0,#4
        0x00000faa:    f000f905    ....    BL       CLK_WaitClockReady ; 0x11b8
        0x00000fae:    e8bd4ff8    ...O    POP      {r3-r11,lr}
        0x00000fb2:    f000b81b    ....    B.W      CLK_GetPLLClockFreq ; 0xfec
        0x00000fb6:    f244211e    D..!    MOV      r1,#0x421e
        0x00000fba:    e7f1        ..      B        0xfa0 ; CLK_EnablePLL + 280
    $d
        0x00000fbc:    00b71b00    ....    DCD    12000000
        0x00000fc0:    fd050f80    ....    DCD    4244967296
        0x00000fc4:    1ad27480    .t..    DCD    450000000
        0x00000fc8:    ffc2f700    ....    DCD    4290967296
        0x00000fcc:    047868c0    .hx.    DCD    75000000
        0x00000fd0:    ffffc000    ....    DCD    4294950912
        0x00000fd4:    fffffe00    ....    DCD    4294966784
        0x00000fd8:    0008421e    .B..    DCD    541214
    $t
    i.CLK_EnableXtalRC
    CLK_EnableXtalRC
        0x00000fdc:    f04f4180    O..A    MOV      r1,#0x40000000
        0x00000fe0:    f8d12200    ..."    LDR      r2,[r1,#0x200]
        0x00000fe4:    4302        .C      ORRS     r2,r2,r0
        0x00000fe6:    f8c12200    ..."    STR      r2,[r1,#0x200]
        0x00000fea:    4770        pG      BX       lr
    i.CLK_GetPLLClockFreq
    CLK_GetPLLClockFreq
        0x00000fec:    b508        ..      PUSH     {r3,lr}
        0x00000fee:    a110        ..      ADR      r1,{pc}+0x42 ; 0x1030
        0x00000ff0:    2000        .       MOVS     r0,#0
        0x00000ff2:    6809        .h      LDR      r1,[r1,#0]
        0x00000ff4:    9100        ..      STR      r1,[sp,#0]
        0x00000ff6:    f04f4180    O..A    MOV      r1,#0x40000000
        0x00000ffa:    f8d11240    ..@.    LDR      r1,[r1,#0x240]
        0x00000ffe:    f4112fa0    .../    TST      r1,#0x50000
        0x00001002:    d113        ..      BNE      0x102c ; CLK_GetPLLClockFreq + 64
        0x00001004:    480b        .H      LDR      r0,[pc,#44] ; [0x1034] = 0xb71b00
        0x00001006:    038a        ..      LSLS     r2,r1,#14
        0x00001008:    d410        ..      BMI      0x102c ; CLK_GetPLLClockFreq + 64
        0x0000100a:    f3c10008    ....    UBFX     r0,r1,#0,#9
        0x0000100e:    f3c13281    ...2    UBFX     r2,r1,#14,#2
        0x00001012:    4b09        .K      LDR      r3,[pc,#36] ; [0x1038] = 0x2dc6c0
        0x00001014:    1c80        ..      ADDS     r0,r0,#2
        0x00001016:    f81d2002    ...     LDRB     r2,[sp,r2]
        0x0000101a:    f3c12144    ..D!    UBFX     r1,r1,#9,#5
        0x0000101e:    4358        XC      MULS     r0,r3,r0
        0x00001020:    1c49        I.      ADDS     r1,r1,#1
        0x00001022:    fb11f102    ....    SMULBB   r1,r1,r2
        0x00001026:    fbb0f0f1    ....    UDIV     r0,r0,r1
        0x0000102a:    00c0        ..      LSLS     r0,r0,#3
        0x0000102c:    bd08        ..      POP      {r3,pc}
    $d
        0x0000102e:    0000        ..      DCW    0
        0x00001030:    04020201    ....    DCD    67240449
        0x00001034:    00b71b00    ....    DCD    12000000
        0x00001038:    002dc6c0    ..-.    DCD    3000000
    $t
    i.CLK_SetCoreClock
    CLK_SetCoreClock
        0x0000103c:    b570        p.      PUSH     {r4-r6,lr}
        0x0000103e:    f04f4480    O..D    MOV      r4,#0x40000000
        0x00001042:    4606        .F      MOV      r6,r0
        0x00001044:    f8d40250    ..P.    LDR      r0,[r4,#0x250]
        0x00001048:    f0000510    ....    AND      r5,r0,#0x10
        0x0000104c:    481b        .H      LDR      r0,[pc,#108] ; [0x10bc] = 0xb71b000
        0x0000104e:    4286        .B      CMP      r6,r0
        0x00001050:    d900        ..      BLS      0x1054 ; CLK_SetCoreClock + 24
        0x00001052:    4606        .F      MOV      r6,r0
        0x00001054:    f8d40200    ....    LDR      r0,[r4,#0x200]
        0x00001058:    f0400004    @...    ORR      r0,r0,#4
        0x0000105c:    f8c40200    ....    STR      r0,[r4,#0x200]
        0x00001060:    2010        .       MOVS     r0,#0x10
        0x00001062:    f5047400    ...t    ADD      r4,r4,#0x200
        0x00001066:    f000f8a7    ....    BL       CLK_WaitClockReady ; 0x11b8
        0x0000106a:    6920         i      LDR      r0,[r4,#0x10]
        0x0000106c:    f0400007    @...    ORR      r0,r0,#7
        0x00001070:    6120         a      STR      r0,[r4,#0x10]
        0x00001072:    6a20         j      LDR      r0,[r4,#0x20]
        0x00001074:    f020000f     ...    BIC      r0,r0,#0xf
        0x00001078:    6220         b      STR      r0,[r4,#0x20]
        0x0000107a:    6820         h      LDR      r0,[r4,#0]
        0x0000107c:    f5a47400    ...t    SUB      r4,r4,#0x200
        0x00001080:    07c0        ..      LSLS     r0,r0,#31
        0x00001082:    4631        1F      MOV      r1,r6
        0x00001084:    d004        ..      BEQ      0x1090 ; CLK_SetCoreClock + 84
        0x00001086:    2000        .       MOVS     r0,#0
        0x00001088:    f7fffefe    ....    BL       CLK_EnablePLL ; 0xe88
        0x0000108c:    4606        .F      MOV      r6,r0
        0x0000108e:    e008        ..      B        0x10a2 ; CLK_SetCoreClock + 102
        0x00001090:    f44f2000    O..     MOV      r0,#0x80000
        0x00001094:    f7fffef8    ....    BL       CLK_EnablePLL ; 0xe88
        0x00001098:    4606        .F      MOV      r6,r0
        0x0000109a:    f8d40250    ..P.    LDR      r0,[r4,#0x250]
        0x0000109e:    f0000510    ....    AND      r5,r0,#0x10
        0x000010a2:    2100        .!      MOVS     r1,#0
        0x000010a4:    2002        .       MOVS     r0,#2
        0x000010a6:    f000f80b    ....    BL       CLK_SetHCLK ; 0x10c0
        0x000010aa:    b92d        -.      CBNZ     r5,0x10b8 ; CLK_SetCoreClock + 124
        0x000010ac:    f8d40200    ....    LDR      r0,[r4,#0x200]
        0x000010b0:    f0200004     ...    BIC      r0,r0,#4
        0x000010b4:    f8c40200    ....    STR      r0,[r4,#0x200]
        0x000010b8:    4630        0F      MOV      r0,r6
        0x000010ba:    bd70        p.      POP      {r4-r6,pc}
    $d
        0x000010bc:    0b71b000    ..q.    DCD    192000000
    $t
    i.CLK_SetHCLK
    CLK_SetHCLK
        0x000010c0:    e92d41f0    -..A    PUSH     {r4-r8,lr}
        0x000010c4:    f04f4480    O..D    MOV      r4,#0x40000000
        0x000010c8:    4607        .F      MOV      r7,r0
        0x000010ca:    f8d40250    ..P.    LDR      r0,[r4,#0x250]
        0x000010ce:    460e        .F      MOV      r6,r1
        0x000010d0:    f0000510    ....    AND      r5,r0,#0x10
        0x000010d4:    f8d40200    ....    LDR      r0,[r4,#0x200]
        0x000010d8:    f0400004    @...    ORR      r0,r0,#4
        0x000010dc:    f8c40200    ....    STR      r0,[r4,#0x200]
        0x000010e0:    2010        .       MOVS     r0,#0x10
        0x000010e2:    f5047400    ...t    ADD      r4,r4,#0x200
        0x000010e6:    f000f867    ..g.    BL       CLK_WaitClockReady ; 0x11b8
        0x000010ea:    6920         i      LDR      r0,[r4,#0x10]
        0x000010ec:    f0400007    @...    ORR      r0,r0,#7
        0x000010f0:    6120         a      STR      r0,[r4,#0x10]
        0x000010f2:    6a20         j      LDR      r0,[r4,#0x20]
        0x000010f4:    f020000f     ...    BIC      r0,r0,#0xf
        0x000010f8:    4330        0C      ORRS     r0,r0,r6
        0x000010fa:    6220         b      STR      r0,[r4,#0x20]
        0x000010fc:    6920         i      LDR      r0,[r4,#0x10]
        0x000010fe:    f0200007     ...    BIC      r0,r0,#7
        0x00001102:    4338        8C      ORRS     r0,r0,r7
        0x00001104:    6120         a      STR      r0,[r4,#0x10]
        0x00001106:    f5a47400    ...t    SUB      r4,r4,#0x200
        0x0000110a:    f000f8d3    ....    BL       SystemCoreClockUpdate ; 0x12b4
        0x0000110e:    2d00        .-      CMP      r5,#0
        0x00001110:    d105        ..      BNE      0x111e ; CLK_SetHCLK + 94
        0x00001112:    f8d40200    ....    LDR      r0,[r4,#0x200]
        0x00001116:    f0200004     ...    BIC      r0,r0,#4
        0x0000111a:    f8c40200    ....    STR      r0,[r4,#0x200]
        0x0000111e:    e8bd81f0    ....    POP      {r4-r8,pc}
        0x00001122:    0000        ..      MOVS     r0,r0
    i.CLK_SetModuleClock
    CLK_SetModuleClock
        0x00001124:    b5f0        ..      PUSH     {r4-r7,lr}
        0x00001126:    f4103f7f    ...?    TST      r0,#0x3fc00
        0x0000112a:    d02e        ..      BEQ      0x118a ; CLK_SetModuleClock + 102
        0x0000112c:    f04f4380    O..C    MOV      r3,#0x40000000
        0x00001130:    f8d331f4    ...1    LDR      r3,[r3,#0x1f4]
        0x00001134:    f8dfc078    ..x.    LDR      r12,[pc,#120] ; [0x11b0] = 0x4000022c
        0x00001138:    b2df        ..      UXTB     r7,r3
        0x0000113a:    4b1d        .K      LDR      r3,[pc,#116] ; [0x11b0] = 0x4000022c
        0x0000113c:    f3c04481    ...D    UBFX     r4,r0,#18,#2
        0x00001140:    3b0c        .;      SUBS     r3,r3,#0xc
        0x00001142:    ea6f4590    o..E    MVN      r5,r0,LSR #18
        0x00001146:    f10c0604    ....    ADD      r6,r12,#4
        0x0000114a:    eb030384    ....    ADD      r3,r3,r4,LSL #2
        0x0000114e:    2f01        ./      CMP      r7,#1
        0x00001150:    d002        ..      BEQ      0x1158 ; CLK_SetModuleClock + 52
        0x00001152:    2c02        .,      CMP      r4,#2
        0x00001154:    d00d        ..      BEQ      0x1172 ; CLK_SetModuleClock + 78
        0x00001156:    e001        ..      B        0x115c ; CLK_SetModuleClock + 56
        0x00001158:    2c02        .,      CMP      r4,#2
        0x0000115a:    d002        ..      BEQ      0x1162 ; CLK_SetModuleClock + 62
        0x0000115c:    07ac        ..      LSLS     r4,r5,#30
        0x0000115e:    d00a        ..      BEQ      0x1176 ; CLK_SetModuleClock + 82
        0x00001160:    e00a        ..      B        0x1178 ; CLK_SetModuleClock + 84
        0x00001162:    43c3        .C      MVNS     r3,r0
        0x00001164:    06dc        ..      LSLS     r4,r3,#27
        0x00001166:    4b13        .K      LDR      r3,[pc,#76] ; [0x11b4] = 0x40000228
        0x00001168:    d006        ..      BEQ      0x1178 ; CLK_SetModuleClock + 84
        0x0000116a:    f000041f    ....    AND      r4,r0,#0x1f
        0x0000116e:    2c1d        .,      CMP      r4,#0x1d
        0x00001170:    d002        ..      BEQ      0x1178 ; CLK_SetModuleClock + 84
        0x00001172:    4663        cF      MOV      r3,r12
        0x00001174:    e000        ..      B        0x1178 ; CLK_SetModuleClock + 84
        0x00001176:    4633        3F      MOV      r3,r6
        0x00001178:    681c        .h      LDR      r4,[r3,#0]
        0x0000117a:    f3c02587    ...%    UBFX     r5,r0,#10,#8
        0x0000117e:    f3c01644    ..D.    UBFX     r6,r0,#5,#5
        0x00001182:    40b5        .@      LSLS     r5,r5,r6
        0x00001184:    43ac        .C      BICS     r4,r4,r5
        0x00001186:    4314        .C      ORRS     r4,r4,r2
        0x00001188:    601c        .`      STR      r4,[r3,#0]
        0x0000118a:    0e42        B.      LSRS     r2,r0,#25
        0x0000118c:    0752        R.      LSLS     r2,r2,#29
        0x0000118e:    d00e        ..      BEQ      0x11ae ; CLK_SetModuleClock + 138
        0x00001190:    4b08        .K      LDR      r3,[pc,#32] ; [0x11b4] = 0x40000228
        0x00001192:    f3c07201    ...r    UBFX     r2,r0,#28,#2
        0x00001196:    3b18        .;      SUBS     r3,r3,#0x18
        0x00001198:    eb030282    ....    ADD      r2,r3,r2,LSL #2
        0x0000119c:    6813        .h      LDR      r3,[r2,#0]
        0x0000119e:    f3c06442    ..Bd    UBFX     r4,r0,#25,#3
        0x000011a2:    f3c05004    ...P    UBFX     r0,r0,#20,#5
        0x000011a6:    4084        .@      LSLS     r4,r4,r0
        0x000011a8:    43a3        .C      BICS     r3,r3,r4
        0x000011aa:    430b        .C      ORRS     r3,r3,r1
        0x000011ac:    6013        .`      STR      r3,[r2,#0]
        0x000011ae:    bdf0        ..      POP      {r4-r7,pc}
    $d
        0x000011b0:    4000022c    ,..@    DCD    1073742380
        0x000011b4:    40000228    (..@    DCD    1073742376
    $t
    i.CLK_WaitClockReady
    CLK_WaitClockReady
        0x000011b8:    b530        0.      PUSH     {r4,r5,lr}
        0x000011ba:    2401        .$      MOVS     r4,#1
        0x000011bc:    4605        .F      MOV      r5,r0
        0x000011be:    4908        .I      LDR      r1,[pc,#32] ; [0x11e0] = 0x20f580
        0x000011c0:    07a2        ..      LSLS     r2,r4,#30
        0x000011c2:    e005        ..      B        0x11d0 ; CLK_WaitClockReady + 24
        0x000011c4:    1e08        ..      SUBS     r0,r1,#0
        0x000011c6:    f1a10101    ....    SUB      r1,r1,#1
        0x000011ca:    dc01        ..      BGT      0x11d0 ; CLK_WaitClockReady + 24
        0x000011cc:    2400        .$      MOVS     r4,#0
        0x000011ce:    e004        ..      B        0x11da ; CLK_WaitClockReady + 34
        0x000011d0:    f8d23250    ..P2    LDR      r3,[r2,#0x250]
        0x000011d4:    ea350003    5...    BICS     r0,r5,r3
        0x000011d8:    d1f4        ..      BNE      0x11c4 ; CLK_WaitClockReady + 12
        0x000011da:    4620         F      MOV      r0,r4
        0x000011dc:    bd30        0.      POP      {r4,r5,pc}
    $d
        0x000011de:    0000        ..      DCW    0
        0x000011e0:    0020f580    .. .    DCD    2160000
    $t
    i.Hard_Fault_Handler
    Hard_Fault_Handler
    __tagsym$$used
        0x000011e4:    4604        .F      MOV      r4,r0
        0x000011e6:    a003        ..      ADR      r0,{pc}+0xe ; 0x11f4
        0x000011e8:    f000f958    ..X.    BL       __0printf$5 ; 0x149c
        0x000011ec:    4620         F      MOV      r0,r4
        0x000011ee:    f000fb6f    ..o.    BL       stackDump ; 0x18d0
        0x000011f2:    e7fe        ..      B        0x11f2 ; Hard_Fault_Handler + 14
    $d
        0x000011f4:    48206e49    In H    DCD    1210084937
        0x000011f8:    20647261    ard     DCD    543453793
        0x000011fc:    6c756146    Faul    DCD    1819631942
        0x00001200:    61482074    t Ha    DCD    1632116852
        0x00001204:    656c646e    ndle    DCD    1701602414
        0x00001208:    00000a72    r...    DCD    2674
    $t
    i.SYS_Init
    SYS_Init
        0x0000120c:    b570        p.      PUSH     {r4-r6,lr}
        0x0000120e:    f000f831    ..1.    BL       SYS_UnlockReg ; 0x1274
        0x00001212:    f04f2040    O.@     MOV      r0,#0x40004000
        0x00001216:    f8d01140    ..@.    LDR      r1,[r0,#0x140]
        0x0000121a:    f02101f0    !...    BIC      r1,r1,#0xf0
        0x0000121e:    f8c01140    ..@.    STR      r1,[r0,#0x140]
        0x00001222:    2001        .       MOVS     r0,#1
        0x00001224:    f7fffeda    ....    BL       CLK_EnableXtalRC ; 0xfdc
        0x00001228:    2001        .       MOVS     r0,#1
        0x0000122a:    f7ffffc5    ....    BL       CLK_WaitClockReady ; 0x11b8
        0x0000122e:    480f        .H      LDR      r0,[pc,#60] ; [0x126c] = 0xb71b000
        0x00001230:    f7ffff04    ....    BL       CLK_SetCoreClock ; 0x103c
        0x00001234:    2011        .       MOVS     r0,#0x11
        0x00001236:    0784        ..      LSLS     r4,r0,#30
        0x00001238:    f8c40234    ..4.    STR      r0,[r4,#0x234]
        0x0000123c:    4d0c        .M      LDR      r5,[pc,#48] ; [0x1270] = 0x57803d10
        0x0000123e:    4628        (F      MOV      r0,r5
        0x00001240:    f7fffe14    ....    BL       CLK_EnableModuleClock ; 0xe6c
        0x00001244:    2200        ."      MOVS     r2,#0
        0x00001246:    4611        .F      MOV      r1,r2
        0x00001248:    4628        (F      MOV      r0,r5
        0x0000124a:    f7ffff6b    ..k.    BL       CLK_SetModuleClock ; 0x1124
        0x0000124e:    f000f831    ..1.    BL       SystemCoreClockUpdate ; 0x12b4
        0x00001252:    6be0        .k      LDR      r0,[r4,#0x3c]
        0x00001254:    f420007f     ...    BIC      r0,r0,#0xff0000
        0x00001258:    63e0        .c      STR      r0,[r4,#0x3c]
        0x0000125a:    6be0        .k      LDR      r0,[r4,#0x3c]
        0x0000125c:    f44000cc    @...    ORR      r0,r0,#0x660000
        0x00001260:    63e0        .c      STR      r0,[r4,#0x3c]
        0x00001262:    2000        .       MOVS     r0,#0
        0x00001264:    f8c40100    ....    STR      r0,[r4,#0x100]
        0x00001268:    bd70        p.      POP      {r4-r6,pc}
    $d
        0x0000126a:    0000        ..      DCW    0
        0x0000126c:    0b71b000    ..q.    DCD    192000000
        0x00001270:    57803d10    .=.W    DCD    1468022032
    $t
    i.SYS_UnlockReg
    SYS_UnlockReg
        0x00001274:    2159        Y!      MOVS     r1,#0x59
        0x00001276:    b510        ..      PUSH     {r4,lr}
        0x00001278:    0788        ..      LSLS     r0,r1,#30
        0x0000127a:    2216        ."      MOVS     r2,#0x16
        0x0000127c:    2388        .#      MOVS     r3,#0x88
        0x0000127e:    f8c01100    ....    STR      r1,[r0,#0x100]
        0x00001282:    f8c02100    ...!    STR      r2,[r0,#0x100]
        0x00001286:    f8c03100    ...1    STR      r3,[r0,#0x100]
        0x0000128a:    f8d04100    ...A    LDR      r4,[r0,#0x100]
        0x0000128e:    2c00        .,      CMP      r4,#0
        0x00001290:    d0f5        ..      BEQ      0x127e ; SYS_UnlockReg + 10
        0x00001292:    bd10        ..      POP      {r4,pc}
    i.SendChar
    SendChar
        0x00001294:    4906        .I      LDR      r1,[pc,#24] ; [0x12b0] = 0x40070000
        0x00001296:    698a        .i      LDR      r2,[r1,#0x18]
        0x00001298:    0212        ..      LSLS     r2,r2,#8
        0x0000129a:    d4fc        ..      BMI      0x1296 ; SendChar + 2
        0x0000129c:    280a        .(      CMP      r0,#0xa
        0x0000129e:    d104        ..      BNE      0x12aa ; SendChar + 22
        0x000012a0:    220d        ."      MOVS     r2,#0xd
        0x000012a2:    600a        .`      STR      r2,[r1,#0]
        0x000012a4:    698a        .i      LDR      r2,[r1,#0x18]
        0x000012a6:    0212        ..      LSLS     r2,r2,#8
        0x000012a8:    d4fc        ..      BMI      0x12a4 ; SendChar + 16
        0x000012aa:    6008        .`      STR      r0,[r1,#0]
        0x000012ac:    4770        pG      BX       lr
    $d
        0x000012ae:    0000        ..      DCW    0
        0x000012b0:    40070000    ...@    DCD    1074200576
    $t
    i.SystemCoreClockUpdate
    SystemCoreClockUpdate
        0x000012b4:    b510        ..      PUSH     {r4,lr}
        0x000012b6:    f7fffe99    ....    BL       CLK_GetPLLClockFreq ; 0xfec
        0x000012ba:    4a0e        .J      LDR      r2,[pc,#56] ; [0x12f4] = 0x20000000
        0x000012bc:    f04f4380    O..C    MOV      r3,#0x40000000
        0x000012c0:    6090        .`      STR      r0,[r2,#8]
        0x000012c2:    f8d31210    ....    LDR      r1,[r3,#0x210]
        0x000012c6:    f0010107    ....    AND      r1,r1,#7
        0x000012ca:    2902        .)      CMP      r1,#2
        0x000012cc:    d003        ..      BEQ      0x12d6 ; SystemCoreClockUpdate + 34
        0x000012ce:    f102000c    ....    ADD      r0,r2,#0xc
        0x000012d2:    f8500021    P.!.    LDR      r0,[r0,r1,LSL #2]
        0x000012d6:    f8d31220    .. .    LDR      r1,[r3,#0x220]
        0x000012da:    f001010f    ....    AND      r1,r1,#0xf
        0x000012de:    1c49        I.      ADDS     r1,r1,#1
        0x000012e0:    fbb0f0f1    ....    UDIV     r0,r0,r1
        0x000012e4:    4904        .I      LDR      r1,[pc,#16] ; [0x12f8] = 0x7a120
        0x000012e6:    6010        .`      STR      r0,[r2,#0]
        0x000012e8:    4408        .D      ADD      r0,r0,r1
        0x000012ea:    0049        I.      LSLS     r1,r1,#1
        0x000012ec:    fbb0f0f1    ....    UDIV     r0,r0,r1
        0x000012f0:    6050        P`      STR      r0,[r2,#4]
        0x000012f2:    bd10        ..      POP      {r4,pc}
    $d
        0x000012f4:    20000000    ...     DCD    536870912
        0x000012f8:    0007a120     ...    DCD    500000
    $t
    i.SystemInit
    SystemInit
        0x000012fc:    481a        .H      LDR      r0,[pc,#104] ; [0x1368] = 0xe000ed88
        0x000012fe:    6801        .h      LDR      r1,[r0,#0]
        0x00001300:    f4410170    A.p.    ORR      r1,r1,#0xf00000
        0x00001304:    6001        .`      STR      r1,[r0,#0]
        0x00001306:    4819        .H      LDR      r0,[pc,#100] ; [0x136c] = 0x4000c000
        0x00001308:    6cc1        .l      LDR      r1,[r0,#0x4c]
        0x0000130a:    f021010f    !...    BIC      r1,r1,#0xf
        0x0000130e:    f0410108    A...    ORR      r1,r1,#8
        0x00001312:    64c1        .d      STR      r1,[r0,#0x4c]
        0x00001314:    f04f4080    O..@    MOV      r0,#0x40000000
        0x00001318:    f8d01298    ....    LDR      r1,[r0,#0x298]
        0x0000131c:    f4412180    A..!    ORR      r1,r1,#0x40000
        0x00001320:    f8c01298    ....    STR      r1,[r0,#0x298]
        0x00001324:    f8d01208    ....    LDR      r1,[r0,#0x208]
        0x00001328:    f0410102    A...    ORR      r1,r1,#2
        0x0000132c:    f8c01208    ....    STR      r1,[r0,#0x208]
        0x00001330:    490f        .I      LDR      r1,[pc,#60] ; [0x1370] = 0x40041000
        0x00001332:    f8d12104    ...!    LDR      r2,[r1,#0x104]
        0x00001336:    f00232f7    ...2    AND      r2,r2,#0xf7f7f7f7
        0x0000133a:    f8c12104    ...!    STR      r2,[r1,#0x104]
        0x0000133e:    f8d12108    ...!    LDR      r2,[r1,#0x108]
        0x00001342:    f00232f7    ...2    AND      r2,r2,#0xf7f7f7f7
        0x00001346:    f8c12108    ...!    STR      r2,[r1,#0x108]
        0x0000134a:    f8d01208    ....    LDR      r1,[r0,#0x208]
        0x0000134e:    f0210102    !...    BIC      r1,r1,#2
        0x00001352:    f8c01208    ....    STR      r1,[r0,#0x208]
        0x00001356:    f04f2040    O.@     MOV      r0,#0x40004000
        0x0000135a:    f8d01140    ..@.    LDR      r1,[r0,#0x140]
        0x0000135e:    f02101f0    !...    BIC      r1,r1,#0xf0
        0x00001362:    f8c01140    ..@.    STR      r1,[r0,#0x140]
        0x00001366:    4770        pG      BX       lr
    $d
        0x00001368:    e000ed88    ....    DCD    3758157192
        0x0000136c:    4000c000    ...@    DCD    1073790976
        0x00001370:    40041000    ...@    DCD    1074008064
    $t
    i.UART_Init
    UART_Init
        0x00001374:    f44f31e1    O..1    MOV      r1,#0x1c200
        0x00001378:    4801        .H      LDR      r0,[pc,#4] ; [0x1380] = 0x40070000
        0x0000137a:    f000b803    ....    B.W      UART_Open ; 0x1384
    $d
        0x0000137e:    0000        ..      DCW    0
        0x00001380:    40070000    ...@    DCD    1074200576
    $t
    i.UART_Open
    UART_Open
        0x00001384:    e92d41ff    -..A    PUSH     {r0-r8,lr}
        0x00001388:    4604        .F      MOV      r4,r0
        0x0000138a:    483c        <H      LDR      r0,[pc,#240] ; [0x147c] = 0x1978
        0x0000138c:    460f        .F      MOV      r7,r1
        0x0000138e:    2500        .%      MOVS     r5,#0
        0x00001390:    c80f        ..      LDM      r0,{r0-r3}
        0x00001392:    e88d000f    ....    STM      sp,{r0-r3}
        0x00001396:    493a        :I      LDR      r1,[pc,#232] ; [0x1480] = 0x40070000
        0x00001398:    462e        .F      MOV      r6,r5
        0x0000139a:    f04f4080    O..@    MOV      r0,#0x40000000
        0x0000139e:    428c        .B      CMP      r4,r1
        0x000013a0:    d106        ..      BNE      0x13b0 ; UART_Open + 44
        0x000013a2:    f8d01214    ....    LDR      r1,[r0,#0x214]
        0x000013a6:    f8d00220    .. .    LDR      r0,[r0,#0x220]
        0x000013aa:    f3c16501    ...e    UBFX     r5,r1,#24,#2
        0x000013ae:    e02a        *.      B        0x1406 ; UART_Open + 130
        0x000013b0:    4934        4I      LDR      r1,[pc,#208] ; [0x1484] = 0x40071000
        0x000013b2:    428c        .B      CMP      r4,r1
        0x000013b4:    d106        ..      BNE      0x13c4 ; UART_Open + 64
        0x000013b6:    f8d01214    ....    LDR      r1,[r0,#0x214]
        0x000013ba:    f8d00220    .. .    LDR      r0,[r0,#0x220]
        0x000013be:    f3c16581    ...e    UBFX     r5,r1,#26,#2
        0x000013c2:    e02b        +.      B        0x141c ; UART_Open + 152
        0x000013c4:    4930        0I      LDR      r1,[pc,#192] ; [0x1488] = 0x40072000
        0x000013c6:    428c        .B      CMP      r4,r1
        0x000013c8:    d108        ..      BNE      0x13dc ; UART_Open + 88
        0x000013ca:    f8d0121c    ....    LDR      r1,[r0,#0x21c]
        0x000013ce:    f8d00230    ..0.    LDR      r0,[r0,#0x230]
        0x000013d2:    f3c16501    ...e    UBFX     r5,r1,#24,#2
        0x000013d6:    f000060f    ....    AND      r6,r0,#0xf
        0x000013da:    e021        !.      B        0x1420 ; UART_Open + 156
        0x000013dc:    492b        +I      LDR      r1,[pc,#172] ; [0x148c] = 0x40073000
        0x000013de:    428c        .B      CMP      r4,r1
        0x000013e0:    d108        ..      BNE      0x13f4 ; UART_Open + 112
        0x000013e2:    f8d0121c    ....    LDR      r1,[r0,#0x21c]
        0x000013e6:    f8d00230    ..0.    LDR      r0,[r0,#0x230]
        0x000013ea:    f3c16581    ...e    UBFX     r5,r1,#26,#2
        0x000013ee:    f3c01603    ....    UBFX     r6,r0,#4,#4
        0x000013f2:    e015        ..      B        0x1420 ; UART_Open + 156
        0x000013f4:    4926        &I      LDR      r1,[pc,#152] ; [0x1490] = 0x40074000
        0x000013f6:    428c        .B      CMP      r4,r1
        0x000013f8:    d108        ..      BNE      0x140c ; UART_Open + 136
        0x000013fa:    f8d0121c    ....    LDR      r1,[r0,#0x21c]
        0x000013fe:    f8d00230    ..0.    LDR      r0,[r0,#0x230]
        0x00001402:    f3c17501    ...u    UBFX     r5,r1,#28,#2
        0x00001406:    f3c02603    ...&    UBFX     r6,r0,#8,#4
        0x0000140a:    e009        ..      B        0x1420 ; UART_Open + 156
        0x0000140c:    4921        !I      LDR      r1,[pc,#132] ; [0x1494] = 0x40075000
        0x0000140e:    428c        .B      CMP      r4,r1
        0x00001410:    d106        ..      BNE      0x1420 ; UART_Open + 156
        0x00001412:    f8d0121c    ....    LDR      r1,[r0,#0x21c]
        0x00001416:    f8d00230    ..0.    LDR      r0,[r0,#0x230]
        0x0000141a:    0f8d        ..      LSRS     r5,r1,#30
        0x0000141c:    f3c03603    ...6    UBFX     r6,r0,#12,#4
        0x00001420:    2000        .       MOVS     r0,#0
        0x00001422:    6320         c      STR      r0,[r4,#0x30]
        0x00001424:    2003        .       MOVS     r0,#3
        0x00001426:    60e0        .`      STR      r0,[r4,#0xc]
        0x00001428:    68a0        .h      LDR      r0,[r4,#8]
        0x0000142a:    491b        .I      LDR      r1,[pc,#108] ; [0x1498] = 0xfff0ff0f
        0x0000142c:    4008        .@      ANDS     r0,r0,r1
        0x0000142e:    60a0        .`      STR      r0,[r4,#8]
        0x00001430:    46e8        .F      MOV      r8,sp
        0x00001432:    2d01        .-      CMP      r5,#1
        0x00001434:    d102        ..      BNE      0x143c ; UART_Open + 184
        0x00001436:    f7fffdd9    ....    BL       CLK_GetPLLClockFreq ; 0xfec
        0x0000143a:    9001        ..      STR      r0,[sp,#4]
        0x0000143c:    2f00        ./      CMP      r7,#0
        0x0000143e:    d01a        ..      BEQ      0x1476 ; UART_Open + 242
        0x00001440:    f8581025    X.%.    LDR      r1,[r8,r5,LSL #2]
        0x00001444:    1c76        v.      ADDS     r6,r6,#1
        0x00001446:    fbb1f0f6    ....    UDIV     r0,r1,r6
        0x0000144a:    eb000057    ..W.    ADD      r0,r0,r7,LSR #1
        0x0000144e:    fbb0f0f7    ....    UDIV     r0,r0,r7
        0x00001452:    1e80        ..      SUBS     r0,r0,#2
        0x00001454:    f5b03f80    ...?    CMP      r0,#0x10000
        0x00001458:    d30a        ..      BCC      0x1470 ; UART_Open + 236
        0x0000145a:    fbb1f0f6    ....    UDIV     r0,r1,r6
        0x0000145e:    eb0000c7    ....    ADD      r0,r0,r7,LSL #3
        0x00001462:    fbb0f0f7    ....    UDIV     r0,r0,r7
        0x00001466:    f06f0101    o...    MVN      r1,#1
        0x0000146a:    eb011010    ....    ADD      r0,r1,r0,LSR #4
        0x0000146e:    e001        ..      B        0x1474 ; UART_Open + 240
        0x00001470:    f0405040    @.@P    ORR      r0,r0,#0x30000000
        0x00001474:    6260        `b      STR      r0,[r4,#0x24]
        0x00001476:    e8bd81ff    ....    POP      {r0-r8,pc}
    $d
        0x0000147a:    0000        ..      DCW    0
        0x0000147c:    00001978    x...    DCD    6520
        0x00001480:    40070000    ...@    DCD    1074200576
        0x00001484:    40071000    ...@    DCD    1074204672
        0x00001488:    40072000    . .@    DCD    1074208768
        0x0000148c:    40073000    .0.@    DCD    1074212864
        0x00001490:    40074000    .@.@    DCD    1074216960
        0x00001494:    40075000    .P.@    DCD    1074221056
        0x00001498:    fff0ff0f    ....    DCD    4293984015
    $t
    i.__0printf$5
    __0printf$5
    __1printf$5
    __2printf
        0x0000149c:    b40f        ..      PUSH     {r0-r3}
        0x0000149e:    4b05        .K      LDR      r3,[pc,#20] ; [0x14b4] = 0x179d
        0x000014a0:    b510        ..      PUSH     {r4,lr}
        0x000014a2:    a903        ..      ADD      r1,sp,#0xc
        0x000014a4:    4a04        .J      LDR      r2,[pc,#16] ; [0x14b8] = 0x20002040
        0x000014a6:    9802        ..      LDR      r0,[sp,#8]
        0x000014a8:    f000f818    ....    BL       _printf_core ; 0x14dc
        0x000014ac:    bc10        ..      POP      {r4}
        0x000014ae:    f85dfb14    ]...    LDR      pc,[sp],#0x14
    $d
        0x000014b2:    0000        ..      DCW    0
        0x000014b4:    0000179d    ....    DCD    6045
        0x000014b8:    20002040    @ .     DCD    536879168
    $t
    i.__scatterload_copy
    __scatterload_copy
        0x000014bc:    e002        ..      B        0x14c4 ; __scatterload_copy + 8
        0x000014be:    c808        ..      LDM      r0!,{r3}
        0x000014c0:    1f12        ..      SUBS     r2,r2,#4
        0x000014c2:    c108        ..      STM      r1!,{r3}
        0x000014c4:    2a00        .*      CMP      r2,#0
        0x000014c6:    d1fa        ..      BNE      0x14be ; __scatterload_copy + 2
        0x000014c8:    4770        pG      BX       lr
    i.__scatterload_null
    __scatterload_null
        0x000014ca:    4770        pG      BX       lr
    i.__scatterload_zeroinit
    __scatterload_zeroinit
        0x000014cc:    2000        .       MOVS     r0,#0
        0x000014ce:    e001        ..      B        0x14d4 ; __scatterload_zeroinit + 8
        0x000014d0:    c101        ..      STM      r1!,{r0}
        0x000014d2:    1f12        ..      SUBS     r2,r2,#4
        0x000014d4:    2a00        .*      CMP      r2,#0
        0x000014d6:    d1fb        ..      BNE      0x14d0 ; __scatterload_zeroinit + 4
        0x000014d8:    4770        pG      BX       lr
        0x000014da:    0000        ..      MOVS     r0,r0
    i._printf_core
    _printf_core
        0x000014dc:    e92d4fff    -..O    PUSH     {r0-r11,lr}
        0x000014e0:    b08d        ..      SUB      sp,sp,#0x34
        0x000014e2:    469b        .F      MOV      r11,r3
        0x000014e4:    460f        .F      MOV      r7,r1
        0x000014e6:    4604        .F      MOV      r4,r0
        0x000014e8:    2600        .&      MOVS     r6,#0
        0x000014ea:    e006        ..      B        0x14fa ; _printf_core + 30
        0x000014ec:    2825        %(      CMP      r0,#0x25
        0x000014ee:    d00b        ..      BEQ      0x1508 ; _printf_core + 44
        0x000014f0:    465a        ZF      MOV      r2,r11
        0x000014f2:    990f        ..      LDR      r1,[sp,#0x3c]
        0x000014f4:    4790        .G      BLX      r2
        0x000014f6:    1c64        d.      ADDS     r4,r4,#1
        0x000014f8:    1c76        v.      ADDS     r6,r6,#1
        0x000014fa:    7820         x      LDRB     r0,[r4,#0]
        0x000014fc:    2800        .(      CMP      r0,#0
        0x000014fe:    d1f5        ..      BNE      0x14ec ; _printf_core + 16
        0x00001500:    b011        ..      ADD      sp,sp,#0x44
        0x00001502:    4630        0F      MOV      r0,r6
        0x00001504:    e8bd8ff0    ....    POP      {r4-r11,pc}
        0x00001508:    2500        .%      MOVS     r5,#0
        0x0000150a:    46a8        .F      MOV      r8,r5
        0x0000150c:    2201        ."      MOVS     r2,#1
        0x0000150e:    4998        .I      LDR      r1,[pc,#608] ; [0x1770] = 0x12809
        0x00001510:    e000        ..      B        0x1514 ; _printf_core + 56
        0x00001512:    4305        .C      ORRS     r5,r5,r0
        0x00001514:    f8143f01    ...?    LDRB     r3,[r4,#1]!
        0x00001518:    3b20         ;      SUBS     r3,r3,#0x20
        0x0000151a:    fa02f003    ....    LSL      r0,r2,r3
        0x0000151e:    4208        .B      TST      r0,r1
        0x00001520:    d1f7        ..      BNE      0x1512 ; _printf_core + 54
        0x00001522:    7820         x      LDRB     r0,[r4,#0]
        0x00001524:    282e        .(      CMP      r0,#0x2e
        0x00001526:    d117        ..      BNE      0x1558 ; _printf_core + 124
        0x00001528:    f8140f01    ....    LDRB     r0,[r4,#1]!
        0x0000152c:    f0450504    E...    ORR      r5,r5,#4
        0x00001530:    282a        *(      CMP      r0,#0x2a
        0x00001532:    d00e        ..      BEQ      0x1552 ; _printf_core + 118
        0x00001534:    f06f022f    o./.    MVN      r2,#0x2f
        0x00001538:    7820         x      LDRB     r0,[r4,#0]
        0x0000153a:    f1a00130    ..0.    SUB      r1,r0,#0x30
        0x0000153e:    2909        .)      CMP      r1,#9
        0x00001540:    d80a        ..      BHI      0x1558 ; _printf_core + 124
        0x00001542:    eb080188    ....    ADD      r1,r8,r8,LSL #2
        0x00001546:    eb020141    ..A.    ADD      r1,r2,r1,LSL #1
        0x0000154a:    eb000801    ....    ADD      r8,r0,r1
        0x0000154e:    1c64        d.      ADDS     r4,r4,#1
        0x00001550:    e7f2        ..      B        0x1538 ; _printf_core + 92
        0x00001552:    f8578b04    W...    LDR      r8,[r7],#4
        0x00001556:    1c64        d.      ADDS     r4,r4,#1
        0x00001558:    7820         x      LDRB     r0,[r4,#0]
        0x0000155a:    286c        l(      CMP      r0,#0x6c
        0x0000155c:    d00d        ..      BEQ      0x157a ; _printf_core + 158
        0x0000155e:    dc04        ..      BGT      0x156a ; _printf_core + 142
        0x00001560:    284c        L(      CMP      r0,#0x4c
        0x00001562:    d012        ..      BEQ      0x158a ; _printf_core + 174
        0x00001564:    286a        j(      CMP      r0,#0x6a
        0x00001566:    d111        ..      BNE      0x158c ; _printf_core + 176
        0x00001568:    e004        ..      B        0x1574 ; _printf_core + 152
        0x0000156a:    2874        t(      CMP      r0,#0x74
        0x0000156c:    d00d        ..      BEQ      0x158a ; _printf_core + 174
        0x0000156e:    287a        z(      CMP      r0,#0x7a
        0x00001570:    d10c        ..      BNE      0x158c ; _printf_core + 176
        0x00001572:    e00a        ..      B        0x158a ; _printf_core + 174
        0x00001574:    f4451500    E...    ORR      r5,r5,#0x200000
        0x00001578:    e007        ..      B        0x158a ; _printf_core + 174
        0x0000157a:    7861        ax      LDRB     r1,[r4,#1]
        0x0000157c:    f4451580    E...    ORR      r5,r5,#0x100000
        0x00001580:    4281        .B      CMP      r1,r0
        0x00001582:    d102        ..      BNE      0x158a ; _printf_core + 174
        0x00001584:    1c64        d.      ADDS     r4,r4,#1
        0x00001586:    f5051580    ....    ADD      r5,r5,#0x100000
        0x0000158a:    1c64        d.      ADDS     r4,r4,#1
        0x0000158c:    7822        "x      LDRB     r2,[r4,#0]
        0x0000158e:    2a69        i*      CMP      r2,#0x69
        0x00001590:    d045        E.      BEQ      0x161e ; _printf_core + 322
        0x00001592:    dc08        ..      BGT      0x15a6 ; _printf_core + 202
        0x00001594:    2a00        .*      CMP      r2,#0
        0x00001596:    d0b3        ..      BEQ      0x1500 ; _printf_core + 36
        0x00001598:    2a58        X*      CMP      r2,#0x58
        0x0000159a:    d069        i.      BEQ      0x1670 ; _printf_core + 404
        0x0000159c:    2a63        c*      CMP      r2,#0x63
        0x0000159e:    d010        ..      BEQ      0x15c2 ; _printf_core + 230
        0x000015a0:    2a64        d*      CMP      r2,#0x64
        0x000015a2:    d108        ..      BNE      0x15b6 ; _printf_core + 218
        0x000015a4:    e03b        ;.      B        0x161e ; _printf_core + 322
        0x000015a6:    2a70        p*      CMP      r2,#0x70
        0x000015a8:    d067        g.      BEQ      0x167a ; _printf_core + 414
        0x000015aa:    2a73        s*      CMP      r2,#0x73
        0x000015ac:    d013        ..      BEQ      0x15d6 ; _printf_core + 250
        0x000015ae:    2a75        u*      CMP      r2,#0x75
        0x000015b0:    d05c        \.      BEQ      0x166c ; _printf_core + 400
        0x000015b2:    2a78        x*      CMP      r2,#0x78
        0x000015b4:    d05c        \.      BEQ      0x1670 ; _printf_core + 404
        0x000015b6:    4610        .F      MOV      r0,r2
        0x000015b8:    465a        ZF      MOV      r2,r11
        0x000015ba:    990f        ..      LDR      r1,[sp,#0x3c]
        0x000015bc:    4790        .G      BLX      r2
        0x000015be:    1c76        v.      ADDS     r6,r6,#1
        0x000015c0:    e0d3        ..      B        0x176a ; _printf_core + 654
        0x000015c2:    f8170b04    ....    LDRB     r0,[r7],#4
        0x000015c6:    f88d0000    ....    STRB     r0,[sp,#0]
        0x000015ca:    2000        .       MOVS     r0,#0
        0x000015cc:    f88d0001    ....    STRB     r0,[sp,#1]
        0x000015d0:    46e9        .F      MOV      r9,sp
        0x000015d2:    2001        .       MOVS     r0,#1
        0x000015d4:    e003        ..      B        0x15de ; _printf_core + 258
        0x000015d6:    f8579b04    W...    LDR      r9,[r7],#4
        0x000015da:    f04f30ff    O..0    MOV      r0,#0xffffffff
        0x000015de:    0769        i.      LSLS     r1,r5,#29
        0x000015e0:    f04f0500    O...    MOV      r5,#0
        0x000015e4:    d401        ..      BMI      0x15ea ; _printf_core + 270
        0x000015e6:    e00a        ..      B        0x15fe ; _printf_core + 290
        0x000015e8:    1c6d        m.      ADDS     r5,r5,#1
        0x000015ea:    4545        EE      CMP      r5,r8
        0x000015ec:    da0d        ..      BGE      0x160a ; _printf_core + 302
        0x000015ee:    4285        .B      CMP      r5,r0
        0x000015f0:    dbfa        ..      BLT      0x15e8 ; _printf_core + 268
        0x000015f2:    f8191005    ....    LDRB     r1,[r9,r5]
        0x000015f6:    2900        .)      CMP      r1,#0
        0x000015f8:    d1f6        ..      BNE      0x15e8 ; _printf_core + 268
        0x000015fa:    e006        ..      B        0x160a ; _printf_core + 302
        0x000015fc:    1c6d        m.      ADDS     r5,r5,#1
        0x000015fe:    4285        .B      CMP      r5,r0
        0x00001600:    dbfc        ..      BLT      0x15fc ; _printf_core + 288
        0x00001602:    f8191005    ....    LDRB     r1,[r9,r5]
        0x00001606:    2900        .)      CMP      r1,#0
        0x00001608:    d1f8        ..      BNE      0x15fc ; _printf_core + 288
        0x0000160a:    442e        .D      ADD      r6,r6,r5
        0x0000160c:    e004        ..      B        0x1618 ; _printf_core + 316
        0x0000160e:    f8190b01    ....    LDRB     r0,[r9],#1
        0x00001612:    465a        ZF      MOV      r2,r11
        0x00001614:    990f        ..      LDR      r1,[sp,#0x3c]
        0x00001616:    4790        .G      BLX      r2
        0x00001618:    1e6d        m.      SUBS     r5,r5,#1
        0x0000161a:    d2f8        ..      BCS      0x160e ; _printf_core + 306
        0x0000161c:    e0a5        ..      B        0x176a ; _printf_core + 654
        0x0000161e:    200a        .       MOVS     r0,#0xa
        0x00001620:    2100        .!      MOVS     r1,#0
        0x00001622:    e9cd0108    ....    STRD     r0,r1,[sp,#0x20]
        0x00001626:    f3c55002    ...P    UBFX     r0,r5,#20,#3
        0x0000162a:    2802        .(      CMP      r0,#2
        0x0000162c:    d00d        ..      BEQ      0x164a ; _printf_core + 366
        0x0000162e:    cf01        ..      LDM      r7!,{r0}
        0x00001630:    17c1        ..      ASRS     r1,r0,#31
        0x00001632:    1e03        ..      SUBS     r3,r0,#0
        0x00001634:    f1710300    q...    SBCS     r3,r1,#0
        0x00001638:    da0d        ..      BGE      0x1656 ; _printf_core + 378
        0x0000163a:    f04f0c00    O...    MOV      r12,#0
        0x0000163e:    ebd0000c    ....    RSBS     r0,r0,r12
        0x00001642:    eb6c0101    l...    SBC      r1,r12,r1
        0x00001646:    232d        -#      MOVS     r3,#0x2d
        0x00001648:    e008        ..      B        0x165c ; _printf_core + 384
        0x0000164a:    1dff        ..      ADDS     r7,r7,#7
        0x0000164c:    f0270707    '...    BIC      r7,r7,#7
        0x00001650:    e8f70102    ....    LDRD     r0,r1,[r7],#8
        0x00001654:    e7ed        ..      B        0x1632 ; _printf_core + 342
        0x00001656:    052b        +.      LSLS     r3,r5,#20
        0x00001658:    d504        ..      BPL      0x1664 ; _printf_core + 392
        0x0000165a:    232b        +#      MOVS     r3,#0x2b
        0x0000165c:    f88d3028    ..(0    STRB     r3,[sp,#0x28]
        0x00001660:    2301        .#      MOVS     r3,#1
        0x00001662:    e03b        ;.      B        0x16dc ; _printf_core + 512
        0x00001664:    07eb        ..      LSLS     r3,r5,#31
        0x00001666:    d039        9.      BEQ      0x16dc ; _printf_core + 512
        0x00001668:    2320         #      MOVS     r3,#0x20
        0x0000166a:    e7f7        ..      B        0x165c ; _printf_core + 384
        0x0000166c:    200a        .       MOVS     r0,#0xa
        0x0000166e:    e000        ..      B        0x1672 ; _printf_core + 406
        0x00001670:    2010        .       MOVS     r0,#0x10
        0x00001672:    2100        .!      MOVS     r1,#0
        0x00001674:    e9cd0108    ....    STRD     r0,r1,[sp,#0x20]
        0x00001678:    e007        ..      B        0x168a ; _printf_core + 430
        0x0000167a:    2010        .       MOVS     r0,#0x10
        0x0000167c:    2100        .!      MOVS     r1,#0
        0x0000167e:    f0450504    E...    ORR      r5,r5,#4
        0x00001682:    e9cd0108    ....    STRD     r0,r1,[sp,#0x20]
        0x00001686:    f04f0808    O...    MOV      r8,#8
        0x0000168a:    f3c55002    ...P    UBFX     r0,r5,#20,#3
        0x0000168e:    2802        .(      CMP      r0,#2
        0x00001690:    d00f        ..      BEQ      0x16b2 ; _printf_core + 470
        0x00001692:    cf01        ..      LDM      r7!,{r0}
        0x00001694:    2100        .!      MOVS     r1,#0
        0x00001696:    f04f0a00    O...    MOV      r10,#0
        0x0000169a:    072b        +.      LSLS     r3,r5,#28
        0x0000169c:    d51f        ..      BPL      0x16de ; _printf_core + 514
        0x0000169e:    2a70        p*      CMP      r2,#0x70
        0x000016a0:    d00d        ..      BEQ      0x16be ; _printf_core + 482
        0x000016a2:    e9ddc308    ....    LDRD     r12,r3,[sp,#0x20]
        0x000016a6:    f08c0c10    ....    EOR      r12,r12,#0x10
        0x000016aa:    ea5c0c03    \...    ORRS     r12,r12,r3
        0x000016ae:    d00c        ..      BEQ      0x16ca ; _printf_core + 494
        0x000016b0:    e015        ..      B        0x16de ; _printf_core + 514
        0x000016b2:    1dff        ..      ADDS     r7,r7,#7
        0x000016b4:    f0270707    '...    BIC      r7,r7,#7
        0x000016b8:    e8f70102    ....    LDRD     r0,r1,[r7],#8
        0x000016bc:    e7eb        ..      B        0x1696 ; _printf_core + 442
        0x000016be:    2240        @"      MOVS     r2,#0x40
        0x000016c0:    f88d2028    ..(     STRB     r2,[sp,#0x28]
        0x000016c4:    f04f0a01    O...    MOV      r10,#1
        0x000016c8:    e00b        ..      B        0x16e2 ; _printf_core + 518
        0x000016ca:    ea500301    P...    ORRS     r3,r0,r1
        0x000016ce:    d006        ..      BEQ      0x16de ; _printf_core + 514
        0x000016d0:    2330        0#      MOVS     r3,#0x30
        0x000016d2:    f88d3028    ..(0    STRB     r3,[sp,#0x28]
        0x000016d6:    f88d2029    ..)     STRB     r2,[sp,#0x29]
        0x000016da:    2302        .#      MOVS     r3,#2
        0x000016dc:    469a        .F      MOV      r10,r3
        0x000016de:    2a58        X*      CMP      r2,#0x58
        0x000016e0:    d004        ..      BEQ      0x16ec ; _printf_core + 528
        0x000016e2:    a224        $.      ADR      r2,{pc}+0x92 ; 0x1774
        0x000016e4:    f10d0920    .. .    ADD      r9,sp,#0x20
        0x000016e8:    920b        ..      STR      r2,[sp,#0x2c]
        0x000016ea:    e009        ..      B        0x1700 ; _printf_core + 548
        0x000016ec:    a226        &.      ADR      r2,{pc}+0x9c ; 0x1788
        0x000016ee:    e7f9        ..      B        0x16e4 ; _printf_core + 520
        0x000016f0:    e9dd2308    ...#    LDRD     r2,r3,[sp,#0x20]
        0x000016f4:    f7fffb4f    ..O.    BL       __aeabi_uldivmod ; 0xd96
        0x000016f8:    9b0b        ..      LDR      r3,[sp,#0x2c]
        0x000016fa:    5c9b        .\      LDRB     r3,[r3,r2]
        0x000016fc:    f8093d01    ...=    STRB     r3,[r9,#-1]!
        0x00001700:    ea500201    P...    ORRS     r2,r0,r1
        0x00001704:    d1f4        ..      BNE      0x16f0 ; _printf_core + 532
        0x00001706:    ebad0009    ....    SUB      r0,sp,r9
        0x0000170a:    3020         0      ADDS     r0,r0,#0x20
        0x0000170c:    9008        ..      STR      r0,[sp,#0x20]
        0x0000170e:    0768        h.      LSLS     r0,r5,#29
        0x00001710:    d401        ..      BMI      0x1716 ; _printf_core + 570
        0x00001712:    f04f0801    O...    MOV      r8,#1
        0x00001716:    9908        ..      LDR      r1,[sp,#0x20]
        0x00001718:    4588        .E      CMP      r8,r1
        0x0000171a:    dd02        ..      BLE      0x1722 ; _printf_core + 582
        0x0000171c:    eba80001    ....    SUB      r0,r8,r1
        0x00001720:    e000        ..      B        0x1724 ; _printf_core + 584
        0x00001722:    2000        .       MOVS     r0,#0
        0x00001724:    4680        .F      MOV      r8,r0
        0x00001726:    2500        .%      MOVS     r5,#0
        0x00001728:    e006        ..      B        0x1738 ; _printf_core + 604
        0x0000172a:    a80a        ..      ADD      r0,sp,#0x28
        0x0000172c:    465a        ZF      MOV      r2,r11
        0x0000172e:    5d40        @]      LDRB     r0,[r0,r5]
        0x00001730:    990f        ..      LDR      r1,[sp,#0x3c]
        0x00001732:    4790        .G      BLX      r2
        0x00001734:    1c6d        m.      ADDS     r5,r5,#1
        0x00001736:    1c76        v.      ADDS     r6,r6,#1
        0x00001738:    4555        UE      CMP      r5,r10
        0x0000173a:    dbf6        ..      BLT      0x172a ; _printf_core + 590
        0x0000173c:    e004        ..      B        0x1748 ; _printf_core + 620
        0x0000173e:    2030        0       MOVS     r0,#0x30
        0x00001740:    465a        ZF      MOV      r2,r11
        0x00001742:    990f        ..      LDR      r1,[sp,#0x3c]
        0x00001744:    4790        .G      BLX      r2
        0x00001746:    1c76        v.      ADDS     r6,r6,#1
        0x00001748:    f1b80100    ....    SUBS     r1,r8,#0
        0x0000174c:    f1a80801    ....    SUB      r8,r8,#1
        0x00001750:    dcf5        ..      BGT      0x173e ; _printf_core + 610
        0x00001752:    e005        ..      B        0x1760 ; _printf_core + 644
        0x00001754:    f8190b01    ....    LDRB     r0,[r9],#1
        0x00001758:    465a        ZF      MOV      r2,r11
        0x0000175a:    990f        ..      LDR      r1,[sp,#0x3c]
        0x0000175c:    4790        .G      BLX      r2
        0x0000175e:    1c76        v.      ADDS     r6,r6,#1
        0x00001760:    9908        ..      LDR      r1,[sp,#0x20]
        0x00001762:    1e48        H.      SUBS     r0,r1,#1
        0x00001764:    9008        ..      STR      r0,[sp,#0x20]
        0x00001766:    2900        .)      CMP      r1,#0
        0x00001768:    dcf4        ..      BGT      0x1754 ; _printf_core + 632
        0x0000176a:    1c64        d.      ADDS     r4,r4,#1
        0x0000176c:    e6c5        ..      B        0x14fa ; _printf_core + 30
    $d
        0x0000176e:    0000        ..      DCW    0
        0x00001770:    00012809    .(..    DCD    75785
        0x00001774:    33323130    0123    DCD    858927408
        0x00001778:    37363534    4567    DCD    926299444
        0x0000177c:    62613938    89ab    DCD    1650538808
        0x00001780:    66656463    cdef    DCD    1717920867
        0x00001784:    00000000    ....    DCD    0
        0x00001788:    33323130    0123    DCD    858927408
        0x0000178c:    37363534    4567    DCD    926299444
        0x00001790:    42413938    89AB    DCD    1111570744
        0x00001794:    46454443    CDEF    DCD    1178944579
        0x00001798:    00000000    ....    DCD    0
    $t
    i.fputc
    fputc
        0x0000179c:    b510        ..      PUSH     {r4,lr}
        0x0000179e:    4604        .F      MOV      r4,r0
        0x000017a0:    f7fffd78    ..x.    BL       SendChar ; 0x1294
        0x000017a4:    4620         F      MOV      r0,r4
        0x000017a6:    bd10        ..      POP      {r4,pc}
    i.main
    main
        0x000017a8:    b510        ..      PUSH     {r4,lr}
        0x000017aa:    b086        ..      SUB      sp,sp,#0x18
        0x000017ac:    f7fffd62    ..b.    BL       SYS_UnlockReg ; 0x1274
        0x000017b0:    f7fffd2c    ..,.    BL       SYS_Init ; 0x120c
        0x000017b4:    f7fffdde    ....    BL       UART_Init ; 0x1374
        0x000017b8:    a01a        ..      ADR      r0,{pc}+0x6c ; 0x1824
        0x000017ba:    f7fffe6f    ..o.    BL       __0printf$5 ; 0x149c
        0x000017be:    a01a        ..      ADR      r0,{pc}+0x6a ; 0x1828
        0x000017c0:    f7fffe6c    ..l.    BL       __0printf$5 ; 0x149c
        0x000017c4:    a023        #.      ADR      r0,{pc}+0x90 ; 0x1854
        0x000017c6:    f7fffe69    ..i.    BL       __0printf$5 ; 0x149c
        0x000017ca:    a017        ..      ADR      r0,{pc}+0x5e ; 0x1828
        0x000017cc:    f7fffe66    ..f.    BL       __0printf$5 ; 0x149c
        0x000017d0:    4c2b        +L      LDR      r4,[pc,#172] ; [0x1880] = 0x2000002c
        0x000017d2:    8820         .      LDRH     r0,[r4,#0]
        0x000017d4:    7a23        #z      LDRB     r3,[r4,#8]
        0x000017d6:    b281        ..      UXTH     r1,r0
        0x000017d8:    7922        "y      LDRB     r2,[r4,#4]
        0x000017da:    4668        hF      MOV      r0,sp
        0x000017dc:    f7fff924    ..$.    BL       arm_cfft_radix4_init_f32 ; 0xa28
        0x000017e0:    4928        (I      LDR      r1,[pc,#160] ; [0x1884] = 0x20000040
        0x000017e2:    4668        hF      MOV      r0,sp
        0x000017e4:    f7fff902    ....    BL       arm_cfft_radix4_f32 ; 0x9ec
        0x000017e8:    4927        'I      LDR      r1,[pc,#156] ; [0x1888] = 0x20002044
        0x000017ea:    4826        &H      LDR      r0,[pc,#152] ; [0x1884] = 0x20000040
        0x000017ec:    6822        "h      LDR      r2,[r4,#0]
        0x000017ee:    f7fefd4d    ..M.    BL       arm_cmplx_mag_f32 ; 0x28c
        0x000017f2:    f1040310    ....    ADD      r3,r4,#0x10
        0x000017f6:    aa05        ..      ADD      r2,sp,#0x14
        0x000017f8:    4823        #H      LDR      r0,[pc,#140] ; [0x1888] = 0x20002044
        0x000017fa:    6821        !h      LDR      r1,[r4,#0]
        0x000017fc:    f7fff974    ..t.    BL       arm_max_f32 ; 0xae8
        0x00001800:    e9d40103    ....    LDRD     r0,r1,[r4,#0xc]
        0x00001804:    4281        .B      CMP      r1,r0
        0x00001806:    d001        ..      BEQ      0x180c ; main + 100
        0x00001808:    a020         .      ADR      r0,{pc}+0x84 ; 0x188c
        0x0000180a:    e000        ..      B        0x180e ; main + 102
        0x0000180c:    a029        ).      ADR      r0,{pc}+0xa8 ; 0x18b4
        0x0000180e:    f7fffe45    ..E.    BL       __0printf$5 ; 0x149c
        0x00001812:    f04f4080    O..@    MOV      r0,#0x40000000
        0x00001816:    6801        .h      LDR      r1,[r0,#0]
        0x00001818:    2900        .)      CMP      r1,#0
        0x0000181a:    d1fc        ..      BNE      0x1816 ; main + 110
        0x0000181c:    b006        ..      ADD      sp,sp,#0x18
        0x0000181e:    2000        .       MOVS     r0,#0
        0x00001820:    bd10        ..      POP      {r4,pc}
    $d
        0x00001822:    0000        ..      DCW    0
        0x00001824:    00000a0a    ....    DCD    2570
        0x00001828:    2d2d2d2b    +---    DCD    757935403
        0x0000182c:    2d2d2d2d    ----    DCD    757935405
        0x00001830:    2d2d2d2d    ----    DCD    757935405
        0x00001834:    2d2d2d2d    ----    DCD    757935405
        0x00001838:    2d2d2d2d    ----    DCD    757935405
        0x0000183c:    2d2d2d2d    ----    DCD    757935405
        0x00001840:    2d2d2d2d    ----    DCD    757935405
        0x00001844:    2d2d2d2d    ----    DCD    757935405
        0x00001848:    2d2d2d2d    ----    DCD    757935405
        0x0000184c:    2d2d2d2d    ----    DCD    757935405
        0x00001850:    000a2b2d    -+..    DCD    666413
        0x00001854:    2020207c    |       DCD    538976380
        0x00001858:    20202020            DCD    538976288
        0x0000185c:    20202020            DCD    538976288
        0x00001860:    53442020      DS    DCD    1396973600
        0x00001864:    46462050    P FF    DCD    1179000912
        0x00001868:    61532054    T Sa    DCD    1632837716
        0x0000186c:    656c706d    mple    DCD    1701605485
        0x00001870:    646f4320     Cod    DCD    1685013280
        0x00001874:    20202065    e       DCD    538976357
        0x00001878:    20202020            DCD    538976288
        0x0000187c:    000a7c20     |..    DCD    687136
        0x00001880:    2000002c    ,..     DCD    536870956
        0x00001884:    20000040    @..     DCD    536870976
        0x00001888:    20002044    D .     DCD    536879172
        0x0000188c:    4f525245    ERRO    DCD    1330795077
        0x00001890:    46203a52    R: F    DCD    1176517202
        0x00001894:    63205446    FT c    DCD    1663063110
        0x00001898:    75636c61    alcu    DCD    1969450081
        0x0000189c:    6974616c    lati    DCD    1769234796
        0x000018a0:    72206e6f    on r    DCD    1914728047
        0x000018a4:    6c757365    esul    DCD    1819636581
        0x000018a8:    61662074    t fa    DCD    1634082932
        0x000018ac:    0a216c69    il!.    DCD    169962601
        0x000018b0:    00000000    ....    DCD    0
        0x000018b4:    20544646    FFT     DCD    542393926
        0x000018b8:    636c6163    calc    DCD    1668047203
        0x000018bc:    74616c75    ulat    DCD    1952541813
        0x000018c0:    206e6f69    ion     DCD    544108393
        0x000018c4:    74736574    test    DCD    1953719668
        0x000018c8:    216b6f20     ok!    DCD    560688928
        0x000018cc:    0000000a    ....    DCD    10
    $t
    i.stackDump
    stackDump
        0x000018d0:    b510        ..      PUSH     {r4,lr}
        0x000018d2:    4604        .F      MOV      r4,r0
        0x000018d4:    6801        .h      LDR      r1,[r0,#0]
        0x000018d6:    a010        ..      ADR      r0,{pc}+0x42 ; 0x1918
        0x000018d8:    f7fffde0    ....    BL       __0printf$5 ; 0x149c
        0x000018dc:    a011        ..      ADR      r0,{pc}+0x48 ; 0x1924
        0x000018de:    6861        ah      LDR      r1,[r4,#4]
        0x000018e0:    f7fffddc    ....    BL       __0printf$5 ; 0x149c
        0x000018e4:    a012        ..      ADR      r0,{pc}+0x4c ; 0x1930
        0x000018e6:    68a1        .h      LDR      r1,[r4,#8]
        0x000018e8:    f7fffdd8    ....    BL       __0printf$5 ; 0x149c
        0x000018ec:    a013        ..      ADR      r0,{pc}+0x50 ; 0x193c
        0x000018ee:    68e1        .h      LDR      r1,[r4,#0xc]
        0x000018f0:    f7fffdd4    ....    BL       __0printf$5 ; 0x149c
        0x000018f4:    a014        ..      ADR      r0,{pc}+0x54 ; 0x1948
        0x000018f6:    6921        !i      LDR      r1,[r4,#0x10]
        0x000018f8:    f7fffdd0    ....    BL       __0printf$5 ; 0x149c
        0x000018fc:    a015        ..      ADR      r0,{pc}+0x58 ; 0x1954
        0x000018fe:    6961        ai      LDR      r1,[r4,#0x14]
        0x00001900:    f7fffdcc    ....    BL       __0printf$5 ; 0x149c
        0x00001904:    a016        ..      ADR      r0,{pc}+0x5c ; 0x1960
        0x00001906:    69a1        .i      LDR      r1,[r4,#0x18]
        0x00001908:    f7fffdc8    ....    BL       __0printf$5 ; 0x149c
        0x0000190c:    69e1        .i      LDR      r1,[r4,#0x1c]
        0x0000190e:    e8bd4010    ...@    POP      {r4,lr}
        0x00001912:    a016        ..      ADR      r0,{pc}+0x5a ; 0x196c
        0x00001914:    f7ffbdc2    ....    B.W      __0printf$5 ; 0x149c
    $d
        0x00001918:    20203072    r0      DCD    538980466
        0x0000191c:    7830203d    = 0x    DCD    2016419901
        0x00001920:    000a7825    %x..    DCD    686117
        0x00001924:    20203172    r1      DCD    538980722
        0x00001928:    7830203d    = 0x    DCD    2016419901
        0x0000192c:    000a7825    %x..    DCD    686117
        0x00001930:    20203272    r2      DCD    538980978
        0x00001934:    7830203d    = 0x    DCD    2016419901
        0x00001938:    000a7825    %x..    DCD    686117
        0x0000193c:    20203372    r3      DCD    538981234
        0x00001940:    7830203d    = 0x    DCD    2016419901
        0x00001944:    000a7825    %x..    DCD    686117
        0x00001948:    20323172    r12     DCD    540160370
        0x0000194c:    7830203d    = 0x    DCD    2016419901
        0x00001950:    000a7825    %x..    DCD    686117
        0x00001954:    2020726c    lr      DCD    538997356
        0x00001958:    7830203d    = 0x    DCD    2016419901
        0x0000195c:    000a7825    %x..    DCD    686117
        0x00001960:    20206370    pc      DCD    538993520
        0x00001964:    7830203d    = 0x    DCD    2016419901
        0x00001968:    000a7825    %x..    DCD    686117
        0x0000196c:    20727370    psr     DCD    544371568
        0x00001970:    7830203d    = 0x    DCD    2016419901
        0x00001974:    000a7825    %x..    DCD    686117
    $d.realdata
    .constdata
        0x00001978:    00b71b00    ....    DCD    12000000
        0x0000197c:    00000000    ....    DCD    0
        0x00001980:    00008000    ....    DCD    32768
        0x00001984:    00b71b00    ....    DCD    12000000
        0x00001988:    00b71b00    ....    DCD    12000000
        0x0000198c:    00000000    ....    DCD    0
        0x00001990:    00008000    ....    DCD    32768
        0x00001994:    00b71b00    ....    DCD    12000000
        0x00001998:    00b71b00    ....    DCD    12000000
        0x0000199c:    00000000    ....    DCD    0
        0x000019a0:    00008000    ....    DCD    32768
        0x000019a4:    00b71b00    ....    DCD    12000000
    .constdata
    armBitRevTable
        0x000019a8:    02000400    ....    DCD    33555456
        0x000019ac:    01000600    ....    DCD    16778752
        0x000019b0:    03000500    ....    DCD    50332928
        0x000019b4:    00800700    ....    DCD    8390400
        0x000019b8:    02800480    ....    DCD    41944192
        0x000019bc:    01800680    ....    DCD    25167488
        0x000019c0:    03800580    ....    DCD    58721664
        0x000019c4:    00400780    ..@.    DCD    4196224
        0x000019c8:    02400440    @.@.    DCD    37749824
        0x000019cc:    01400640    @.@.    DCD    20973120
        0x000019d0:    03400540    @.@.    DCD    54527296
        0x000019d4:    00c00740    @...    DCD    12584768
        0x000019d8:    02c004c0    ....    DCD    46138560
        0x000019dc:    01c006c0    ....    DCD    29361856
        0x000019e0:    03c005c0    ....    DCD    62916032
        0x000019e4:    002007c0    .. .    DCD    2099136
        0x000019e8:    02200420     . .    DCD    35652640
        0x000019ec:    01200620     . .    DCD    18875936
        0x000019f0:    03200520     . .    DCD    52430112
        0x000019f4:    00a00720     ...    DCD    10487584
        0x000019f8:    02a004a0    ....    DCD    44041376
        0x000019fc:    01a006a0    ....    DCD    27264672
        0x00001a00:    03a005a0    ....    DCD    60818848
        0x00001a04:    006007a0    ..`.    DCD    6293408
        0x00001a08:    02600460    `.`.    DCD    39847008
        0x00001a0c:    01600660    `.`.    DCD    23070304
        0x00001a10:    03600560    `.`.    DCD    56624480
        0x00001a14:    00e00760    `...    DCD    14681952
        0x00001a18:    02e004e0    ....    DCD    48235744
        0x00001a1c:    01e006e0    ....    DCD    31459040
        0x00001a20:    03e005e0    ....    DCD    65013216
        0x00001a24:    001007e0    ....    DCD    1050592
        0x00001a28:    02100410    ....    DCD    34604048
        0x00001a2c:    01100610    ....    DCD    17827344
        0x00001a30:    03100510    ....    DCD    51381520
        0x00001a34:    00900710    ....    DCD    9438992
        0x00001a38:    02900490    ....    DCD    42992784
        0x00001a3c:    01900690    ....    DCD    26216080
        0x00001a40:    03900590    ....    DCD    59770256
        0x00001a44:    00500790    ..P.    DCD    5244816
        0x00001a48:    02500450    P.P.    DCD    38798416
        0x00001a4c:    01500650    P.P.    DCD    22021712
        0x00001a50:    03500550    P.P.    DCD    55575888
        0x00001a54:    00d00750    P...    DCD    13633360
        0x00001a58:    02d004d0    ....    DCD    47187152
        0x00001a5c:    01d006d0    ....    DCD    30410448
        0x00001a60:    03d005d0    ....    DCD    63964624
        0x00001a64:    003007d0    ..0.    DCD    3147728
        0x00001a68:    02300430    0.0.    DCD    36701232
        0x00001a6c:    01300630    0.0.    DCD    19924528
        0x00001a70:    03300530    0.0.    DCD    53478704
        0x00001a74:    00b00730    0...    DCD    11536176
        0x00001a78:    02b004b0    ....    DCD    45089968
        0x00001a7c:    01b006b0    ....    DCD    28313264
        0x00001a80:    03b005b0    ....    DCD    61867440
        0x00001a84:    007007b0    ..p.    DCD    7342000
        0x00001a88:    02700470    p.p.    DCD    40895600
        0x00001a8c:    01700670    p.p.    DCD    24118896
        0x00001a90:    03700570    p.p.    DCD    57673072
        0x00001a94:    00f00770    p...    DCD    15730544
        0x00001a98:    02f004f0    ....    DCD    49284336
        0x00001a9c:    01f006f0    ....    DCD    32507632
        0x00001aa0:    03f005f0    ....    DCD    66061808
        0x00001aa4:    000807f0    ....    DCD    526320
        0x00001aa8:    02080408    ....    DCD    34079752
        0x00001aac:    01080608    ....    DCD    17303048
        0x00001ab0:    03080508    ....    DCD    50857224
        0x00001ab4:    00880708    ....    DCD    8914696
        0x00001ab8:    02880488    ....    DCD    42468488
        0x00001abc:    01880688    ....    DCD    25691784
        0x00001ac0:    03880588    ....    DCD    59245960
        0x00001ac4:    00480788    ..H.    DCD    4720520
        0x00001ac8:    02480448    H.H.    DCD    38274120
        0x00001acc:    01480648    H.H.    DCD    21497416
        0x00001ad0:    03480548    H.H.    DCD    55051592
        0x00001ad4:    00c80748    H...    DCD    13109064
        0x00001ad8:    02c804c8    ....    DCD    46662856
        0x00001adc:    01c806c8    ....    DCD    29886152
        0x00001ae0:    03c805c8    ....    DCD    63440328
        0x00001ae4:    002807c8    ..(.    DCD    2623432
        0x00001ae8:    02280428    (.(.    DCD    36176936
        0x00001aec:    01280628    (.(.    DCD    19400232
        0x00001af0:    03280528    (.(.    DCD    52954408
        0x00001af4:    00a80728    (...    DCD    11011880
        0x00001af8:    02a804a8    ....    DCD    44565672
        0x00001afc:    01a806a8    ....    DCD    27788968
        0x00001b00:    03a805a8    ....    DCD    61343144
        0x00001b04:    006807a8    ..h.    DCD    6817704
        0x00001b08:    02680468    h.h.    DCD    40371304
        0x00001b0c:    01680668    h.h.    DCD    23594600
        0x00001b10:    03680568    h.h.    DCD    57148776
        0x00001b14:    00e80768    h...    DCD    15206248
        0x00001b18:    02e804e8    ....    DCD    48760040
        0x00001b1c:    01e806e8    ....    DCD    31983336
        0x00001b20:    03e805e8    ....    DCD    65537512
        0x00001b24:    001807e8    ....    DCD    1574888
        0x00001b28:    02180418    ....    DCD    35128344
        0x00001b2c:    01180618    ....    DCD    18351640
        0x00001b30:    03180518    ....    DCD    51905816
        0x00001b34:    00980718    ....    DCD    9963288
        0x00001b38:    02980498    ....    DCD    43517080
        0x00001b3c:    01980698    ....    DCD    26740376
        0x00001b40:    03980598    ....    DCD    60294552
        0x00001b44:    00580798    ..X.    DCD    5769112
        0x00001b48:    02580458    X.X.    DCD    39322712
        0x00001b4c:    01580658    X.X.    DCD    22546008
        0x00001b50:    03580558    X.X.    DCD    56100184
        0x00001b54:    00d80758    X...    DCD    14157656
        0x00001b58:    02d804d8    ....    DCD    47711448
        0x00001b5c:    01d806d8    ....    DCD    30934744
        0x00001b60:    03d805d8    ....    DCD    64488920
        0x00001b64:    003807d8    ..8.    DCD    3672024
        0x00001b68:    02380438    8.8.    DCD    37225528
        0x00001b6c:    01380638    8.8.    DCD    20448824
        0x00001b70:    03380538    8.8.    DCD    54003000
        0x00001b74:    00b80738    8...    DCD    12060472
        0x00001b78:    02b804b8    ....    DCD    45614264
        0x00001b7c:    01b806b8    ....    DCD    28837560
        0x00001b80:    03b805b8    ....    DCD    62391736
        0x00001b84:    007807b8    ..x.    DCD    7866296
        0x00001b88:    02780478    x.x.    DCD    41419896
        0x00001b8c:    01780678    x.x.    DCD    24643192
        0x00001b90:    03780578    x.x.    DCD    58197368
        0x00001b94:    00f80778    x...    DCD    16254840
        0x00001b98:    02f804f8    ....    DCD    49808632
        0x00001b9c:    01f806f8    ....    DCD    33031928
        0x00001ba0:    03f805f8    ....    DCD    66586104
        0x00001ba4:    000407f8    ....    DCD    264184
        0x00001ba8:    02040404    ....    DCD    33817604
        0x00001bac:    01040604    ....    DCD    17040900
        0x00001bb0:    03040504    ....    DCD    50595076
        0x00001bb4:    00840704    ....    DCD    8652548
        0x00001bb8:    02840484    ....    DCD    42206340
        0x00001bbc:    01840684    ....    DCD    25429636
        0x00001bc0:    03840584    ....    DCD    58983812
        0x00001bc4:    00440784    ..D.    DCD    4458372
        0x00001bc8:    02440444    D.D.    DCD    38011972
        0x00001bcc:    01440644    D.D.    DCD    21235268
        0x00001bd0:    03440544    D.D.    DCD    54789444
        0x00001bd4:    00c40744    D...    DCD    12846916
        0x00001bd8:    02c404c4    ....    DCD    46400708
        0x00001bdc:    01c406c4    ....    DCD    29624004
        0x00001be0:    03c405c4    ....    DCD    63178180
        0x00001be4:    002407c4    ..$.    DCD    2361284
        0x00001be8:    02240424    $.$.    DCD    35914788
        0x00001bec:    01240624    $.$.    DCD    19138084
        0x00001bf0:    03240524    $.$.    DCD    52692260
        0x00001bf4:    00a40724    $...    DCD    10749732
        0x00001bf8:    02a404a4    ....    DCD    44303524
        0x00001bfc:    01a406a4    ....    DCD    27526820
        0x00001c00:    03a405a4    ....    DCD    61080996
        0x00001c04:    006407a4    ..d.    DCD    6555556
        0x00001c08:    02640464    d.d.    DCD    40109156
        0x00001c0c:    01640664    d.d.    DCD    23332452
        0x00001c10:    03640564    d.d.    DCD    56886628
        0x00001c14:    00e40764    d...    DCD    14944100
        0x00001c18:    02e404e4    ....    DCD    48497892
        0x00001c1c:    01e406e4    ....    DCD    31721188
        0x00001c20:    03e405e4    ....    DCD    65275364
        0x00001c24:    001407e4    ....    DCD    1312740
        0x00001c28:    02140414    ....    DCD    34866196
        0x00001c2c:    01140614    ....    DCD    18089492
        0x00001c30:    03140514    ....    DCD    51643668
        0x00001c34:    00940714    ....    DCD    9701140
        0x00001c38:    02940494    ....    DCD    43254932
        0x00001c3c:    01940694    ....    DCD    26478228
        0x00001c40:    03940594    ....    DCD    60032404
        0x00001c44:    00540794    ..T.    DCD    5506964
        0x00001c48:    02540454    T.T.    DCD    39060564
        0x00001c4c:    01540654    T.T.    DCD    22283860
        0x00001c50:    03540554    T.T.    DCD    55838036
        0x00001c54:    00d40754    T...    DCD    13895508
        0x00001c58:    02d404d4    ....    DCD    47449300
        0x00001c5c:    01d406d4    ....    DCD    30672596
        0x00001c60:    03d405d4    ....    DCD    64226772
        0x00001c64:    003407d4    ..4.    DCD    3409876
        0x00001c68:    02340434    4.4.    DCD    36963380
        0x00001c6c:    01340634    4.4.    DCD    20186676
        0x00001c70:    03340534    4.4.    DCD    53740852
        0x00001c74:    00b40734    4...    DCD    11798324
        0x00001c78:    02b404b4    ....    DCD    45352116
        0x00001c7c:    01b406b4    ....    DCD    28575412
        0x00001c80:    03b405b4    ....    DCD    62129588
        0x00001c84:    007407b4    ..t.    DCD    7604148
        0x00001c88:    02740474    t.t.    DCD    41157748
        0x00001c8c:    01740674    t.t.    DCD    24381044
        0x00001c90:    03740574    t.t.    DCD    57935220
        0x00001c94:    00f40774    t...    DCD    15992692
        0x00001c98:    02f404f4    ....    DCD    49546484
        0x00001c9c:    01f406f4    ....    DCD    32769780
        0x00001ca0:    03f405f4    ....    DCD    66323956
        0x00001ca4:    000c07f4    ....    DCD    788468
        0x00001ca8:    020c040c    ....    DCD    34341900
        0x00001cac:    010c060c    ....    DCD    17565196
        0x00001cb0:    030c050c    ....    DCD    51119372
        0x00001cb4:    008c070c    ....    DCD    9176844
        0x00001cb8:    028c048c    ....    DCD    42730636
        0x00001cbc:    018c068c    ....    DCD    25953932
        0x00001cc0:    038c058c    ....    DCD    59508108
        0x00001cc4:    004c078c    ..L.    DCD    4982668
        0x00001cc8:    024c044c    L.L.    DCD    38536268
        0x00001ccc:    014c064c    L.L.    DCD    21759564
        0x00001cd0:    034c054c    L.L.    DCD    55313740
        0x00001cd4:    00cc074c    L...    DCD    13371212
        0x00001cd8:    02cc04cc    ....    DCD    46925004
        0x00001cdc:    01cc06cc    ....    DCD    30148300
        0x00001ce0:    03cc05cc    ....    DCD    63702476
        0x00001ce4:    002c07cc    ..,.    DCD    2885580
        0x00001ce8:    022c042c    ,.,.    DCD    36439084
        0x00001cec:    012c062c    ,.,.    DCD    19662380
        0x00001cf0:    032c052c    ,.,.    DCD    53216556
        0x00001cf4:    00ac072c    ,...    DCD    11274028
        0x00001cf8:    02ac04ac    ....    DCD    44827820
        0x00001cfc:    01ac06ac    ....    DCD    28051116
        0x00001d00:    03ac05ac    ....    DCD    61605292
        0x00001d04:    006c07ac    ..l.    DCD    7079852
        0x00001d08:    026c046c    l.l.    DCD    40633452
        0x00001d0c:    016c066c    l.l.    DCD    23856748
        0x00001d10:    036c056c    l.l.    DCD    57410924
        0x00001d14:    00ec076c    l...    DCD    15468396
        0x00001d18:    02ec04ec    ....    DCD    49022188
        0x00001d1c:    01ec06ec    ....    DCD    32245484
        0x00001d20:    03ec05ec    ....    DCD    65799660
        0x00001d24:    001c07ec    ....    DCD    1837036
        0x00001d28:    021c041c    ....    DCD    35390492
        0x00001d2c:    011c061c    ....    DCD    18613788
        0x00001d30:    031c051c    ....    DCD    52167964
        0x00001d34:    009c071c    ....    DCD    10225436
        0x00001d38:    029c049c    ....    DCD    43779228
        0x00001d3c:    019c069c    ....    DCD    27002524
        0x00001d40:    039c059c    ....    DCD    60556700
        0x00001d44:    005c079c    ..\.    DCD    6031260
        0x00001d48:    025c045c    \.\.    DCD    39584860
        0x00001d4c:    015c065c    \.\.    DCD    22808156
        0x00001d50:    035c055c    \.\.    DCD    56362332
        0x00001d54:    00dc075c    \...    DCD    14419804
        0x00001d58:    02dc04dc    ....    DCD    47973596
        0x00001d5c:    01dc06dc    ....    DCD    31196892
        0x00001d60:    03dc05dc    ....    DCD    64751068
        0x00001d64:    003c07dc    ..<.    DCD    3934172
        0x00001d68:    023c043c    <.<.    DCD    37487676
        0x00001d6c:    013c063c    <.<.    DCD    20710972
        0x00001d70:    033c053c    <.<.    DCD    54265148
        0x00001d74:    00bc073c    <...    DCD    12322620
        0x00001d78:    02bc04bc    ....    DCD    45876412
        0x00001d7c:    01bc06bc    ....    DCD    29099708
        0x00001d80:    03bc05bc    ....    DCD    62653884
        0x00001d84:    007c07bc    ..|.    DCD    8128444
        0x00001d88:    027c047c    |.|.    DCD    41682044
        0x00001d8c:    017c067c    |.|.    DCD    24905340
        0x00001d90:    037c057c    |.|.    DCD    58459516
        0x00001d94:    00fc077c    |...    DCD    16516988
        0x00001d98:    02fc04fc    ....    DCD    50070780
        0x00001d9c:    01fc06fc    ....    DCD    33294076
        0x00001da0:    03fc05fc    ....    DCD    66848252
        0x00001da4:    000207fc    ....    DCD    133116
        0x00001da8:    02020402    ....    DCD    33686530
        0x00001dac:    01020602    ....    DCD    16909826
        0x00001db0:    03020502    ....    DCD    50464002
        0x00001db4:    00820702    ....    DCD    8521474
        0x00001db8:    02820482    ....    DCD    42075266
        0x00001dbc:    01820682    ....    DCD    25298562
        0x00001dc0:    03820582    ....    DCD    58852738
        0x00001dc4:    00420782    ..B.    DCD    4327298
        0x00001dc8:    02420442    B.B.    DCD    37880898
        0x00001dcc:    01420642    B.B.    DCD    21104194
        0x00001dd0:    03420542    B.B.    DCD    54658370
        0x00001dd4:    00c20742    B...    DCD    12715842
        0x00001dd8:    02c204c2    ....    DCD    46269634
        0x00001ddc:    01c206c2    ....    DCD    29492930
        0x00001de0:    03c205c2    ....    DCD    63047106
        0x00001de4:    002207c2    ..".    DCD    2230210
        0x00001de8:    02220422    ".".    DCD    35783714
        0x00001dec:    01220622    ".".    DCD    19007010
        0x00001df0:    03220522    ".".    DCD    52561186
        0x00001df4:    00a20722    "...    DCD    10618658
        0x00001df8:    02a204a2    ....    DCD    44172450
        0x00001dfc:    01a206a2    ....    DCD    27395746
        0x00001e00:    03a205a2    ....    DCD    60949922
        0x00001e04:    006207a2    ..b.    DCD    6424482
        0x00001e08:    02620462    b.b.    DCD    39978082
        0x00001e0c:    01620662    b.b.    DCD    23201378
        0x00001e10:    03620562    b.b.    DCD    56755554
        0x00001e14:    00e20762    b...    DCD    14813026
        0x00001e18:    02e204e2    ....    DCD    48366818
        0x00001e1c:    01e206e2    ....    DCD    31590114
        0x00001e20:    03e205e2    ....    DCD    65144290
        0x00001e24:    001207e2    ....    DCD    1181666
        0x00001e28:    02120412    ....    DCD    34735122
        0x00001e2c:    01120612    ....    DCD    17958418
        0x00001e30:    03120512    ....    DCD    51512594
        0x00001e34:    00920712    ....    DCD    9570066
        0x00001e38:    02920492    ....    DCD    43123858
        0x00001e3c:    01920692    ....    DCD    26347154
        0x00001e40:    03920592    ....    DCD    59901330
        0x00001e44:    00520792    ..R.    DCD    5375890
        0x00001e48:    02520452    R.R.    DCD    38929490
        0x00001e4c:    01520652    R.R.    DCD    22152786
        0x00001e50:    03520552    R.R.    DCD    55706962
        0x00001e54:    00d20752    R...    DCD    13764434
        0x00001e58:    02d204d2    ....    DCD    47318226
        0x00001e5c:    01d206d2    ....    DCD    30541522
        0x00001e60:    03d205d2    ....    DCD    64095698
        0x00001e64:    003207d2    ..2.    DCD    3278802
        0x00001e68:    02320432    2.2.    DCD    36832306
        0x00001e6c:    01320632    2.2.    DCD    20055602
        0x00001e70:    03320532    2.2.    DCD    53609778
        0x00001e74:    00b20732    2...    DCD    11667250
        0x00001e78:    02b204b2    ....    DCD    45221042
        0x00001e7c:    01b206b2    ....    DCD    28444338
        0x00001e80:    03b205b2    ....    DCD    61998514
        0x00001e84:    007207b2    ..r.    DCD    7473074
        0x00001e88:    02720472    r.r.    DCD    41026674
        0x00001e8c:    01720672    r.r.    DCD    24249970
        0x00001e90:    03720572    r.r.    DCD    57804146
        0x00001e94:    00f20772    r...    DCD    15861618
        0x00001e98:    02f204f2    ....    DCD    49415410
        0x00001e9c:    01f206f2    ....    DCD    32638706
        0x00001ea0:    03f205f2    ....    DCD    66192882
        0x00001ea4:    000a07f2    ....    DCD    657394
        0x00001ea8:    020a040a    ....    DCD    34210826
        0x00001eac:    010a060a    ....    DCD    17434122
        0x00001eb0:    030a050a    ....    DCD    50988298
        0x00001eb4:    008a070a    ....    DCD    9045770
        0x00001eb8:    028a048a    ....    DCD    42599562
        0x00001ebc:    018a068a    ....    DCD    25822858
        0x00001ec0:    038a058a    ....    DCD    59377034
        0x00001ec4:    004a078a    ..J.    DCD    4851594
        0x00001ec8:    024a044a    J.J.    DCD    38405194
        0x00001ecc:    014a064a    J.J.    DCD    21628490
        0x00001ed0:    034a054a    J.J.    DCD    55182666
        0x00001ed4:    00ca074a    J...    DCD    13240138
        0x00001ed8:    02ca04ca    ....    DCD    46793930
        0x00001edc:    01ca06ca    ....    DCD    30017226
        0x00001ee0:    03ca05ca    ....    DCD    63571402
        0x00001ee4:    002a07ca    ..*.    DCD    2754506
        0x00001ee8:    022a042a    *.*.    DCD    36308010
        0x00001eec:    012a062a    *.*.    DCD    19531306
        0x00001ef0:    032a052a    *.*.    DCD    53085482
        0x00001ef4:    00aa072a    *...    DCD    11142954
        0x00001ef8:    02aa04aa    ....    DCD    44696746
        0x00001efc:    01aa06aa    ....    DCD    27920042
        0x00001f00:    03aa05aa    ....    DCD    61474218
        0x00001f04:    006a07aa    ..j.    DCD    6948778
        0x00001f08:    026a046a    j.j.    DCD    40502378
        0x00001f0c:    016a066a    j.j.    DCD    23725674
        0x00001f10:    036a056a    j.j.    DCD    57279850
        0x00001f14:    00ea076a    j...    DCD    15337322
        0x00001f18:    02ea04ea    ....    DCD    48891114
        0x00001f1c:    01ea06ea    ....    DCD    32114410
        0x00001f20:    03ea05ea    ....    DCD    65668586
        0x00001f24:    001a07ea    ....    DCD    1705962
        0x00001f28:    021a041a    ....    DCD    35259418
        0x00001f2c:    011a061a    ....    DCD    18482714
        0x00001f30:    031a051a    ....    DCD    52036890
        0x00001f34:    009a071a    ....    DCD    10094362
        0x00001f38:    029a049a    ....    DCD    43648154
        0x00001f3c:    019a069a    ....    DCD    26871450
        0x00001f40:    039a059a    ....    DCD    60425626
        0x00001f44:    005a079a    ..Z.    DCD    5900186
        0x00001f48:    025a045a    Z.Z.    DCD    39453786
        0x00001f4c:    015a065a    Z.Z.    DCD    22677082
        0x00001f50:    035a055a    Z.Z.    DCD    56231258
        0x00001f54:    00da075a    Z...    DCD    14288730
        0x00001f58:    02da04da    ....    DCD    47842522
        0x00001f5c:    01da06da    ....    DCD    31065818
        0x00001f60:    03da05da    ....    DCD    64619994
        0x00001f64:    003a07da    ..:.    DCD    3803098
        0x00001f68:    023a043a    :.:.    DCD    37356602
        0x00001f6c:    013a063a    :.:.    DCD    20579898
        0x00001f70:    033a053a    :.:.    DCD    54134074
        0x00001f74:    00ba073a    :...    DCD    12191546
        0x00001f78:    02ba04ba    ....    DCD    45745338
        0x00001f7c:    01ba06ba    ....    DCD    28968634
        0x00001f80:    03ba05ba    ....    DCD    62522810
        0x00001f84:    007a07ba    ..z.    DCD    7997370
        0x00001f88:    027a047a    z.z.    DCD    41550970
        0x00001f8c:    017a067a    z.z.    DCD    24774266
        0x00001f90:    037a057a    z.z.    DCD    58328442
        0x00001f94:    00fa077a    z...    DCD    16385914
        0x00001f98:    02fa04fa    ....    DCD    49939706
        0x00001f9c:    01fa06fa    ....    DCD    33163002
        0x00001fa0:    03fa05fa    ....    DCD    66717178
        0x00001fa4:    000607fa    ....    DCD    395258
        0x00001fa8:    02060406    ....    DCD    33948678
        0x00001fac:    01060606    ....    DCD    17171974
        0x00001fb0:    03060506    ....    DCD    50726150
        0x00001fb4:    00860706    ....    DCD    8783622
        0x00001fb8:    02860486    ....    DCD    42337414
        0x00001fbc:    01860686    ....    DCD    25560710
        0x00001fc0:    03860586    ....    DCD    59114886
        0x00001fc4:    00460786    ..F.    DCD    4589446
        0x00001fc8:    02460446    F.F.    DCD    38143046
        0x00001fcc:    01460646    F.F.    DCD    21366342
        0x00001fd0:    03460546    F.F.    DCD    54920518
        0x00001fd4:    00c60746    F...    DCD    12977990
        0x00001fd8:    02c604c6    ....    DCD    46531782
        0x00001fdc:    01c606c6    ....    DCD    29755078
        0x00001fe0:    03c605c6    ....    DCD    63309254
        0x00001fe4:    002607c6    ..&.    DCD    2492358
        0x00001fe8:    02260426    &.&.    DCD    36045862
        0x00001fec:    01260626    &.&.    DCD    19269158
        0x00001ff0:    03260526    &.&.    DCD    52823334
        0x00001ff4:    00a60726    &...    DCD    10880806
        0x00001ff8:    02a604a6    ....    DCD    44434598
        0x00001ffc:    01a606a6    ....    DCD    27657894
        0x00002000:    03a605a6    ....    DCD    61212070
        0x00002004:    006607a6    ..f.    DCD    6686630
        0x00002008:    02660466    f.f.    DCD    40240230
        0x0000200c:    01660666    f.f.    DCD    23463526
        0x00002010:    03660566    f.f.    DCD    57017702
        0x00002014:    00e60766    f...    DCD    15075174
        0x00002018:    02e604e6    ....    DCD    48628966
        0x0000201c:    01e606e6    ....    DCD    31852262
        0x00002020:    03e605e6    ....    DCD    65406438
        0x00002024:    001607e6    ....    DCD    1443814
        0x00002028:    02160416    ....    DCD    34997270
        0x0000202c:    01160616    ....    DCD    18220566
        0x00002030:    03160516    ....    DCD    51774742
        0x00002034:    00960716    ....    DCD    9832214
        0x00002038:    02960496    ....    DCD    43386006
        0x0000203c:    01960696    ....    DCD    26609302
        0x00002040:    03960596    ....    DCD    60163478
        0x00002044:    00560796    ..V.    DCD    5638038
        0x00002048:    02560456    V.V.    DCD    39191638
        0x0000204c:    01560656    V.V.    DCD    22414934
        0x00002050:    03560556    V.V.    DCD    55969110
        0x00002054:    00d60756    V...    DCD    14026582
        0x00002058:    02d604d6    ....    DCD    47580374
        0x0000205c:    01d606d6    ....    DCD    30803670
        0x00002060:    03d605d6    ....    DCD    64357846
        0x00002064:    003607d6    ..6.    DCD    3540950
        0x00002068:    02360436    6.6.    DCD    37094454
        0x0000206c:    01360636    6.6.    DCD    20317750
        0x00002070:    03360536    6.6.    DCD    53871926
        0x00002074:    00b60736    6...    DCD    11929398
        0x00002078:    02b604b6    ....    DCD    45483190
        0x0000207c:    01b606b6    ....    DCD    28706486
        0x00002080:    03b605b6    ....    DCD    62260662
        0x00002084:    007607b6    ..v.    DCD    7735222
        0x00002088:    02760476    v.v.    DCD    41288822
        0x0000208c:    01760676    v.v.    DCD    24512118
        0x00002090:    03760576    v.v.    DCD    58066294
        0x00002094:    00f60776    v...    DCD    16123766
        0x00002098:    02f604f6    ....    DCD    49677558
        0x0000209c:    01f606f6    ....    DCD    32900854
        0x000020a0:    03f605f6    ....    DCD    66455030
        0x000020a4:    000e07f6    ....    DCD    919542
        0x000020a8:    020e040e    ....    DCD    34472974
        0x000020ac:    010e060e    ....    DCD    17696270
        0x000020b0:    030e050e    ....    DCD    51250446
        0x000020b4:    008e070e    ....    DCD    9307918
        0x000020b8:    028e048e    ....    DCD    42861710
        0x000020bc:    018e068e    ....    DCD    26085006
        0x000020c0:    038e058e    ....    DCD    59639182
        0x000020c4:    004e078e    ..N.    DCD    5113742
        0x000020c8:    024e044e    N.N.    DCD    38667342
        0x000020cc:    014e064e    N.N.    DCD    21890638
        0x000020d0:    034e054e    N.N.    DCD    55444814
        0x000020d4:    00ce074e    N...    DCD    13502286
        0x000020d8:    02ce04ce    ....    DCD    47056078
        0x000020dc:    01ce06ce    ....    DCD    30279374
        0x000020e0:    03ce05ce    ....    DCD    63833550
        0x000020e4:    002e07ce    ....    DCD    3016654
        0x000020e8:    022e042e    ....    DCD    36570158
        0x000020ec:    012e062e    ....    DCD    19793454
        0x000020f0:    032e052e    ....    DCD    53347630
        0x000020f4:    00ae072e    ....    DCD    11405102
        0x000020f8:    02ae04ae    ....    DCD    44958894
        0x000020fc:    01ae06ae    ....    DCD    28182190
        0x00002100:    03ae05ae    ....    DCD    61736366
        0x00002104:    006e07ae    ..n.    DCD    7210926
        0x00002108:    026e046e    n.n.    DCD    40764526
        0x0000210c:    016e066e    n.n.    DCD    23987822
        0x00002110:    036e056e    n.n.    DCD    57541998
        0x00002114:    00ee076e    n...    DCD    15599470
        0x00002118:    02ee04ee    ....    DCD    49153262
        0x0000211c:    01ee06ee    ....    DCD    32376558
        0x00002120:    03ee05ee    ....    DCD    65930734
        0x00002124:    001e07ee    ....    DCD    1968110
        0x00002128:    021e041e    ....    DCD    35521566
        0x0000212c:    011e061e    ....    DCD    18744862
        0x00002130:    031e051e    ....    DCD    52299038
        0x00002134:    009e071e    ....    DCD    10356510
        0x00002138:    029e049e    ....    DCD    43910302
        0x0000213c:    019e069e    ....    DCD    27133598
        0x00002140:    039e059e    ....    DCD    60687774
        0x00002144:    005e079e    ..^.    DCD    6162334
        0x00002148:    025e045e    ^.^.    DCD    39715934
        0x0000214c:    015e065e    ^.^.    DCD    22939230
        0x00002150:    035e055e    ^.^.    DCD    56493406
        0x00002154:    00de075e    ^...    DCD    14550878
        0x00002158:    02de04de    ....    DCD    48104670
        0x0000215c:    01de06de    ....    DCD    31327966
        0x00002160:    03de05de    ....    DCD    64882142
        0x00002164:    003e07de    ..>.    DCD    4065246
        0x00002168:    023e043e    >.>.    DCD    37618750
        0x0000216c:    013e063e    >.>.    DCD    20842046
        0x00002170:    033e053e    >.>.    DCD    54396222
        0x00002174:    00be073e    >...    DCD    12453694
        0x00002178:    02be04be    ....    DCD    46007486
        0x0000217c:    01be06be    ....    DCD    29230782
        0x00002180:    03be05be    ....    DCD    62784958
        0x00002184:    007e07be    ..~.    DCD    8259518
        0x00002188:    027e047e    ~.~.    DCD    41813118
        0x0000218c:    017e067e    ~.~.    DCD    25036414
        0x00002190:    037e057e    ~.~.    DCD    58590590
        0x00002194:    00fe077e    ~...    DCD    16648062
        0x00002198:    02fe04fe    ....    DCD    50201854
        0x0000219c:    01fe06fe    ....    DCD    33425150
        0x000021a0:    03fe05fe    ....    DCD    66979326
        0x000021a4:    000107fe    ....    DCD    67582
    .constdata
    twiddleCoef_4096
        0x000021a8:    3f800000    ...?    DCD    1065353216
        0x000021ac:    00000000    ....    DCD    0
        0x000021b0:    3f7fffec    ...?    DCD    1065353196
        0x000021b4:    3ac90fd4    ...:    DCD    986255316
        0x000021b8:    3f7fffb1    ...?    DCD    1065353137
        0x000021bc:    3b490fc7    ..I;    DCD    994643911
        0x000021c0:    3f7fff4e    N..?    DCD    1065353038
        0x000021c4:    3b96cbc1    ...;    DCD    999738305
        0x000021c8:    3f7ffec4    ...?    DCD    1065352900
        0x000021cc:    3bc90f89    ...;    DCD    1003032457
        0x000021d0:    3f7ffe13    ...?    DCD    1065352723
        0x000021d4:    3bfb5330    0S.;    DCD    1006326576
        0x000021d8:    3f7ffd39    9..?    DCD    1065352505
        0x000021dc:    3c16cb59    Y..<    DCD    1008126809
        0x000021e0:    3f7ffc39    9..?    DCD    1065352249
        0x000021e4:    3c2fed02    ../<    DCD    1009773826
        0x000021e8:    3f7ffb11    ...?    DCD    1065351953
        0x000021ec:    3c490e90    ..I<    DCD    1011420816
        0x000021f0:    3f7ff9c1    ...?    DCD    1065351617
        0x000021f4:    3c623000    .0b<    DCD    1013067776
        0x000021f8:    3f7ff84a    J..?    DCD    1065351242
        0x000021fc:    3c7b514b    KQ{<    DCD    1014714699
        0x00002200:    3f7ff6ac    ...?    DCD    1065350828
        0x00002204:    3c8a3938    89.<    DCD    1015691576
        0x00002208:    3f7ff4e6    ...?    DCD    1065350374
        0x0000220c:    3c96c9b6    ...<    DCD    1016514998
        0x00002210:    3f7ff2f8    ...?    DCD    1065349880
        0x00002214:    3ca35a1c    .Z.<    DCD    1017338396
        0x00002218:    3f7ff0e3    ...?    DCD    1065349347
        0x0000221c:    3cafea69    i..<    DCD    1018161769
        0x00002220:    3f7feea7    ...?    DCD    1065348775
        0x00002224:    3cbc7a9b    .z.<    DCD    1018985115
        0x00002228:    3f7fec43    C..?    DCD    1065348163
        0x0000222c:    3cc90ab0    ...<    DCD    1019808432
        0x00002230:    3f7fe9b8    ...?    DCD    1065347512
        0x00002234:    3cd59aa6    ...<    DCD    1020631718
        0x00002238:    3f7fe705    ...?    DCD    1065346821
        0x0000223c:    3ce22a7b    {*.<    DCD    1021454971
        0x00002240:    3f7fe42b    +..?    DCD    1065346091
        0x00002244:    3ceeba2d    -..<    DCD    1022278189
        0x00002248:    3f7fe129    )..?    DCD    1065345321
        0x0000224c:    3cfb49b9    .I.<    DCD    1023101369
        0x00002250:    3f7fde00    ...?    DCD    1065344512
        0x00002254:    3d03ec90    ...=    DCD    1023667344
        0x00002258:    3f7fdaaf    ...?    DCD    1065343663
        0x0000225c:    3d0a342f    /4.=    DCD    1024078895
        0x00002260:    3f7fd737    7..?    DCD    1065342775
        0x00002264:    3d107bb8    .{.=    DCD    1024490424
        0x00002268:    3f7fd398    ...?    DCD    1065341848
        0x0000226c:    3d16c32c    ,..=    DCD    1024901932
        0x00002270:    3f7fcfd1    ...?    DCD    1065340881
        0x00002274:    3d1d0a88    ...=    DCD    1025313416
        0x00002278:    3f7fcbe2    ...?    DCD    1065339874
        0x0000227c:    3d2351cc    .Q#=    DCD    1025724876
        0x00002280:    3f7fc7cc    ...?    DCD    1065338828
        0x00002284:    3d2998f6    ..)=    DCD    1026136310
        0x00002288:    3f7fc38f    ...?    DCD    1065337743
        0x0000228c:    3d2fe007    ../=    DCD    1026547719
        0x00002290:    3f7fbf2a    *..?    DCD    1065336618
        0x00002294:    3d3626fc    .&6=    DCD    1026959100
        0x00002298:    3f7fba9e    ...?    DCD    1065335454
        0x0000229c:    3d3c6dd5    .m<=    DCD    1027370453
        0x000022a0:    3f7fb5ea    ...?    DCD    1065334250
        0x000022a4:    3d42b491    ..B=    DCD    1027781777
        0x000022a8:    3f7fb10f    ...?    DCD    1065333007
        0x000022ac:    3d48fb2f    /.H=    DCD    1028193071
        0x000022b0:    3f7fac0d    ...?    DCD    1065331725
        0x000022b4:    3d4f41af    .AO=    DCD    1028604335
        0x000022b8:    3f7fa6e3    ...?    DCD    1065330403
        0x000022bc:    3d55880e    ..U=    DCD    1029015566
        0x000022c0:    3f7fa191    ...?    DCD    1065329041
        0x000022c4:    3d5bce4c    L.[=    DCD    1029426764
        0x000022c8:    3f7f9c18    ...?    DCD    1065327640
        0x000022cc:    3d621468    h.b=    DCD    1029837928
        0x000022d0:    3f7f9678    x..?    DCD    1065326200
        0x000022d4:    3d685a62    bZh=    DCD    1030249058
        0x000022d8:    3f7f90b1    ...?    DCD    1065324721
        0x000022dc:    3d6ea038    8.n=    DCD    1030660152
        0x000022e0:    3f7f8ac2    ...?    DCD    1065323202
        0x000022e4:    3d74e5e9    ..t=    DCD    1031071209
        0x000022e8:    3f7f84ab    ...?    DCD    1065321643
        0x000022ec:    3d7b2b74    t+{=    DCD    1031482228
        0x000022f0:    3f7f7e6d    m~.?    DCD    1065320045
        0x000022f4:    3d80b86c    l..=    DCD    1031845996
        0x000022f8:    3f7f7808    .x.?    DCD    1065318408
        0x000022fc:    3d83db0a    ...=    DCD    1032051466
        0x00002300:    3f7f717b    {q.?    DCD    1065316731
        0x00002304:    3d86fd94    ...=    DCD    1032256916
        0x00002308:    3f7f6ac7    .j.?    DCD    1065315015
        0x0000230c:    3d8a200a    . .=    DCD    1032462346
        0x00002310:    3f7f63ec    .c.?    DCD    1065313260
        0x00002314:    3d8d426a    jB.=    DCD    1032667754
        0x00002318:    3f7f5ce9    .\.?    DCD    1065311465
        0x0000231c:    3d9064b4    .d.=    DCD    1032873140
        0x00002320:    3f7f55bf    .U.?    DCD    1065309631
        0x00002324:    3d9386e7    ...=    DCD    1033078503
        0x00002328:    3f7f4e6d    mN.?    DCD    1065307757
        0x0000232c:    3d96a905    ...=    DCD    1033283845
        0x00002330:    3f7f46f4    .F.?    DCD    1065305844
        0x00002334:    3d99cb0a    ...=    DCD    1033489162
        0x00002338:    3f7f3f54    T?.?    DCD    1065303892
        0x0000233c:    3d9cecf9    ...=    DCD    1033694457
        0x00002340:    3f7f378d    .7.?    DCD    1065301901
        0x00002344:    3da00ecf    ...=    DCD    1033899727
        0x00002348:    3f7f2f9d    ./.?    DCD    1065299869
        0x0000234c:    3da3308c    .0.=    DCD    1034104972
        0x00002350:    3f7f2787    .'.?    DCD    1065297799
        0x00002354:    3da65230    0R.=    DCD    1034310192
        0x00002358:    3f7f1f49    I..?    DCD    1065295689
        0x0000235c:    3da973ba    .s.=    DCD    1034515386
        0x00002360:    3f7f16e4    ...?    DCD    1065293540
        0x00002364:    3dac952b    +..=    DCD    1034720555
        0x00002368:    3f7f0e58    X..?    DCD    1065291352
        0x0000236c:    3dafb680    ...=    DCD    1034925696
        0x00002370:    3f7f05a4    ...?    DCD    1065289124
        0x00002374:    3db2d7bb    ...=    DCD    1035130811
        0x00002378:    3f7efcc9    ..~?    DCD    1065286857
        0x0000237c:    3db5f8da    ...=    DCD    1035335898
        0x00002380:    3f7ef3c7    ..~?    DCD    1065284551
        0x00002384:    3db919dd    ...=    DCD    1035540957
        0x00002388:    3f7eea9d    ..~?    DCD    1065282205
        0x0000238c:    3dbc3ac3    .:.=    DCD    1035745987
        0x00002390:    3f7ee14c    L.~?    DCD    1065279820
        0x00002394:    3dbf5b8d    .[.=    DCD    1035950989
        0x00002398:    3f7ed7d4    ..~?    DCD    1065277396
        0x0000239c:    3dc27c39    9|.=    DCD    1036155961
        0x000023a0:    3f7ece34    4.~?    DCD    1065274932
        0x000023a4:    3dc59cc6    ...=    DCD    1036360902
        0x000023a8:    3f7ec46d    m.~?    DCD    1065272429
        0x000023ac:    3dc8bd36    6..=    DCD    1036565814
        0x000023b0:    3f7eba7f    ..~?    DCD    1065269887
        0x000023b4:    3dcbdd86    ...=    DCD    1036770694
        0x000023b8:    3f7eb069    i.~?    DCD    1065267305
        0x000023bc:    3dcefdb7    ...=    DCD    1036975543
        0x000023c0:    3f7ea62d    -.~?    DCD    1065264685
        0x000023c4:    3dd21dc8    ...=    DCD    1037180360
        0x000023c8:    3f7e9bc9    ..~?    DCD    1065262025
        0x000023cc:    3dd53db9    .=.=    DCD    1037385145
        0x000023d0:    3f7e913d    =.~?    DCD    1065259325
        0x000023d4:    3dd85d89    .].=    DCD    1037589897
        0x000023d8:    3f7e868b    ..~?    DCD    1065256587
        0x000023dc:    3ddb7d37    7}.=    DCD    1037794615
        0x000023e0:    3f7e7bb1    .{~?    DCD    1065253809
        0x000023e4:    3dde9cc4    ...=    DCD    1037999300
        0x000023e8:    3f7e70b0    .p~?    DCD    1065250992
        0x000023ec:    3de1bc2e    ...=    DCD    1038203950
        0x000023f0:    3f7e6588    .e~?    DCD    1065248136
        0x000023f4:    3de4db76    v..=    DCD    1038408566
        0x000023f8:    3f7e5a38    8Z~?    DCD    1065245240
        0x000023fc:    3de7fa9a    ...=    DCD    1038613146
        0x00002400:    3f7e4ec1    .N~?    DCD    1065242305
        0x00002404:    3deb199a    ...=    DCD    1038817690
        0x00002408:    3f7e4323    #C~?    DCD    1065239331
        0x0000240c:    3dee3876    v8.=    DCD    1039022198
        0x00002410:    3f7e375e    ^7~?    DCD    1065236318
        0x00002414:    3df1572e    .W.=    DCD    1039226670
        0x00002418:    3f7e2b72    r+~?    DCD    1065233266
        0x0000241c:    3df475c0    .u.=    DCD    1039431104
        0x00002420:    3f7e1f5e    ^.~?    DCD    1065230174
        0x00002424:    3df7942c    ,..=    DCD    1039635500
        0x00002428:    3f7e1324    $.~?    DCD    1065227044
        0x0000242c:    3dfab273    s..=    DCD    1039839859
        0x00002430:    3f7e06c2    ..~?    DCD    1065223874
        0x00002434:    3dfdd092    ...=    DCD    1040044178
        0x00002438:    3f7dfa38    8.}?    DCD    1065220664
        0x0000243c:    3e007745    Ew.>    DCD    1040217925
        0x00002440:    3f7ded88    ..}?    DCD    1065217416
        0x00002444:    3e02062e    ...>    DCD    1040320046
        0x00002448:    3f7de0b1    ..}?    DCD    1065214129
        0x0000244c:    3e039502    ...>    DCD    1040422146
        0x00002450:    3f7dd3b2    ..}?    DCD    1065210802
        0x00002454:    3e0523c2    .#.>    DCD    1040524226
        0x00002458:    3f7dc68c    ..}?    DCD    1065207436
        0x0000245c:    3e06b26e    n..>    DCD    1040626286
        0x00002460:    3f7db940    @.}?    DCD    1065204032
        0x00002464:    3e084105    .A.>    DCD    1040728325
        0x00002468:    3f7dabcc    ..}?    DCD    1065200588
        0x0000246c:    3e09cf86    ...>    DCD    1040830342
        0x00002470:    3f7d9e30    0.}?    DCD    1065197104
        0x00002474:    3e0b5df3    .].>    DCD    1040932339
        0x00002478:    3f7d906e    n.}?    DCD    1065193582
        0x0000247c:    3e0cec4a    J..>    DCD    1041034314
        0x00002480:    3f7d8285    ..}?    DCD    1065190021
        0x00002484:    3e0e7a8b    .z.>    DCD    1041136267
        0x00002488:    3f7d7474    tt}?    DCD    1065186420
        0x0000248c:    3e1008b7    ...>    DCD    1041238199
        0x00002490:    3f7d663d    =f}?    DCD    1065182781
        0x00002494:    3e1196cc    ...>    DCD    1041340108
        0x00002498:    3f7d57de    .W}?    DCD    1065179102
        0x0000249c:    3e1324ca    .$.>    DCD    1041441994
        0x000024a0:    3f7d4959    YI}?    DCD    1065175385
        0x000024a4:    3e14b2b2    ...>    DCD    1041543858
        0x000024a8:    3f7d3aac    .:}?    DCD    1065171628
        0x000024ac:    3e164083    .@.>    DCD    1041645699
        0x000024b0:    3f7d2bd8    .+}?    DCD    1065167832
        0x000024b4:    3e17ce3d    =..>    DCD    1041747517
        0x000024b8:    3f7d1cdd    ..}?    DCD    1065163997
        0x000024bc:    3e195be0    .[.>    DCD    1041849312
        0x000024c0:    3f7d0dbc    ..}?    DCD    1065160124
        0x000024c4:    3e1ae96b    k..>    DCD    1041951083
        0x000024c8:    3f7cfe73    s.|?    DCD    1065156211
        0x000024cc:    3e1c76de    .v.>    DCD    1042052830
        0x000024d0:    3f7cef03    ..|?    DCD    1065152259
        0x000024d4:    3e1e0438    8..>    DCD    1042154552
        0x000024d8:    3f7cdf6c    l.|?    DCD    1065148268
        0x000024dc:    3e1f917b    {..>    DCD    1042256251
        0x000024e0:    3f7ccfae    ..|?    DCD    1065144238
        0x000024e4:    3e211ea5    ..!>    DCD    1042357925
        0x000024e8:    3f7cbfc9    ..|?    DCD    1065140169
        0x000024ec:    3e22abb6    ..">    DCD    1042459574
        0x000024f0:    3f7cafbd    ..|?    DCD    1065136061
        0x000024f4:    3e2438ad    .8$>    DCD    1042561197
        0x000024f8:    3f7c9f8a    ..|?    DCD    1065131914
        0x000024fc:    3e25c58c    ..%>    DCD    1042662796
        0x00002500:    3f7c8f31    1.|?    DCD    1065127729
        0x00002504:    3e275251    QR'>    DCD    1042764369
        0x00002508:    3f7c7eb0    .~|?    DCD    1065123504
        0x0000250c:    3e28defc    ..(>    DCD    1042865916
        0x00002510:    3f7c6e08    .n|?    DCD    1065119240
        0x00002514:    3e2a6b8d    .k*>    DCD    1042967437
        0x00002518:    3f7c5d3a    :]|?    DCD    1065114938
        0x0000251c:    3e2bf804    ..+>    DCD    1043068932
        0x00002520:    3f7c4c44    DL|?    DCD    1065110596
        0x00002524:    3e2d8461    a.->    DCD    1043170401
        0x00002528:    3f7c3b28    (;|?    DCD    1065106216
        0x0000252c:    3e2f10a2    ../>    DCD    1043271842
        0x00002530:    3f7c29e5    .)|?    DCD    1065101797
        0x00002534:    3e309cc9    ..0>    DCD    1043373257
        0x00002538:    3f7c187a    z.|?    DCD    1065097338
        0x0000253c:    3e3228d4    .(2>    DCD    1043474644
        0x00002540:    3f7c06e9    ..|?    DCD    1065092841
        0x00002544:    3e33b4c4    ..3>    DCD    1043576004
        0x00002548:    3f7bf531    1.{?    DCD    1065088305
        0x0000254c:    3e354098    .@5>    DCD    1043677336
        0x00002550:    3f7be353    S.{?    DCD    1065083731
        0x00002554:    3e36cc50    P.6>    DCD    1043778640
        0x00002558:    3f7bd14d    M.{?    DCD    1065079117
        0x0000255c:    3e3857ec    .W8>    DCD    1043879916
        0x00002560:    3f7bbf20     .{?    DCD    1065074464
        0x00002564:    3e39e36c    l.9>    DCD    1043981164
        0x00002568:    3f7baccd    ..{?    DCD    1065069773
        0x0000256c:    3e3b6ecf    .n;>    DCD    1044082383
        0x00002570:    3f7b9a53    S.{?    DCD    1065065043
        0x00002574:    3e3cfa15    ..<>    DCD    1044183573
        0x00002578:    3f7b87b2    ..{?    DCD    1065060274
        0x0000257c:    3e3e853e    >.>>    DCD    1044284734
        0x00002580:    3f7b74ea    .t{?    DCD    1065055466
        0x00002584:    3e401049    I.@>    DCD    1044385865
        0x00002588:    3f7b61fc    .a{?    DCD    1065050620
        0x0000258c:    3e419b37    7.A>    DCD    1044486967
        0x00002590:    3f7b4ee7    .N{?    DCD    1065045735
        0x00002594:    3e432607    .&C>    DCD    1044588039
        0x00002598:    3f7b3bab    .;{?    DCD    1065040811
        0x0000259c:    3e44b0b9    ..D>    DCD    1044689081
        0x000025a0:    3f7b2848    H({?    DCD    1065035848
        0x000025a4:    3e463b4d    M;F>    DCD    1044790093
        0x000025a8:    3f7b14be    ..{?    DCD    1065030846
        0x000025ac:    3e47c5c2    ..G>    DCD    1044891074
        0x000025b0:    3f7b010e    ..{?    DCD    1065025806
        0x000025b4:    3e495018    .PI>    DCD    1044992024
        0x000025b8:    3f7aed37    7.z?    DCD    1065020727
        0x000025bc:    3e4ada4f    O.J>    DCD    1045092943
        0x000025c0:    3f7ad93a    :.z?    DCD    1065015610
        0x000025c4:    3e4c6467    gdL>    DCD    1045193831
        0x000025c8:    3f7ac516    ..z?    DCD    1065010454
        0x000025cc:    3e4dee60    `.M>    DCD    1045294688
        0x000025d0:    3f7ab0cb    ..z?    DCD    1065005259
        0x000025d4:    3e4f7838    8xO>    DCD    1045395512
        0x000025d8:    3f7a9c59    Y.z?    DCD    1065000025
        0x000025dc:    3e5101f1    ..Q>    DCD    1045496305
        0x000025e0:    3f7a87c1    ..z?    DCD    1064994753
        0x000025e4:    3e528b89    ..R>    DCD    1045597065
        0x000025e8:    3f7a7302    .sz?    DCD    1064989442
        0x000025ec:    3e541501    ..T>    DCD    1045697793
        0x000025f0:    3f7a5e1c    .^z?    DCD    1064984092
        0x000025f4:    3e559e58    X.U>    DCD    1045798488
        0x000025f8:    3f7a4910    .Iz?    DCD    1064978704
        0x000025fc:    3e57278f    .'W>    DCD    1045899151
        0x00002600:    3f7a33dd    .3z?    DCD    1064973277
        0x00002604:    3e58b0a4    ..X>    DCD    1045999780
        0x00002608:    3f7a1e84    ..z?    DCD    1064967812
        0x0000260c:    3e5a3997    .9Z>    DCD    1046100375
        0x00002610:    3f7a0904    ..z?    DCD    1064962308
        0x00002614:    3e5bc26a    j.[>    DCD    1046200938
        0x00002618:    3f79f35e    ^.y?    DCD    1064956766
        0x0000261c:    3e5d4b1a    .K]>    DCD    1046301466
        0x00002620:    3f79dd91    ..y?    DCD    1064951185
        0x00002624:    3e5ed3a8    ..^>    DCD    1046401960
        0x00002628:    3f79c79d    ..y?    DCD    1064945565
        0x0000262c:    3e605c13    .\`>    DCD    1046502419
        0x00002630:    3f79b183    ..y?    DCD    1064939907
        0x00002634:    3e61e45c    \.a>    DCD    1046602844
        0x00002638:    3f799b43    C.y?    DCD    1064934211
        0x0000263c:    3e636c83    .lc>    DCD    1046703235
        0x00002640:    3f7984dc    ..y?    DCD    1064928476
        0x00002644:    3e64f486    ..d>    DCD    1046803590
        0x00002648:    3f796e4e    Nny?    DCD    1064922702
        0x0000264c:    3e667c66    f|f>    DCD    1046903910
        0x00002650:    3f79579a    .Wy?    DCD    1064916890
        0x00002654:    3e680422    ".h>    DCD    1047004194
        0x00002658:    3f7940c0    .@y?    DCD    1064911040
        0x0000265c:    3e698bba    ..i>    DCD    1047104442
        0x00002660:    3f7929bf    .)y?    DCD    1064905151
        0x00002664:    3e6b132f    /.k>    DCD    1047204655
        0x00002668:    3f791298    ..y?    DCD    1064899224
        0x0000266c:    3e6c9a7f    ..l>    DCD    1047304831
        0x00002670:    3f78fb4a    J.x?    DCD    1064893258
        0x00002674:    3e6e21ab    .!n>    DCD    1047404971
        0x00002678:    3f78e3d6    ..x?    DCD    1064887254
        0x0000267c:    3e6fa8b2    ..o>    DCD    1047505074
        0x00002680:    3f78cc3b    ;.x?    DCD    1064881211
        0x00002684:    3e712f94    ./q>    DCD    1047605140
        0x00002688:    3f78b47b    {.x?    DCD    1064875131
        0x0000268c:    3e72b651    Q.r>    DCD    1047705169
        0x00002690:    3f789c93    ..x?    DCD    1064869011
        0x00002694:    3e743ce8    .<t>    DCD    1047805160
        0x00002698:    3f788486    ..x?    DCD    1064862854
        0x0000269c:    3e75c35a    Z.u>    DCD    1047905114
        0x000026a0:    3f786c52    Rlx?    DCD    1064856658
        0x000026a4:    3e7749a6    .Iw>    DCD    1048005030
        0x000026a8:    3f7853f8    .Sx?    DCD    1064850424
        0x000026ac:    3e78cfcc    ..x>    DCD    1048104908
        0x000026b0:    3f783b77    w;x?    DCD    1064844151
        0x000026b4:    3e7a55cb    .Uz>    DCD    1048204747
        0x000026b8:    3f7822d1    ."x?    DCD    1064837841
        0x000026bc:    3e7bdba4    ..{>    DCD    1048304548
        0x000026c0:    3f780a04    ..x?    DCD    1064831492
        0x000026c4:    3e7d6156    Va}>    DCD    1048404310
        0x000026c8:    3f77f110    ..w?    DCD    1064825104
        0x000026cc:    3e7ee6e1    ..~>    DCD    1048504033
        0x000026d0:    3f77d7f7    ..w?    DCD    1064818679
        0x000026d4:    3e803622    "6.>    DCD    1048589858
        0x000026d8:    3f77beb7    ..w?    DCD    1064812215
        0x000026dc:    3e80f8c0    ...>    DCD    1048639680
        0x000026e0:    3f77a551    Q.w?    DCD    1064805713
        0x000026e4:    3e81bb4a    J..>    DCD    1048689482
        0x000026e8:    3f778bc5    ..w?    DCD    1064799173
        0x000026ec:    3e827dc0    .}.>    DCD    1048739264
        0x000026f0:    3f777213    .rw?    DCD    1064792595
        0x000026f4:    3e834022    "@.>    DCD    1048789026
        0x000026f8:    3f77583a    :Xw?    DCD    1064785978
        0x000026fc:    3e840270    p..>    DCD    1048838768
        0x00002700:    3f773e3c    <>w?    DCD    1064779324
        0x00002704:    3e84c4aa    ...>    DCD    1048888490
        0x00002708:    3f772417    .$w?    DCD    1064772631
        0x0000270c:    3e8586ce    ...>    DCD    1048938190
        0x00002710:    3f7709cc    ..w?    DCD    1064765900
        0x00002714:    3e8648df    .H.>    DCD    1048987871
        0x00002718:    3f76ef5b    [.v?    DCD    1064759131
        0x0000271c:    3e870ada    ...>    DCD    1049037530
        0x00002720:    3f76d4c4    ..v?    DCD    1064752324
        0x00002724:    3e87ccc1    ...>    DCD    1049087169
        0x00002728:    3f76ba07    ..v?    DCD    1064745479
        0x0000272c:    3e888e93    ...>    DCD    1049136787
        0x00002730:    3f769f24    $.v?    DCD    1064738596
        0x00002734:    3e895050    PP.>    DCD    1049186384
        0x00002738:    3f76841b    ..v?    DCD    1064731675
        0x0000273c:    3e8a11f8    ...>    DCD    1049235960
        0x00002740:    3f7668ec    .hv?    DCD    1064724716
        0x00002744:    3e8ad38a    ...>    DCD    1049285514
        0x00002748:    3f764d97    .Mv?    DCD    1064717719
        0x0000274c:    3e8b9507    ...>    DCD    1049335047
        0x00002750:    3f76321b    .2v?    DCD    1064710683
        0x00002754:    3e8c566e    nV.>    DCD    1049384558
        0x00002758:    3f76167a    z.v?    DCD    1064703610
        0x0000275c:    3e8d17c0    ...>    DCD    1049434048
        0x00002760:    3f75fab3    ..u?    DCD    1064696499
        0x00002764:    3e8dd8fc    ...>    DCD    1049483516
        0x00002768:    3f75dec6    ..u?    DCD    1064689350
        0x0000276c:    3e8e9a22    "..>    DCD    1049532962
        0x00002770:    3f75c2b3    ..u?    DCD    1064682163
        0x00002774:    3e8f5b32    2[.>    DCD    1049582386
        0x00002778:    3f75a67b    {.u?    DCD    1064674939
        0x0000277c:    3e901c2c    ,..>    DCD    1049631788
        0x00002780:    3f758a1c    ..u?    DCD    1064667676
        0x00002784:    3e90dd10    ...>    DCD    1049681168
        0x00002788:    3f756d97    .mu?    DCD    1064660375
        0x0000278c:    3e919ddd    ...>    DCD    1049730525
        0x00002790:    3f7550ed    .Pu?    DCD    1064653037
        0x00002794:    3e925e94    .^.>    DCD    1049779860
        0x00002798:    3f75341d    .4u?    DCD    1064645661
        0x0000279c:    3e931f35    5..>    DCD    1049829173
        0x000027a0:    3f751727    '.u?    DCD    1064638247
        0x000027a4:    3e93dfbf    ...>    DCD    1049878463
        0x000027a8:    3f74fa0b    ..t?    DCD    1064630795
        0x000027ac:    3e94a031    1..>    DCD    1049927729
        0x000027b0:    3f74dcc9    ..t?    DCD    1064623305
        0x000027b4:    3e95608d    .`.>    DCD    1049976973
        0x000027b8:    3f74bf62    b.t?    DCD    1064615778
        0x000027bc:    3e9620d2    . .>    DCD    1050026194
        0x000027c0:    3f74a1d5    ..t?    DCD    1064608213
        0x000027c4:    3e96e100    ...>    DCD    1050075392
        0x000027c8:    3f748422    ".t?    DCD    1064600610
        0x000027cc:    3e97a117    ...>    DCD    1050124567
        0x000027d0:    3f746649    Ift?    DCD    1064592969
        0x000027d4:    3e986116    .a.>    DCD    1050173718
        0x000027d8:    3f74484b    KHt?    DCD    1064585291
        0x000027dc:    3e9920fe    . .>    DCD    1050222846
        0x000027e0:    3f742a27    '*t?    DCD    1064577575
        0x000027e4:    3e99e0ce    ...>    DCD    1050271950
        0x000027e8:    3f740bdd    ..t?    DCD    1064569821
        0x000027ec:    3e9aa086    ...>    DCD    1050321030
        0x000027f0:    3f73ed6e    n.s?    DCD    1064562030
        0x000027f4:    3e9b6027    '`.>    DCD    1050370087
        0x000027f8:    3f73ced9    ..s?    DCD    1064554201
        0x000027fc:    3e9c1faf    ...>    DCD    1050419119
        0x00002800:    3f73b01f    ..s?    DCD    1064546335
        0x00002804:    3e9cdf20     ..>    DCD    1050468128
        0x00002808:    3f73913f    ?.s?    DCD    1064538431
        0x0000280c:    3e9d9e78    x..>    DCD    1050517112
        0x00002810:    3f737239    9rs?    DCD    1064530489
        0x00002814:    3e9e5db8    .].>    DCD    1050566072
        0x00002818:    3f73530e    .Ss?    DCD    1064522510
        0x0000281c:    3e9f1cdf    ...>    DCD    1050615007
        0x00002820:    3f7333be    .3s?    DCD    1064514494
        0x00002824:    3e9fdbee    ...>    DCD    1050663918
        0x00002828:    3f731447    G.s?    DCD    1064506439
        0x0000282c:    3ea09ae5    ...>    DCD    1050712805
        0x00002830:    3f72f4ac    ..r?    DCD    1064498348
        0x00002834:    3ea159c2    .Y.>    DCD    1050761666
        0x00002838:    3f72d4eb    ..r?    DCD    1064490219
        0x0000283c:    3ea21887    ...>    DCD    1050810503
        0x00002840:    3f72b504    ..r?    DCD    1064482052
        0x00002844:    3ea2d733    3..>    DCD    1050859315
        0x00002848:    3f7294f8    ..r?    DCD    1064473848
        0x0000284c:    3ea395c5    ...>    DCD    1050908101
        0x00002850:    3f7274c7    .tr?    DCD    1064465607
        0x00002854:    3ea4543f    ?T.>    DCD    1050956863
        0x00002858:    3f725470    pTr?    DCD    1064457328
        0x0000285c:    3ea5129f    ...>    DCD    1051005599
        0x00002860:    3f7233f4    .3r?    DCD    1064449012
        0x00002864:    3ea5d0e5    ...>    DCD    1051054309
        0x00002868:    3f721352    R.r?    DCD    1064440658
        0x0000286c:    3ea68f12    ...>    DCD    1051102994
        0x00002870:    3f71f28c    ..q?    DCD    1064432268
        0x00002874:    3ea74d25    %M.>    DCD    1051151653
        0x00002878:    3f71d19f    ..q?    DCD    1064423839
        0x0000287c:    3ea80b1f    ...>    DCD    1051200287
        0x00002880:    3f71b08e    ..q?    DCD    1064415374
        0x00002884:    3ea8c8fe    ...>    DCD    1051248894
        0x00002888:    3f718f57    W.q?    DCD    1064406871
        0x0000288c:    3ea986c4    ...>    DCD    1051297476
        0x00002890:    3f716dfb    .mq?    DCD    1064398331
        0x00002894:    3eaa446f    oD.>    DCD    1051346031
        0x00002898:    3f714c7a    zLq?    DCD    1064389754
        0x0000289c:    3eab0201    ...>    DCD    1051394561
        0x000028a0:    3f712ad4    .*q?    DCD    1064381140
        0x000028a4:    3eabbf77    w..>    DCD    1051443063
        0x000028a8:    3f710908    ..q?    DCD    1064372488
        0x000028ac:    3eac7cd4    .|.>    DCD    1051491540
        0x000028b0:    3f70e717    ..p?    DCD    1064363799
        0x000028b4:    3ead3a15    .:.>    DCD    1051539989
        0x000028b8:    3f70c502    ..p?    DCD    1064355074
        0x000028bc:    3eadf73c    <..>    DCD    1051588412
        0x000028c0:    3f70a2c6    ..p?    DCD    1064346310
        0x000028c4:    3eaeb449    I..>    DCD    1051636809
        0x000028c8:    3f708066    f.p?    DCD    1064337510
        0x000028cc:    3eaf713a    :q.>    DCD    1051685178
        0x000028d0:    3f705de1    .]p?    DCD    1064328673
        0x000028d4:    3eb02e10    ...>    DCD    1051733520
        0x000028d8:    3f703b37    7;p?    DCD    1064319799
        0x000028dc:    3eb0eacb    ...>    DCD    1051781835
        0x000028e0:    3f701867    g.p?    DCD    1064310887
        0x000028e4:    3eb1a76b    k..>    DCD    1051830123
        0x000028e8:    3f6ff573    s.o?    DCD    1064301939
        0x000028ec:    3eb263ef    .c.>    DCD    1051878383
        0x000028f0:    3f6fd25a    Z.o?    DCD    1064292954
        0x000028f4:    3eb32058    X .>    DCD    1051926616
        0x000028f8:    3f6faf1b    ..o?    DCD    1064283931
        0x000028fc:    3eb3dca5    ...>    DCD    1051974821
        0x00002900:    3f6f8bb8    ..o?    DCD    1064274872
        0x00002904:    3eb498d6    ...>    DCD    1052022998
        0x00002908:    3f6f6830    0ho?    DCD    1064265776
        0x0000290c:    3eb554ec    .T.>    DCD    1052071148
        0x00002910:    3f6f4483    .Do?    DCD    1064256643
        0x00002914:    3eb610e6    ...>    DCD    1052119270
        0x00002918:    3f6f20b0    . o?    DCD    1064247472
        0x0000291c:    3eb6ccc3    ...>    DCD    1052167363
        0x00002920:    3f6efcba    ..n?    DCD    1064238266
        0x00002924:    3eb78884    ...>    DCD    1052215428
        0x00002928:    3f6ed89e    ..n?    DCD    1064229022
        0x0000292c:    3eb8442a    *D.>    DCD    1052263466
        0x00002930:    3f6eb45d    ].n?    DCD    1064219741
        0x00002934:    3eb8ffb2    ...>    DCD    1052311474
        0x00002938:    3f6e8ff8    ..n?    DCD    1064210424
        0x0000293c:    3eb9bb1e    ...>    DCD    1052359454
        0x00002940:    3f6e6b6d    mkn?    DCD    1064201069
        0x00002944:    3eba766e    nv.>    DCD    1052407406
        0x00002948:    3f6e46be    .Fn?    DCD    1064191678
        0x0000294c:    3ebb31a0    .1.>    DCD    1052455328
        0x00002950:    3f6e21eb    .!n?    DCD    1064182251
        0x00002954:    3ebbecb6    ...>    DCD    1052503222
        0x00002958:    3f6dfcf2    ..m?    DCD    1064172786
        0x0000295c:    3ebca7af    ...>    DCD    1052551087
        0x00002960:    3f6dd7d5    ..m?    DCD    1064163285
        0x00002964:    3ebd628b    .b.>    DCD    1052598923
        0x00002968:    3f6db293    ..m?    DCD    1064153747
        0x0000296c:    3ebe1d4a    J..>    DCD    1052646730
        0x00002970:    3f6d8d2d    -.m?    DCD    1064144173
        0x00002974:    3ebed7eb    ...>    DCD    1052694507
        0x00002978:    3f6d67a1    .gm?    DCD    1064134561
        0x0000297c:    3ebf926f    o..>    DCD    1052742255
        0x00002980:    3f6d41f2    .Am?    DCD    1064124914
        0x00002984:    3ec04cd5    .L.>    DCD    1052789973
        0x00002988:    3f6d1c1d    ..m?    DCD    1064115229
        0x0000298c:    3ec1071e    ...>    DCD    1052837662
        0x00002990:    3f6cf624    $.l?    DCD    1064105508
        0x00002994:    3ec1c148    H..>    DCD    1052885320
        0x00002998:    3f6cd007    ..l?    DCD    1064095751
        0x0000299c:    3ec27b55    U{.>    DCD    1052932949
        0x000029a0:    3f6ca9c5    ..l?    DCD    1064085957
        0x000029a4:    3ec33544    D5.>    DCD    1052980548
        0x000029a8:    3f6c835e    ^.l?    DCD    1064076126
        0x000029ac:    3ec3ef15    ...>    DCD    1053028117
        0x000029b0:    3f6c5cd4    .\l?    DCD    1064066260
        0x000029b4:    3ec4a8c8    ...>    DCD    1053075656
        0x000029b8:    3f6c3624    $6l?    DCD    1064056356
        0x000029bc:    3ec5625c    \b.>    DCD    1053123164
        0x000029c0:    3f6c0f50    P.l?    DCD    1064046416
        0x000029c4:    3ec61bd2    ...>    DCD    1053170642
        0x000029c8:    3f6be858    X.k?    DCD    1064036440
        0x000029cc:    3ec6d529    )..>    DCD    1053218089
        0x000029d0:    3f6bc13b    ;.k?    DCD    1064026427
        0x000029d4:    3ec78e62    b..>    DCD    1053265506
        0x000029d8:    3f6b99fb    ..k?    DCD    1064016379
        0x000029dc:    3ec8477c    |G.>    DCD    1053312892
        0x000029e0:    3f6b7295    .rk?    DCD    1064006293
        0x000029e4:    3ec90077    w..>    DCD    1053360247
        0x000029e8:    3f6b4b0c    .Kk?    DCD    1063996172
        0x000029ec:    3ec9b953    S..>    DCD    1053407571
        0x000029f0:    3f6b235e    ^#k?    DCD    1063986014
        0x000029f4:    3eca7210    .r.>    DCD    1053454864
        0x000029f8:    3f6afb8c    ..j?    DCD    1063975820
        0x000029fc:    3ecb2aae    .*.>    DCD    1053502126
        0x00002a00:    3f6ad395    ..j?    DCD    1063965589
        0x00002a04:    3ecbe32c    ,..>    DCD    1053549356
        0x00002a08:    3f6aab7b    {.j?    DCD    1063955323
        0x00002a0c:    3ecc9b8b    ...>    DCD    1053596555
        0x00002a10:    3f6a833c    <.j?    DCD    1063945020
        0x00002a14:    3ecd53ca    .S.>    DCD    1053643722
        0x00002a18:    3f6a5ad9    .Zj?    DCD    1063934681
        0x00002a1c:    3ece0bea    ...>    DCD    1053690858
        0x00002a20:    3f6a3252    R2j?    DCD    1063924306
        0x00002a24:    3ecec3ea    ...>    DCD    1053737962
        0x00002a28:    3f6a09a7    ..j?    DCD    1063913895
        0x00002a2c:    3ecf7bca    .{.>    DCD    1053785034
        0x00002a30:    3f69e0d7    ..i?    DCD    1063903447
        0x00002a34:    3ed0338a    .3.>    DCD    1053832074
        0x00002a38:    3f69b7e4    ..i?    DCD    1063892964
        0x00002a3c:    3ed0eb2a    *..>    DCD    1053879082
        0x00002a40:    3f698ecc    ..i?    DCD    1063882444
        0x00002a44:    3ed1a2aa    ...>    DCD    1053926058
        0x00002a48:    3f696591    .ei?    DCD    1063871889
        0x00002a4c:    3ed25a09    .Z.>    DCD    1053973001
        0x00002a50:    3f693c32    2<i?    DCD    1063861298
        0x00002a54:    3ed31148    H..>    DCD    1054019912
        0x00002a58:    3f6912ae    ..i?    DCD    1063850670
        0x00002a5c:    3ed3c867    g..>    DCD    1054066791
        0x00002a60:    3f68e907    ..h?    DCD    1063840007
        0x00002a64:    3ed47f64    d..>    DCD    1054113636
        0x00002a68:    3f68bf3c    <.h?    DCD    1063829308
        0x00002a6c:    3ed53641    A6.>    DCD    1054160449
        0x00002a70:    3f68954c    L.h?    DCD    1063818572
        0x00002a74:    3ed5ecfd    ...>    DCD    1054207229
        0x00002a78:    3f686b39    9kh?    DCD    1063807801
        0x00002a7c:    3ed6a399    ...>    DCD    1054253977
        0x00002a80:    3f684103    .Ah?    DCD    1063796995
        0x00002a84:    3ed75a13    .Z.>    DCD    1054300691
        0x00002a88:    3f6816a8    ..h?    DCD    1063786152
        0x00002a8c:    3ed8106b    k..>    DCD    1054347371
        0x00002a90:    3f67ec2a    *.g?    DCD    1063775274
        0x00002a94:    3ed8c6a3    ...>    DCD    1054394019
        0x00002a98:    3f67c187    ..g?    DCD    1063764359
        0x00002a9c:    3ed97cb9    .|.>    DCD    1054440633
        0x00002aa0:    3f6796c1    ..g?    DCD    1063753409
        0x00002aa4:    3eda32ad    .2.>    DCD    1054487213
        0x00002aa8:    3f676bd8    .kg?    DCD    1063742424
        0x00002aac:    3edae880    ...>    DCD    1054533760
        0x00002ab0:    3f6740ca    .@g?    DCD    1063731402
        0x00002ab4:    3edb9e31    1..>    DCD    1054580273
        0x00002ab8:    3f671599    ..g?    DCD    1063720345
        0x00002abc:    3edc53c1    .S.>    DCD    1054626753
        0x00002ac0:    3f66ea45    E.f?    DCD    1063709253
        0x00002ac4:    3edd092e    ...>    DCD    1054673198
        0x00002ac8:    3f66becc    ..f?    DCD    1063698124
        0x00002acc:    3eddbe79    y..>    DCD    1054719609
        0x00002ad0:    3f669330    0.f?    DCD    1063686960
        0x00002ad4:    3ede73a2    .s.>    DCD    1054765986
        0x00002ad8:    3f666771    qgf?    DCD    1063675761
        0x00002adc:    3edf28a9    .(.>    DCD    1054812329
        0x00002ae0:    3f663b8e    .;f?    DCD    1063664526
        0x00002ae4:    3edfdd8d    ...>    DCD    1054858637
        0x00002ae8:    3f660f88    ..f?    DCD    1063653256
        0x00002aec:    3ee0924f    O..>    DCD    1054904911
        0x00002af0:    3f65e35e    ^.e?    DCD    1063641950
        0x00002af4:    3ee146ee    .F.>    DCD    1054951150
        0x00002af8:    3f65b710    ..e?    DCD    1063630608
        0x00002afc:    3ee1fb6a    j..>    DCD    1054997354
        0x00002b00:    3f658aa0    ..e?    DCD    1063619232
        0x00002b04:    3ee2afc4    ...>    DCD    1055043524
        0x00002b08:    3f655e0b    .^e?    DCD    1063607819
        0x00002b0c:    3ee363fa    .c.>    DCD    1055089658
        0x00002b10:    3f653154    T1e?    DCD    1063596372
        0x00002b14:    3ee4180e    ...>    DCD    1055135758
        0x00002b18:    3f650479    y.e?    DCD    1063584889
        0x00002b1c:    3ee4cbfe    ...>    DCD    1055181822
        0x00002b20:    3f64d77b    {.d?    DCD    1063573371
        0x00002b24:    3ee57fcb    ...>    DCD    1055227851
        0x00002b28:    3f64aa59    Y.d?    DCD    1063561817
        0x00002b2c:    3ee63375    u3.>    DCD    1055273845
        0x00002b30:    3f647d14    .}d?    DCD    1063550228
        0x00002b34:    3ee6e6fb    ...>    DCD    1055319803
        0x00002b38:    3f644fac    .Od?    DCD    1063538604
        0x00002b3c:    3ee79a5d    ]..>    DCD    1055365725
        0x00002b40:    3f642221    !"d?    DCD    1063526945
        0x00002b44:    3ee84d9c    .M.>    DCD    1055411612
        0x00002b48:    3f63f473    s.c?    DCD    1063515251
        0x00002b4c:    3ee900b7    ...>    DCD    1055457463
        0x00002b50:    3f63c6a1    ..c?    DCD    1063503521
        0x00002b54:    3ee9b3ae    ...>    DCD    1055503278
        0x00002b58:    3f6398ac    ..c?    DCD    1063491756
        0x00002b5c:    3eea6681    .f.>    DCD    1055549057
        0x00002b60:    3f636a95    .jc?    DCD    1063479957
        0x00002b64:    3eeb1930    0..>    DCD    1055594800
        0x00002b68:    3f633c5a    Z<c?    DCD    1063468122
        0x00002b6c:    3eebcbbb    ...>    DCD    1055640507
        0x00002b70:    3f630dfc    ..c?    DCD    1063456252
        0x00002b74:    3eec7e21    !~.>    DCD    1055686177
        0x00002b78:    3f62df7b    {.b?    DCD    1063444347
        0x00002b7c:    3eed3063    c0.>    DCD    1055731811
        0x00002b80:    3f62b0d7    ..b?    DCD    1063432407
        0x00002b84:    3eede280    ...>    DCD    1055777408
        0x00002b88:    3f628210    ..b?    DCD    1063420432
        0x00002b8c:    3eee9479    y..>    DCD    1055822969
        0x00002b90:    3f625326    &Sb?    DCD    1063408422
        0x00002b94:    3eef464c    LF.>    DCD    1055868492
        0x00002b98:    3f62241a    .$b?    DCD    1063396378
        0x00002b9c:    3eeff7fb    ...>    DCD    1055913979
        0x00002ba0:    3f61f4ea    ..a?    DCD    1063384298
        0x00002ba4:    3ef0a985    ...>    DCD    1055959429
        0x00002ba8:    3f61c598    ..a?    DCD    1063372184
        0x00002bac:    3ef15aea    .Z.>    DCD    1056004842
        0x00002bb0:    3f619622    ".a?    DCD    1063360034
        0x00002bb4:    3ef20c29    )..>    DCD    1056050217
        0x00002bb8:    3f61668a    .fa?    DCD    1063347850
        0x00002bbc:    3ef2bd43    C..>    DCD    1056095555
        0x00002bc0:    3f6136d0    .6a?    DCD    1063335632
        0x00002bc4:    3ef36e38    8n.>    DCD    1056140856
        0x00002bc8:    3f6106f2    ..a?    DCD    1063323378
        0x00002bcc:    3ef41f07    ...>    DCD    1056186119
        0x00002bd0:    3f60d6f2    ..`?    DCD    1063311090
        0x00002bd4:    3ef4cfb1    ...>    DCD    1056231345
        0x00002bd8:    3f60a6cf    ..`?    DCD    1063298767
        0x00002bdc:    3ef58035    5..>    DCD    1056276533
        0x00002be0:    3f607689    .v`?    DCD    1063286409
        0x00002be4:    3ef63093    .0.>    DCD    1056321683
        0x00002be8:    3f604621    !F`?    DCD    1063274017
        0x00002bec:    3ef6e0cb    ...>    DCD    1056366795
        0x00002bf0:    3f601596    ..`?    DCD    1063261590
        0x00002bf4:    3ef790dc    ...>    DCD    1056411868
        0x00002bf8:    3f5fe4e9    .._?    DCD    1063249129
        0x00002bfc:    3ef840c8    .@.>    DCD    1056456904
        0x00002c00:    3f5fb419    .._?    DCD    1063236633
        0x00002c04:    3ef8f08e    ...>    DCD    1056501902
        0x00002c08:    3f5f8327    '._?    DCD    1063224103
        0x00002c0c:    3ef9a02d    -..>    DCD    1056546861
        0x00002c10:    3f5f5212    .R_?    DCD    1063211538
        0x00002c14:    3efa4fa5    .O.>    DCD    1056591781
        0x00002c18:    3f5f20db    . _?    DCD    1063198939
        0x00002c1c:    3efafef7    ...>    DCD    1056636663
        0x00002c20:    3f5eef81    ..^?    DCD    1063186305
        0x00002c24:    3efbae22    "..>    DCD    1056681506
        0x00002c28:    3f5ebe05    ..^?    DCD    1063173637
        0x00002c2c:    3efc5d27    '].>    DCD    1056726311
        0x00002c30:    3f5e8c67    g.^?    DCD    1063160935
        0x00002c34:    3efd0c04    ...>    DCD    1056771076
        0x00002c38:    3f5e5aa6    .Z^?    DCD    1063148198
        0x00002c3c:    3efdbabb    ...>    DCD    1056815803
        0x00002c40:    3f5e28c3    .(^?    DCD    1063135427
        0x00002c44:    3efe694a    Ji.>    DCD    1056860490
        0x00002c48:    3f5df6be    ..]?    DCD    1063122622
        0x00002c4c:    3eff17b2    ...>    DCD    1056905138
        0x00002c50:    3f5dc497    ..]?    DCD    1063109783
        0x00002c54:    3effc5f3    ...>    DCD    1056949747
        0x00002c58:    3f5d924d    M.]?    DCD    1063096909
        0x00002c5c:    3f003a06    .:.?    DCD    1056979462
        0x00002c60:    3f5d5fe1    ._]?    DCD    1063084001
        0x00002c64:    3f0090ff    ...?    DCD    1057001727
        0x00002c68:    3f5d2d53    S-]?    DCD    1063071059
        0x00002c6c:    3f00e7e4    ...?    DCD    1057023972
        0x00002c70:    3f5cfaa3    ..\?    DCD    1063058083
        0x00002c74:    3f013eb5    .>.?    DCD    1057046197
        0x00002c78:    3f5cc7d1    ..\?    DCD    1063045073
        0x00002c7c:    3f019573    s..?    DCD    1057068403
        0x00002c80:    3f5c94dd    ..\?    DCD    1063032029
        0x00002c84:    3f01ec1c    ...?    DCD    1057090588
        0x00002c88:    3f5c61c7    .a\?    DCD    1063018951
        0x00002c8c:    3f0242b1    .B.?    DCD    1057112753
        0x00002c90:    3f5c2e8e    ..\?    DCD    1063005838
        0x00002c94:    3f029932    2..?    DCD    1057134898
        0x00002c98:    3f5bfb34    4.[?    DCD    1062992692
        0x00002c9c:    3f02ef9f    ...?    DCD    1057157023
        0x00002ca0:    3f5bc7b8    ..[?    DCD    1062979512
        0x00002ca4:    3f0345f8    .E.?    DCD    1057179128
        0x00002ca8:    3f5b941a    ..[?    DCD    1062966298
        0x00002cac:    3f039c3d    =..?    DCD    1057201213
        0x00002cb0:    3f5b605a    Z`[?    DCD    1062953050
        0x00002cb4:    3f03f26d    m..?    DCD    1057223277
        0x00002cb8:    3f5b2c79    y,[?    DCD    1062939769
        0x00002cbc:    3f044889    .H.?    DCD    1057245321
        0x00002cc0:    3f5af875    u.Z?    DCD    1062926453
        0x00002cc4:    3f049e91    ...?    DCD    1057267345
        0x00002cc8:    3f5ac450    P.Z?    DCD    1062913104
        0x00002ccc:    3f04f484    ...?    DCD    1057289348
        0x00002cd0:    3f5a9009    ..Z?    DCD    1062899721
        0x00002cd4:    3f054a62    bJ.?    DCD    1057311330
        0x00002cd8:    3f5a5ba0    .[Z?    DCD    1062886304
        0x00002cdc:    3f05a02c    ,..?    DCD    1057333292
        0x00002ce0:    3f5a2716    .'Z?    DCD    1062872854
        0x00002ce4:    3f05f5e2    ...?    DCD    1057355234
        0x00002ce8:    3f59f26a    j.Y?    DCD    1062859370
        0x00002cec:    3f064b82    .K.?    DCD    1057377154
        0x00002cf0:    3f59bd9c    ..Y?    DCD    1062845852
        0x00002cf4:    3f06a10e    ...?    DCD    1057399054
        0x00002cf8:    3f5988ad    ..Y?    DCD    1062832301
        0x00002cfc:    3f06f686    ...?    DCD    1057420934
        0x00002d00:    3f59539c    .SY?    DCD    1062818716
        0x00002d04:    3f074be8    .K.?    DCD    1057442792
        0x00002d08:    3f591e6a    j.Y?    DCD    1062805098
        0x00002d0c:    3f07a136    6..?    DCD    1057464630
        0x00002d10:    3f58e917    ..X?    DCD    1062791447
        0x00002d14:    3f07f66f    o..?    DCD    1057486447
        0x00002d18:    3f58b3a1    ..X?    DCD    1062777761
        0x00002d1c:    3f084b92    .K.?    DCD    1057508242
        0x00002d20:    3f587e0b    .~X?    DCD    1062764043
        0x00002d24:    3f08a0a1    ...?    DCD    1057530017
        0x00002d28:    3f584853    SHX?    DCD    1062750291
        0x00002d2c:    3f08f59b    ...?    DCD    1057551771
        0x00002d30:    3f581279    y.X?    DCD    1062736505
        0x00002d34:    3f094a7f    .J.?    DCD    1057573503
        0x00002d38:    3f57dc7f    ..W?    DCD    1062722687
        0x00002d3c:    3f099f4e    N..?    DCD    1057595214
        0x00002d40:    3f57a663    c.W?    DCD    1062708835
        0x00002d44:    3f09f409    ...?    DCD    1057616905
        0x00002d48:    3f577026    &pW?    DCD    1062694950
        0x00002d4c:    3f0a48ad    .H.?    DCD    1057638573
        0x00002d50:    3f5739c7    .9W?    DCD    1062681031
        0x00002d54:    3f0a9d3d    =..?    DCD    1057660221
        0x00002d58:    3f570348    H.W?    DCD    1062667080
        0x00002d5c:    3f0af1b7    ...?    DCD    1057681847
        0x00002d60:    3f56cca7    ..V?    DCD    1062653095
        0x00002d64:    3f0b461c    .F.?    DCD    1057703452
        0x00002d68:    3f5695e5    ..V?    DCD    1062639077
        0x00002d6c:    3f0b9a6b    k..?    DCD    1057725035
        0x00002d70:    3f565f02    ._V?    DCD    1062625026
        0x00002d74:    3f0beea5    ...?    DCD    1057746597
        0x00002d78:    3f5627fe    .'V?    DCD    1062610942
        0x00002d7c:    3f0c42c9    .B.?    DCD    1057768137
        0x00002d80:    3f55f0d9    ..U?    DCD    1062596825
        0x00002d84:    3f0c96d7    ...?    DCD    1057789655
        0x00002d88:    3f55b993    ..U?    DCD    1062582675
        0x00002d8c:    3f0cead0    ...?    DCD    1057811152
        0x00002d90:    3f55822c    ,.U?    DCD    1062568492
        0x00002d94:    3f0d3eb3    .>.?    DCD    1057832627
        0x00002d98:    3f554aa4    .JU?    DCD    1062554276
        0x00002d9c:    3f0d9281    ...?    DCD    1057854081
        0x00002da0:    3f5512fb    ..U?    DCD    1062540027
        0x00002da4:    3f0de638    8..?    DCD    1057875512
        0x00002da8:    3f54db31    1.T?    DCD    1062525745
        0x00002dac:    3f0e39da    .9.?    DCD    1057896922
        0x00002db0:    3f54a347    G.T?    DCD    1062511431
        0x00002db4:    3f0e8d65    e..?    DCD    1057918309
        0x00002db8:    3f546b3b    ;kT?    DCD    1062497083
        0x00002dbc:    3f0ee0db    ...?    DCD    1057939675
        0x00002dc0:    3f54330f    .3T?    DCD    1062482703
        0x00002dc4:    3f0f343b    ;4.?    DCD    1057961019
        0x00002dc8:    3f53fac3    ..S?    DCD    1062468291
        0x00002dcc:    3f0f8784    ...?    DCD    1057982340
        0x00002dd0:    3f53c255    U.S?    DCD    1062453845
        0x00002dd4:    3f0fdab8    ...?    DCD    1058003640
        0x00002dd8:    3f5389c7    ..S?    DCD    1062439367
        0x00002ddc:    3f102dd5    .-.?    DCD    1058024917
        0x00002de0:    3f535118    .QS?    DCD    1062424856
        0x00002de4:    3f1080dc    ...?    DCD    1058046172
        0x00002de8:    3f531849    I.S?    DCD    1062410313
        0x00002dec:    3f10d3cd    ...?    DCD    1058067405
        0x00002df0:    3f52df59    Y.R?    DCD    1062395737
        0x00002df4:    3f1126a7    .&.?    DCD    1058088615
        0x00002df8:    3f52a649    I.R?    DCD    1062381129
        0x00002dfc:    3f11796b    ky.?    DCD    1058109803
        0x00002e00:    3f526d18    .mR?    DCD    1062366488
        0x00002e04:    3f11cc19    ...?    DCD    1058130969
        0x00002e08:    3f5233c6    .3R?    DCD    1062351814
        0x00002e0c:    3f121eb0    ...?    DCD    1058152112
        0x00002e10:    3f51fa54    T.Q?    DCD    1062337108
        0x00002e14:    3f127130    0q.?    DCD    1058173232
        0x00002e18:    3f51c0c2    ..Q?    DCD    1062322370
        0x00002e1c:    3f12c39a    ...?    DCD    1058194330
        0x00002e20:    3f518710    ..Q?    DCD    1062307600
        0x00002e24:    3f1315ee    ...?    DCD    1058215406
        0x00002e28:    3f514d3d    =MQ?    DCD    1062292797
        0x00002e2c:    3f13682a    *h.?    DCD    1058236458
        0x00002e30:    3f51134a    J.Q?    DCD    1062277962
        0x00002e34:    3f13ba50    P..?    DCD    1058257488
        0x00002e38:    3f50d937    7.P?    DCD    1062263095
        0x00002e3c:    3f140c5f    _..?    DCD    1058278495
        0x00002e40:    3f509f03    ..P?    DCD    1062248195
        0x00002e44:    3f145e58    X^.?    DCD    1058299480
        0x00002e48:    3f5064af    .dP?    DCD    1062233263
        0x00002e4c:    3f14b039    9..?    DCD    1058320441
        0x00002e50:    3f502a3b    ;*P?    DCD    1062218299
        0x00002e54:    3f150204    ...?    DCD    1058341380
        0x00002e58:    3f4fefa8    ..O?    DCD    1062203304
        0x00002e5c:    3f1553b7    .S.?    DCD    1058362295
        0x00002e60:    3f4fb4f4    ..O?    DCD    1062188276
        0x00002e64:    3f15a554    T..?    DCD    1058383188
        0x00002e68:    3f4f7a1f    .zO?    DCD    1062173215
        0x00002e6c:    3f15f6d9    ...?    DCD    1058404057
        0x00002e70:    3f4f3f2b    +?O?    DCD    1062158123
        0x00002e74:    3f164847    GH.?    DCD    1058424903
        0x00002e78:    3f4f0417    ..O?    DCD    1062142999
        0x00002e7c:    3f16999f    ...?    DCD    1058445727
        0x00002e80:    3f4ec8e4    ..N?    DCD    1062127844
        0x00002e84:    3f16eadf    ...?    DCD    1058466527
        0x00002e88:    3f4e8d90    ..N?    DCD    1062112656
        0x00002e8c:    3f173c07    .<.?    DCD    1058487303
        0x00002e90:    3f4e521c    .RN?    DCD    1062097436
        0x00002e94:    3f178d18    ...?    DCD    1058508056
        0x00002e98:    3f4e1689    ..N?    DCD    1062082185
        0x00002e9c:    3f17de12    ...?    DCD    1058528786
        0x00002ea0:    3f4ddad5    ..M?    DCD    1062066901
        0x00002ea4:    3f182ef5    ...?    DCD    1058549493
        0x00002ea8:    3f4d9f02    ..M?    DCD    1062051586
        0x00002eac:    3f187fc0    ...?    DCD    1058570176
        0x00002eb0:    3f4d6310    .cM?    DCD    1062036240
        0x00002eb4:    3f18d073    s..?    DCD    1058590835
        0x00002eb8:    3f4d26fd    .&M?    DCD    1062020861
        0x00002ebc:    3f19210f    .!.?    DCD    1058611471
        0x00002ec0:    3f4ceacb    ..L?    DCD    1062005451
        0x00002ec4:    3f197194    .q.?    DCD    1058632084
        0x00002ec8:    3f4cae79    y.L?    DCD    1061990009
        0x00002ecc:    3f19c200    ...?    DCD    1058652672
        0x00002ed0:    3f4c7208    .rL?    DCD    1061974536
        0x00002ed4:    3f1a1255    U..?    DCD    1058673237
        0x00002ed8:    3f4c3578    x5L?    DCD    1061959032
        0x00002edc:    3f1a6293    .b.?    DCD    1058693779
        0x00002ee0:    3f4bf8c7    ..K?    DCD    1061943495
        0x00002ee4:    3f1ab2b8    ...?    DCD    1058714296
        0x00002ee8:    3f4bbbf8    ..K?    DCD    1061927928
        0x00002eec:    3f1b02c6    ...?    DCD    1058734790
        0x00002ef0:    3f4b7f09    ..K?    DCD    1061912329
        0x00002ef4:    3f1b52bb    .R.?    DCD    1058755259
        0x00002ef8:    3f4b41fa    .AK?    DCD    1061896698
        0x00002efc:    3f1ba299    ...?    DCD    1058775705
        0x00002f00:    3f4b04cc    ..K?    DCD    1061881036
        0x00002f04:    3f1bf25f    _..?    DCD    1058796127
        0x00002f08:    3f4ac77f    ..J?    DCD    1061865343
        0x00002f0c:    3f1c420c    .B.?    DCD    1058816524
        0x00002f10:    3f4a8a13    ..J?    DCD    1061849619
        0x00002f14:    3f1c91a2    ...?    DCD    1058836898
        0x00002f18:    3f4a4c87    .LJ?    DCD    1061833863
        0x00002f1c:    3f1ce11f    ...?    DCD    1058857247
        0x00002f20:    3f4a0edc    ..J?    DCD    1061818076
        0x00002f24:    3f1d3084    .0.?    DCD    1058877572
        0x00002f28:    3f49d112    ..I?    DCD    1061802258
        0x00002f2c:    3f1d7fd1    ...?    DCD    1058897873
        0x00002f30:    3f499329    ).I?    DCD    1061786409
        0x00002f34:    3f1dcf06    ...?    DCD    1058918150
        0x00002f38:    3f495521    !UI?    DCD    1061770529
        0x00002f3c:    3f1e1e22    "..?    DCD    1058938402
        0x00002f40:    3f4916fa    ..I?    DCD    1061754618
        0x00002f44:    3f1e6d26    &m.?    DCD    1058958630
        0x00002f48:    3f48d8b3    ..H?    DCD    1061738675
        0x00002f4c:    3f1ebc12    ...?    DCD    1058978834
        0x00002f50:    3f489a4e    N.H?    DCD    1061722702
        0x00002f54:    3f1f0ae5    ...?    DCD    1058999013
        0x00002f58:    3f485bca    .[H?    DCD    1061706698
        0x00002f5c:    3f1f599f    .Y.?    DCD    1059019167
        0x00002f60:    3f481d27    '.H?    DCD    1061690663
        0x00002f64:    3f1fa841    A..?    DCD    1059039297
        0x00002f68:    3f47de65    e.G?    DCD    1061674597
        0x00002f6c:    3f1ff6cb    ...?    DCD    1059059403
        0x00002f70:    3f479f84    ..G?    DCD    1061658500
        0x00002f74:    3f20453b    ;E ?    DCD    1059079483
        0x00002f78:    3f476085    .`G?    DCD    1061642373
        0x00002f7c:    3f209393    .. ?    DCD    1059099539
        0x00002f80:    3f472167    g!G?    DCD    1061626215
        0x00002f84:    3f20e1d2    .. ?    DCD    1059119570
        0x00002f88:    3f46e22a    *.F?    DCD    1061610026
        0x00002f8c:    3f212ff9    ./!?    DCD    1059139577
        0x00002f90:    3f46a2ce    ..F?    DCD    1061593806
        0x00002f94:    3f217e06    .~!?    DCD    1059159558
        0x00002f98:    3f466354    TcF?    DCD    1061577556
        0x00002f9c:    3f21cbfb    ..!?    DCD    1059179515
        0x00002fa0:    3f4623bb    .#F?    DCD    1061561275
        0x00002fa4:    3f2219d7    .."?    DCD    1059199447
        0x00002fa8:    3f45e403    ..E?    DCD    1061544963
        0x00002fac:    3f226799    .g"?    DCD    1059219353
        0x00002fb0:    3f45a42d    -.E?    DCD    1061528621
        0x00002fb4:    3f22b543    C."?    DCD    1059239235
        0x00002fb8:    3f456439    9dE?    DCD    1061512249
        0x00002fbc:    3f2302d3    ..#?    DCD    1059259091
        0x00002fc0:    3f452426    &$E?    DCD    1061495846
        0x00002fc4:    3f23504b    KP#?    DCD    1059278923
        0x00002fc8:    3f44e3f5    ..D?    DCD    1061479413
        0x00002fcc:    3f239da9    ..#?    DCD    1059298729
        0x00002fd0:    3f44a3a5    ..D?    DCD    1061462949
        0x00002fd4:    3f23eaee    ..#?    DCD    1059318510
        0x00002fd8:    3f446337    7cD?    DCD    1061446455
        0x00002fdc:    3f24381a    .8$?    DCD    1059338266
        0x00002fe0:    3f4422ab    ."D?    DCD    1061429931
        0x00002fe4:    3f24852c    ,.$?    DCD    1059357996
        0x00002fe8:    3f43e200    ..C?    DCD    1061413376
        0x00002fec:    3f24d225    %.$?    DCD    1059377701
        0x00002ff0:    3f43a138    8.C?    DCD    1061396792
        0x00002ff4:    3f251f04    ..%?    DCD    1059397380
        0x00002ff8:    3f436051    Q`C?    DCD    1061380177
        0x00002ffc:    3f256bcb    .k%?    DCD    1059417035
        0x00003000:    3f431f4c    L.C?    DCD    1061363532
        0x00003004:    3f25b877    w.%?    DCD    1059436663
        0x00003008:    3f42de29    ).B?    DCD    1061346857
        0x0000300c:    3f26050a    ..&?    DCD    1059456266
        0x00003010:    3f429ce8    ..B?    DCD    1061330152
        0x00003014:    3f265184    .Q&?    DCD    1059475844
        0x00003018:    3f425b89    .[B?    DCD    1061313417
        0x0000301c:    3f269de3    ..&?    DCD    1059495395
        0x00003020:    3f421a0b    ..B?    DCD    1061296651
        0x00003024:    3f26ea2a    *.&?    DCD    1059514922
        0x00003028:    3f41d870    p.A?    DCD    1061279856
        0x0000302c:    3f273656    V6'?    DCD    1059534422
        0x00003030:    3f4196b7    ..A?    DCD    1061263031
        0x00003034:    3f278268    h.'?    DCD    1059553896
        0x00003038:    3f4154e1    .TA?    DCD    1061246177
        0x0000303c:    3f27ce61    a.'?    DCD    1059573345
        0x00003040:    3f4112ec    ..A?    DCD    1061229292
        0x00003044:    3f281a40    @.(?    DCD    1059592768
        0x00003048:    3f40d0da    ..@?    DCD    1061212378
        0x0000304c:    3f286605    .f(?    DCD    1059612165
        0x00003050:    3f408ea9    ..@?    DCD    1061195433
        0x00003054:    3f28b1b0    ..(?    DCD    1059631536
        0x00003058:    3f404c5c    \L@?    DCD    1061178460
        0x0000305c:    3f28fd41    A.(?    DCD    1059650881
        0x00003060:    3f4009f0    ..@?    DCD    1061161456
        0x00003064:    3f2948b8    .H)?    DCD    1059670200
        0x00003068:    3f3fc767    g.??    DCD    1061144423
        0x0000306c:    3f299415    ..)?    DCD    1059689493
        0x00003070:    3f3f84c0    ..??    DCD    1061127360
        0x00003074:    3f29df57    W.)?    DCD    1059708759
        0x00003078:    3f3f41fc    .A??    DCD    1061110268
        0x0000307c:    3f2a2a80    .**?    DCD    1059728000
        0x00003080:    3f3eff1b    ..>?    DCD    1061093147
        0x00003084:    3f2a758e    .u*?    DCD    1059747214
        0x00003088:    3f3ebc1b    ..>?    DCD    1061075995
        0x0000308c:    3f2ac082    ..*?    DCD    1059766402
        0x00003090:    3f3e78ff    .x>?    DCD    1061058815
        0x00003094:    3f2b0b5b    [.+?    DCD    1059785563
        0x00003098:    3f3e35c5    .5>?    DCD    1061041605
        0x0000309c:    3f2b561b    .V+?    DCD    1059804699
        0x000030a0:    3f3df26e    n.=?    DCD    1061024366
        0x000030a4:    3f2ba0bf    ..+?    DCD    1059823807
        0x000030a8:    3f3daef9    ..=?    DCD    1061007097
        0x000030ac:    3f2beb4a    J.+?    DCD    1059842890
        0x000030b0:    3f3d6b67    gk=?    DCD    1060989799
        0x000030b4:    3f2c35b9    .5,?    DCD    1059861945
        0x000030b8:    3f3d27b8    .'=?    DCD    1060972472
        0x000030bc:    3f2c800f    ..,?    DCD    1059880975
        0x000030c0:    3f3ce3ec    ..<?    DCD    1060955116
        0x000030c4:    3f2cca49    I.,?    DCD    1059899977
        0x000030c8:    3f3ca003    ..<?    DCD    1060937731
        0x000030cc:    3f2d1469    i.-?    DCD    1059918953
        0x000030d0:    3f3c5bfc    .[<?    DCD    1060920316
        0x000030d4:    3f2d5e6f    o^-?    DCD    1059937903
        0x000030d8:    3f3c17d9    ..<?    DCD    1060902873
        0x000030dc:    3f2da859    Y.-?    DCD    1059956825
        0x000030e0:    3f3bd398    ..;?    DCD    1060885400
        0x000030e4:    3f2df229    ).-?    DCD    1059975721
        0x000030e8:    3f3b8f3b    ;.;?    DCD    1060867899
        0x000030ec:    3f2e3bde    .;.?    DCD    1059994590
        0x000030f0:    3f3b4ac1    .J;?    DCD    1060850369
        0x000030f4:    3f2e8578    x..?    DCD    1060013432
        0x000030f8:    3f3b0629    ).;?    DCD    1060832809
        0x000030fc:    3f2ecef7    ...?    DCD    1060032247
        0x00003100:    3f3ac175    u.:?    DCD    1060815221
        0x00003104:    3f2f185b    [./?    DCD    1060051035
        0x00003108:    3f3a7ca4    .|:?    DCD    1060797604
        0x0000310c:    3f2f61a5    .a/?    DCD    1060069797
        0x00003110:    3f3a37b7    .7:?    DCD    1060779959
        0x00003114:    3f2faad3    ../?    DCD    1060088531
        0x00003118:    3f39f2ac    ..9?    DCD    1060762284
        0x0000311c:    3f2ff3e6    ../?    DCD    1060107238
        0x00003120:    3f39ad85    ..9?    DCD    1060744581
        0x00003124:    3f303cde    .<0?    DCD    1060125918
        0x00003128:    3f396842    Bh9?    DCD    1060726850
        0x0000312c:    3f3085bb    ..0?    DCD    1060144571
        0x00003130:    3f3922e1    ."9?    DCD    1060709089
        0x00003134:    3f30ce7c    |.0?    DCD    1060163196
        0x00003138:    3f38dd65    e.8?    DCD    1060691301
        0x0000313c:    3f311722    ".1?    DCD    1060181794
        0x00003140:    3f3897cb    ..8?    DCD    1060673483
        0x00003144:    3f315fad    ._1?    DCD    1060200365
        0x00003148:    3f385216    .R8?    DCD    1060655638
        0x0000314c:    3f31a81d    ..1?    DCD    1060218909
        0x00003150:    3f380c43    C.8?    DCD    1060637763
        0x00003154:    3f31f071    q.1?    DCD    1060237425
        0x00003158:    3f37c655    U.7?    DCD    1060619861
        0x0000315c:    3f3238aa    .82?    DCD    1060255914
        0x00003160:    3f37804a    J.7?    DCD    1060601930
        0x00003164:    3f3280c7    ..2?    DCD    1060274375
        0x00003168:    3f373a23    #:7?    DCD    1060583971
        0x0000316c:    3f32c8c9    ..2?    DCD    1060292809
        0x00003170:    3f36f3df    ..6?    DCD    1060565983
        0x00003174:    3f3310af    ..3?    DCD    1060311215
        0x00003178:    3f36ad7f    ..6?    DCD    1060547967
        0x0000317c:    3f33587a    zX3?    DCD    1060329594
        0x00003180:    3f366704    .g6?    DCD    1060529924
        0x00003184:    3f33a029    ).3?    DCD    1060347945
        0x00003188:    3f36206c    l 6?    DCD    1060511852
        0x0000318c:    3f33e7bc    ..3?    DCD    1060366268
        0x00003190:    3f35d9b8    ..5?    DCD    1060493752
        0x00003194:    3f342f34    4/4?    DCD    1060384564
        0x00003198:    3f3592e7    ..5?    DCD    1060475623
        0x0000319c:    3f34768f    .v4?    DCD    1060402831
        0x000031a0:    3f354bfb    .K5?    DCD    1060457467
        0x000031a4:    3f34bdcf    ..4?    DCD    1060421071
        0x000031a8:    3f3504f3    ..5?    DCD    1060439283
        0x000031ac:    3f3504f3    ..5?    DCD    1060439283
        0x000031b0:    3f34bdcf    ..4?    DCD    1060421071
        0x000031b4:    3f354bfb    .K5?    DCD    1060457467
        0x000031b8:    3f34768f    .v4?    DCD    1060402831
        0x000031bc:    3f3592e7    ..5?    DCD    1060475623
        0x000031c0:    3f342f34    4/4?    DCD    1060384564
        0x000031c4:    3f35d9b8    ..5?    DCD    1060493752
        0x000031c8:    3f33e7bc    ..3?    DCD    1060366268
        0x000031cc:    3f36206c    l 6?    DCD    1060511852
        0x000031d0:    3f33a029    ).3?    DCD    1060347945
        0x000031d4:    3f366704    .g6?    DCD    1060529924
        0x000031d8:    3f33587a    zX3?    DCD    1060329594
        0x000031dc:    3f36ad7f    ..6?    DCD    1060547967
        0x000031e0:    3f3310af    ..3?    DCD    1060311215
        0x000031e4:    3f36f3df    ..6?    DCD    1060565983
        0x000031e8:    3f32c8c9    ..2?    DCD    1060292809
        0x000031ec:    3f373a23    #:7?    DCD    1060583971
        0x000031f0:    3f3280c7    ..2?    DCD    1060274375
        0x000031f4:    3f37804a    J.7?    DCD    1060601930
        0x000031f8:    3f3238aa    .82?    DCD    1060255914
        0x000031fc:    3f37c655    U.7?    DCD    1060619861
        0x00003200:    3f31f071    q.1?    DCD    1060237425
        0x00003204:    3f380c43    C.8?    DCD    1060637763
        0x00003208:    3f31a81d    ..1?    DCD    1060218909
        0x0000320c:    3f385216    .R8?    DCD    1060655638
        0x00003210:    3f315fad    ._1?    DCD    1060200365
        0x00003214:    3f3897cb    ..8?    DCD    1060673483
        0x00003218:    3f311722    ".1?    DCD    1060181794
        0x0000321c:    3f38dd65    e.8?    DCD    1060691301
        0x00003220:    3f30ce7c    |.0?    DCD    1060163196
        0x00003224:    3f3922e1    ."9?    DCD    1060709089
        0x00003228:    3f3085bb    ..0?    DCD    1060144571
        0x0000322c:    3f396842    Bh9?    DCD    1060726850
        0x00003230:    3f303cde    .<0?    DCD    1060125918
        0x00003234:    3f39ad85    ..9?    DCD    1060744581
        0x00003238:    3f2ff3e6    ../?    DCD    1060107238
        0x0000323c:    3f39f2ac    ..9?    DCD    1060762284
        0x00003240:    3f2faad3    ../?    DCD    1060088531
        0x00003244:    3f3a37b7    .7:?    DCD    1060779959
        0x00003248:    3f2f61a5    .a/?    DCD    1060069797
        0x0000324c:    3f3a7ca4    .|:?    DCD    1060797604
        0x00003250:    3f2f185b    [./?    DCD    1060051035
        0x00003254:    3f3ac175    u.:?    DCD    1060815221
        0x00003258:    3f2ecef7    ...?    DCD    1060032247
        0x0000325c:    3f3b0629    ).;?    DCD    1060832809
        0x00003260:    3f2e8578    x..?    DCD    1060013432
        0x00003264:    3f3b4ac1    .J;?    DCD    1060850369
        0x00003268:    3f2e3bde    .;.?    DCD    1059994590
        0x0000326c:    3f3b8f3b    ;.;?    DCD    1060867899
        0x00003270:    3f2df229    ).-?    DCD    1059975721
        0x00003274:    3f3bd398    ..;?    DCD    1060885400
        0x00003278:    3f2da859    Y.-?    DCD    1059956825
        0x0000327c:    3f3c17d9    ..<?    DCD    1060902873
        0x00003280:    3f2d5e6f    o^-?    DCD    1059937903
        0x00003284:    3f3c5bfc    .[<?    DCD    1060920316
        0x00003288:    3f2d1469    i.-?    DCD    1059918953
        0x0000328c:    3f3ca003    ..<?    DCD    1060937731
        0x00003290:    3f2cca49    I.,?    DCD    1059899977
        0x00003294:    3f3ce3ec    ..<?    DCD    1060955116
        0x00003298:    3f2c800f    ..,?    DCD    1059880975
        0x0000329c:    3f3d27b8    .'=?    DCD    1060972472
        0x000032a0:    3f2c35b9    .5,?    DCD    1059861945
        0x000032a4:    3f3d6b67    gk=?    DCD    1060989799
        0x000032a8:    3f2beb4a    J.+?    DCD    1059842890
        0x000032ac:    3f3daef9    ..=?    DCD    1061007097
        0x000032b0:    3f2ba0bf    ..+?    DCD    1059823807
        0x000032b4:    3f3df26e    n.=?    DCD    1061024366
        0x000032b8:    3f2b561b    .V+?    DCD    1059804699
        0x000032bc:    3f3e35c5    .5>?    DCD    1061041605
        0x000032c0:    3f2b0b5b    [.+?    DCD    1059785563
        0x000032c4:    3f3e78ff    .x>?    DCD    1061058815
        0x000032c8:    3f2ac082    ..*?    DCD    1059766402
        0x000032cc:    3f3ebc1b    ..>?    DCD    1061075995
        0x000032d0:    3f2a758e    .u*?    DCD    1059747214
        0x000032d4:    3f3eff1b    ..>?    DCD    1061093147
        0x000032d8:    3f2a2a80    .**?    DCD    1059728000
        0x000032dc:    3f3f41fc    .A??    DCD    1061110268
        0x000032e0:    3f29df57    W.)?    DCD    1059708759
        0x000032e4:    3f3f84c0    ..??    DCD    1061127360
        0x000032e8:    3f299415    ..)?    DCD    1059689493
        0x000032ec:    3f3fc767    g.??    DCD    1061144423
        0x000032f0:    3f2948b8    .H)?    DCD    1059670200
        0x000032f4:    3f4009f0    ..@?    DCD    1061161456
        0x000032f8:    3f28fd41    A.(?    DCD    1059650881
        0x000032fc:    3f404c5c    \L@?    DCD    1061178460
        0x00003300:    3f28b1b0    ..(?    DCD    1059631536
        0x00003304:    3f408ea9    ..@?    DCD    1061195433
        0x00003308:    3f286605    .f(?    DCD    1059612165
        0x0000330c:    3f40d0da    ..@?    DCD    1061212378
        0x00003310:    3f281a40    @.(?    DCD    1059592768
        0x00003314:    3f4112ec    ..A?    DCD    1061229292
        0x00003318:    3f27ce61    a.'?    DCD    1059573345
        0x0000331c:    3f4154e1    .TA?    DCD    1061246177
        0x00003320:    3f278268    h.'?    DCD    1059553896
        0x00003324:    3f4196b7    ..A?    DCD    1061263031
        0x00003328:    3f273656    V6'?    DCD    1059534422
        0x0000332c:    3f41d870    p.A?    DCD    1061279856
        0x00003330:    3f26ea2a    *.&?    DCD    1059514922
        0x00003334:    3f421a0b    ..B?    DCD    1061296651
        0x00003338:    3f269de3    ..&?    DCD    1059495395
        0x0000333c:    3f425b89    .[B?    DCD    1061313417
        0x00003340:    3f265184    .Q&?    DCD    1059475844
        0x00003344:    3f429ce8    ..B?    DCD    1061330152
        0x00003348:    3f26050a    ..&?    DCD    1059456266
        0x0000334c:    3f42de29    ).B?    DCD    1061346857
        0x00003350:    3f25b877    w.%?    DCD    1059436663
        0x00003354:    3f431f4c    L.C?    DCD    1061363532
        0x00003358:    3f256bcb    .k%?    DCD    1059417035
        0x0000335c:    3f436051    Q`C?    DCD    1061380177
        0x00003360:    3f251f04    ..%?    DCD    1059397380
        0x00003364:    3f43a138    8.C?    DCD    1061396792
        0x00003368:    3f24d225    %.$?    DCD    1059377701
        0x0000336c:    3f43e200    ..C?    DCD    1061413376
        0x00003370:    3f24852c    ,.$?    DCD    1059357996
        0x00003374:    3f4422ab    ."D?    DCD    1061429931
        0x00003378:    3f24381a    .8$?    DCD    1059338266
        0x0000337c:    3f446337    7cD?    DCD    1061446455
        0x00003380:    3f23eaee    ..#?    DCD    1059318510
        0x00003384:    3f44a3a5    ..D?    DCD    1061462949
        0x00003388:    3f239da9    ..#?    DCD    1059298729
        0x0000338c:    3f44e3f5    ..D?    DCD    1061479413
        0x00003390:    3f23504b    KP#?    DCD    1059278923
        0x00003394:    3f452426    &$E?    DCD    1061495846
        0x00003398:    3f2302d3    ..#?    DCD    1059259091
        0x0000339c:    3f456439    9dE?    DCD    1061512249
        0x000033a0:    3f22b543    C."?    DCD    1059239235
        0x000033a4:    3f45a42d    -.E?    DCD    1061528621
        0x000033a8:    3f226799    .g"?    DCD    1059219353
        0x000033ac:    3f45e403    ..E?    DCD    1061544963
        0x000033b0:    3f2219d7    .."?    DCD    1059199447
        0x000033b4:    3f4623bb    .#F?    DCD    1061561275
        0x000033b8:    3f21cbfb    ..!?    DCD    1059179515
        0x000033bc:    3f466354    TcF?    DCD    1061577556
        0x000033c0:    3f217e06    .~!?    DCD    1059159558
        0x000033c4:    3f46a2ce    ..F?    DCD    1061593806
        0x000033c8:    3f212ff9    ./!?    DCD    1059139577
        0x000033cc:    3f46e22a    *.F?    DCD    1061610026
        0x000033d0:    3f20e1d2    .. ?    DCD    1059119570
        0x000033d4:    3f472167    g!G?    DCD    1061626215
        0x000033d8:    3f209393    .. ?    DCD    1059099539
        0x000033dc:    3f476085    .`G?    DCD    1061642373
        0x000033e0:    3f20453b    ;E ?    DCD    1059079483
        0x000033e4:    3f479f84    ..G?    DCD    1061658500
        0x000033e8:    3f1ff6cb    ...?    DCD    1059059403
        0x000033ec:    3f47de65    e.G?    DCD    1061674597
        0x000033f0:    3f1fa841    A..?    DCD    1059039297
        0x000033f4:    3f481d27    '.H?    DCD    1061690663
        0x000033f8:    3f1f599f    .Y.?    DCD    1059019167
        0x000033fc:    3f485bca    .[H?    DCD    1061706698
        0x00003400:    3f1f0ae5    ...?    DCD    1058999013
        0x00003404:    3f489a4e    N.H?    DCD    1061722702
        0x00003408:    3f1ebc12    ...?    DCD    1058978834
        0x0000340c:    3f48d8b3    ..H?    DCD    1061738675
        0x00003410:    3f1e6d26    &m.?    DCD    1058958630
        0x00003414:    3f4916fa    ..I?    DCD    1061754618
        0x00003418:    3f1e1e22    "..?    DCD    1058938402
        0x0000341c:    3f495521    !UI?    DCD    1061770529
        0x00003420:    3f1dcf06    ...?    DCD    1058918150
        0x00003424:    3f499329    ).I?    DCD    1061786409
        0x00003428:    3f1d7fd1    ...?    DCD    1058897873
        0x0000342c:    3f49d112    ..I?    DCD    1061802258
        0x00003430:    3f1d3084    .0.?    DCD    1058877572
        0x00003434:    3f4a0edc    ..J?    DCD    1061818076
        0x00003438:    3f1ce11f    ...?    DCD    1058857247
        0x0000343c:    3f4a4c87    .LJ?    DCD    1061833863
        0x00003440:    3f1c91a2    ...?    DCD    1058836898
        0x00003444:    3f4a8a13    ..J?    DCD    1061849619
        0x00003448:    3f1c420c    .B.?    DCD    1058816524
        0x0000344c:    3f4ac77f    ..J?    DCD    1061865343
        0x00003450:    3f1bf25f    _..?    DCD    1058796127
        0x00003454:    3f4b04cc    ..K?    DCD    1061881036
        0x00003458:    3f1ba299    ...?    DCD    1058775705
        0x0000345c:    3f4b41fa    .AK?    DCD    1061896698
        0x00003460:    3f1b52bb    .R.?    DCD    1058755259
        0x00003464:    3f4b7f09    ..K?    DCD    1061912329
        0x00003468:    3f1b02c6    ...?    DCD    1058734790
        0x0000346c:    3f4bbbf8    ..K?    DCD    1061927928
        0x00003470:    3f1ab2b8    ...?    DCD    1058714296
        0x00003474:    3f4bf8c7    ..K?    DCD    1061943495
        0x00003478:    3f1a6293    .b.?    DCD    1058693779
        0x0000347c:    3f4c3578    x5L?    DCD    1061959032
        0x00003480:    3f1a1255    U..?    DCD    1058673237
        0x00003484:    3f4c7208    .rL?    DCD    1061974536
        0x00003488:    3f19c200    ...?    DCD    1058652672
        0x0000348c:    3f4cae79    y.L?    DCD    1061990009
        0x00003490:    3f197194    .q.?    DCD    1058632084
        0x00003494:    3f4ceacb    ..L?    DCD    1062005451
        0x00003498:    3f19210f    .!.?    DCD    1058611471
        0x0000349c:    3f4d26fd    .&M?    DCD    1062020861
        0x000034a0:    3f18d073    s..?    DCD    1058590835
        0x000034a4:    3f4d6310    .cM?    DCD    1062036240
        0x000034a8:    3f187fc0    ...?    DCD    1058570176
        0x000034ac:    3f4d9f02    ..M?    DCD    1062051586
        0x000034b0:    3f182ef5    ...?    DCD    1058549493
        0x000034b4:    3f4ddad5    ..M?    DCD    1062066901
        0x000034b8:    3f17de12    ...?    DCD    1058528786
        0x000034bc:    3f4e1689    ..N?    DCD    1062082185
        0x000034c0:    3f178d18    ...?    DCD    1058508056
        0x000034c4:    3f4e521c    .RN?    DCD    1062097436
        0x000034c8:    3f173c07    .<.?    DCD    1058487303
        0x000034cc:    3f4e8d90    ..N?    DCD    1062112656
        0x000034d0:    3f16eadf    ...?    DCD    1058466527
        0x000034d4:    3f4ec8e4    ..N?    DCD    1062127844
        0x000034d8:    3f16999f    ...?    DCD    1058445727
        0x000034dc:    3f4f0417    ..O?    DCD    1062142999
        0x000034e0:    3f164847    GH.?    DCD    1058424903
        0x000034e4:    3f4f3f2b    +?O?    DCD    1062158123
        0x000034e8:    3f15f6d9    ...?    DCD    1058404057
        0x000034ec:    3f4f7a1f    .zO?    DCD    1062173215
        0x000034f0:    3f15a554    T..?    DCD    1058383188
        0x000034f4:    3f4fb4f4    ..O?    DCD    1062188276
        0x000034f8:    3f1553b7    .S.?    DCD    1058362295
        0x000034fc:    3f4fefa8    ..O?    DCD    1062203304
        0x00003500:    3f150204    ...?    DCD    1058341380
        0x00003504:    3f502a3b    ;*P?    DCD    1062218299
        0x00003508:    3f14b039    9..?    DCD    1058320441
        0x0000350c:    3f5064af    .dP?    DCD    1062233263
        0x00003510:    3f145e58    X^.?    DCD    1058299480
        0x00003514:    3f509f03    ..P?    DCD    1062248195
        0x00003518:    3f140c5f    _..?    DCD    1058278495
        0x0000351c:    3f50d937    7.P?    DCD    1062263095
        0x00003520:    3f13ba50    P..?    DCD    1058257488
        0x00003524:    3f51134a    J.Q?    DCD    1062277962
        0x00003528:    3f13682a    *h.?    DCD    1058236458
        0x0000352c:    3f514d3d    =MQ?    DCD    1062292797
        0x00003530:    3f1315ee    ...?    DCD    1058215406
        0x00003534:    3f518710    ..Q?    DCD    1062307600
        0x00003538:    3f12c39a    ...?    DCD    1058194330
        0x0000353c:    3f51c0c2    ..Q?    DCD    1062322370
        0x00003540:    3f127130    0q.?    DCD    1058173232
        0x00003544:    3f51fa54    T.Q?    DCD    1062337108
        0x00003548:    3f121eb0    ...?    DCD    1058152112
        0x0000354c:    3f5233c6    .3R?    DCD    1062351814
        0x00003550:    3f11cc19    ...?    DCD    1058130969
        0x00003554:    3f526d18    .mR?    DCD    1062366488
        0x00003558:    3f11796b    ky.?    DCD    1058109803
        0x0000355c:    3f52a649    I.R?    DCD    1062381129
        0x00003560:    3f1126a7    .&.?    DCD    1058088615
        0x00003564:    3f52df59    Y.R?    DCD    1062395737
        0x00003568:    3f10d3cd    ...?    DCD    1058067405
        0x0000356c:    3f531849    I.S?    DCD    1062410313
        0x00003570:    3f1080dc    ...?    DCD    1058046172
        0x00003574:    3f535118    .QS?    DCD    1062424856
        0x00003578:    3f102dd5    .-.?    DCD    1058024917
        0x0000357c:    3f5389c7    ..S?    DCD    1062439367
        0x00003580:    3f0fdab8    ...?    DCD    1058003640
        0x00003584:    3f53c255    U.S?    DCD    1062453845
        0x00003588:    3f0f8784    ...?    DCD    1057982340
        0x0000358c:    3f53fac3    ..S?    DCD    1062468291
        0x00003590:    3f0f343b    ;4.?    DCD    1057961019
        0x00003594:    3f54330f    .3T?    DCD    1062482703
        0x00003598:    3f0ee0db    ...?    DCD    1057939675
        0x0000359c:    3f546b3b    ;kT?    DCD    1062497083
        0x000035a0:    3f0e8d65    e..?    DCD    1057918309
        0x000035a4:    3f54a347    G.T?    DCD    1062511431
        0x000035a8:    3f0e39da    .9.?    DCD    1057896922
        0x000035ac:    3f54db31    1.T?    DCD    1062525745
        0x000035b0:    3f0de638    8..?    DCD    1057875512
        0x000035b4:    3f5512fb    ..U?    DCD    1062540027
        0x000035b8:    3f0d9281    ...?    DCD    1057854081
        0x000035bc:    3f554aa4    .JU?    DCD    1062554276
        0x000035c0:    3f0d3eb3    .>.?    DCD    1057832627
        0x000035c4:    3f55822c    ,.U?    DCD    1062568492
        0x000035c8:    3f0cead0    ...?    DCD    1057811152
        0x000035cc:    3f55b993    ..U?    DCD    1062582675
        0x000035d0:    3f0c96d7    ...?    DCD    1057789655
        0x000035d4:    3f55f0d9    ..U?    DCD    1062596825
        0x000035d8:    3f0c42c9    .B.?    DCD    1057768137
        0x000035dc:    3f5627fe    .'V?    DCD    1062610942
        0x000035e0:    3f0beea5    ...?    DCD    1057746597
        0x000035e4:    3f565f02    ._V?    DCD    1062625026
        0x000035e8:    3f0b9a6b    k..?    DCD    1057725035
        0x000035ec:    3f5695e5    ..V?    DCD    1062639077
        0x000035f0:    3f0b461c    .F.?    DCD    1057703452
        0x000035f4:    3f56cca7    ..V?    DCD    1062653095
        0x000035f8:    3f0af1b7    ...?    DCD    1057681847
        0x000035fc:    3f570348    H.W?    DCD    1062667080
        0x00003600:    3f0a9d3d    =..?    DCD    1057660221
        0x00003604:    3f5739c7    .9W?    DCD    1062681031
        0x00003608:    3f0a48ad    .H.?    DCD    1057638573
        0x0000360c:    3f577026    &pW?    DCD    1062694950
        0x00003610:    3f09f409    ...?    DCD    1057616905
        0x00003614:    3f57a663    c.W?    DCD    1062708835
        0x00003618:    3f099f4e    N..?    DCD    1057595214
        0x0000361c:    3f57dc7f    ..W?    DCD    1062722687
        0x00003620:    3f094a7f    .J.?    DCD    1057573503
        0x00003624:    3f581279    y.X?    DCD    1062736505
        0x00003628:    3f08f59b    ...?    DCD    1057551771
        0x0000362c:    3f584853    SHX?    DCD    1062750291
        0x00003630:    3f08a0a1    ...?    DCD    1057530017
        0x00003634:    3f587e0b    .~X?    DCD    1062764043
        0x00003638:    3f084b92    .K.?    DCD    1057508242
        0x0000363c:    3f58b3a1    ..X?    DCD    1062777761
        0x00003640:    3f07f66f    o..?    DCD    1057486447
        0x00003644:    3f58e917    ..X?    DCD    1062791447
        0x00003648:    3f07a136    6..?    DCD    1057464630
        0x0000364c:    3f591e6a    j.Y?    DCD    1062805098
        0x00003650:    3f074be8    .K.?    DCD    1057442792
        0x00003654:    3f59539c    .SY?    DCD    1062818716
        0x00003658:    3f06f686    ...?    DCD    1057420934
        0x0000365c:    3f5988ad    ..Y?    DCD    1062832301
        0x00003660:    3f06a10e    ...?    DCD    1057399054
        0x00003664:    3f59bd9c    ..Y?    DCD    1062845852
        0x00003668:    3f064b82    .K.?    DCD    1057377154
        0x0000366c:    3f59f26a    j.Y?    DCD    1062859370
        0x00003670:    3f05f5e2    ...?    DCD    1057355234
        0x00003674:    3f5a2716    .'Z?    DCD    1062872854
        0x00003678:    3f05a02c    ,..?    DCD    1057333292
        0x0000367c:    3f5a5ba0    .[Z?    DCD    1062886304
        0x00003680:    3f054a62    bJ.?    DCD    1057311330
        0x00003684:    3f5a9009    ..Z?    DCD    1062899721
        0x00003688:    3f04f484    ...?    DCD    1057289348
        0x0000368c:    3f5ac450    P.Z?    DCD    1062913104
        0x00003690:    3f049e91    ...?    DCD    1057267345
        0x00003694:    3f5af875    u.Z?    DCD    1062926453
        0x00003698:    3f044889    .H.?    DCD    1057245321
        0x0000369c:    3f5b2c79    y,[?    DCD    1062939769
        0x000036a0:    3f03f26d    m..?    DCD    1057223277
        0x000036a4:    3f5b605a    Z`[?    DCD    1062953050
        0x000036a8:    3f039c3d    =..?    DCD    1057201213
        0x000036ac:    3f5b941a    ..[?    DCD    1062966298
        0x000036b0:    3f0345f8    .E.?    DCD    1057179128
        0x000036b4:    3f5bc7b8    ..[?    DCD    1062979512
        0x000036b8:    3f02ef9f    ...?    DCD    1057157023
        0x000036bc:    3f5bfb34    4.[?    DCD    1062992692
        0x000036c0:    3f029932    2..?    DCD    1057134898
        0x000036c4:    3f5c2e8e    ..\?    DCD    1063005838
        0x000036c8:    3f0242b1    .B.?    DCD    1057112753
        0x000036cc:    3f5c61c7    .a\?    DCD    1063018951
        0x000036d0:    3f01ec1c    ...?    DCD    1057090588
        0x000036d4:    3f5c94dd    ..\?    DCD    1063032029
        0x000036d8:    3f019573    s..?    DCD    1057068403
        0x000036dc:    3f5cc7d1    ..\?    DCD    1063045073
        0x000036e0:    3f013eb5    .>.?    DCD    1057046197
        0x000036e4:    3f5cfaa3    ..\?    DCD    1063058083
        0x000036e8:    3f00e7e4    ...?    DCD    1057023972
        0x000036ec:    3f5d2d53    S-]?    DCD    1063071059
        0x000036f0:    3f0090ff    ...?    DCD    1057001727
        0x000036f4:    3f5d5fe1    ._]?    DCD    1063084001
        0x000036f8:    3f003a06    .:.?    DCD    1056979462
        0x000036fc:    3f5d924d    M.]?    DCD    1063096909
        0x00003700:    3effc5f3    ...>    DCD    1056949747
        0x00003704:    3f5dc497    ..]?    DCD    1063109783
        0x00003708:    3eff17b2    ...>    DCD    1056905138
        0x0000370c:    3f5df6be    ..]?    DCD    1063122622
        0x00003710:    3efe694a    Ji.>    DCD    1056860490
        0x00003714:    3f5e28c3    .(^?    DCD    1063135427
        0x00003718:    3efdbabb    ...>    DCD    1056815803
        0x0000371c:    3f5e5aa6    .Z^?    DCD    1063148198
        0x00003720:    3efd0c04    ...>    DCD    1056771076
        0x00003724:    3f5e8c67    g.^?    DCD    1063160935
        0x00003728:    3efc5d27    '].>    DCD    1056726311
        0x0000372c:    3f5ebe05    ..^?    DCD    1063173637
        0x00003730:    3efbae22    "..>    DCD    1056681506
        0x00003734:    3f5eef81    ..^?    DCD    1063186305
        0x00003738:    3efafef7    ...>    DCD    1056636663
        0x0000373c:    3f5f20db    . _?    DCD    1063198939
        0x00003740:    3efa4fa5    .O.>    DCD    1056591781
        0x00003744:    3f5f5212    .R_?    DCD    1063211538
        0x00003748:    3ef9a02d    -..>    DCD    1056546861
        0x0000374c:    3f5f8327    '._?    DCD    1063224103
        0x00003750:    3ef8f08e    ...>    DCD    1056501902
        0x00003754:    3f5fb419    .._?    DCD    1063236633
        0x00003758:    3ef840c8    .@.>    DCD    1056456904
        0x0000375c:    3f5fe4e9    .._?    DCD    1063249129
        0x00003760:    3ef790dc    ...>    DCD    1056411868
        0x00003764:    3f601596    ..`?    DCD    1063261590
        0x00003768:    3ef6e0cb    ...>    DCD    1056366795
        0x0000376c:    3f604621    !F`?    DCD    1063274017
        0x00003770:    3ef63093    .0.>    DCD    1056321683
        0x00003774:    3f607689    .v`?    DCD    1063286409
        0x00003778:    3ef58035    5..>    DCD    1056276533
        0x0000377c:    3f60a6cf    ..`?    DCD    1063298767
        0x00003780:    3ef4cfb1    ...>    DCD    1056231345
        0x00003784:    3f60d6f2    ..`?    DCD    1063311090
        0x00003788:    3ef41f07    ...>    DCD    1056186119
        0x0000378c:    3f6106f2    ..a?    DCD    1063323378
        0x00003790:    3ef36e38    8n.>    DCD    1056140856
        0x00003794:    3f6136d0    .6a?    DCD    1063335632
        0x00003798:    3ef2bd43    C..>    DCD    1056095555
        0x0000379c:    3f61668a    .fa?    DCD    1063347850
        0x000037a0:    3ef20c29    )..>    DCD    1056050217
        0x000037a4:    3f619622    ".a?    DCD    1063360034
        0x000037a8:    3ef15aea    .Z.>    DCD    1056004842
        0x000037ac:    3f61c598    ..a?    DCD    1063372184
        0x000037b0:    3ef0a985    ...>    DCD    1055959429
        0x000037b4:    3f61f4ea    ..a?    DCD    1063384298
        0x000037b8:    3eeff7fb    ...>    DCD    1055913979
        0x000037bc:    3f62241a    .$b?    DCD    1063396378
        0x000037c0:    3eef464c    LF.>    DCD    1055868492
        0x000037c4:    3f625326    &Sb?    DCD    1063408422
        0x000037c8:    3eee9479    y..>    DCD    1055822969
        0x000037cc:    3f628210    ..b?    DCD    1063420432
        0x000037d0:    3eede280    ...>    DCD    1055777408
        0x000037d4:    3f62b0d7    ..b?    DCD    1063432407
        0x000037d8:    3eed3063    c0.>    DCD    1055731811
        0x000037dc:    3f62df7b    {.b?    DCD    1063444347
        0x000037e0:    3eec7e21    !~.>    DCD    1055686177
        0x000037e4:    3f630dfc    ..c?    DCD    1063456252
        0x000037e8:    3eebcbbb    ...>    DCD    1055640507
        0x000037ec:    3f633c5a    Z<c?    DCD    1063468122
        0x000037f0:    3eeb1930    0..>    DCD    1055594800
        0x000037f4:    3f636a95    .jc?    DCD    1063479957
        0x000037f8:    3eea6681    .f.>    DCD    1055549057
        0x000037fc:    3f6398ac    ..c?    DCD    1063491756
        0x00003800:    3ee9b3ae    ...>    DCD    1055503278
        0x00003804:    3f63c6a1    ..c?    DCD    1063503521
        0x00003808:    3ee900b7    ...>    DCD    1055457463
        0x0000380c:    3f63f473    s.c?    DCD    1063515251
        0x00003810:    3ee84d9c    .M.>    DCD    1055411612
        0x00003814:    3f642221    !"d?    DCD    1063526945
        0x00003818:    3ee79a5d    ]..>    DCD    1055365725
        0x0000381c:    3f644fac    .Od?    DCD    1063538604
        0x00003820:    3ee6e6fb    ...>    DCD    1055319803
        0x00003824:    3f647d14    .}d?    DCD    1063550228
        0x00003828:    3ee63375    u3.>    DCD    1055273845
        0x0000382c:    3f64aa59    Y.d?    DCD    1063561817
        0x00003830:    3ee57fcb    ...>    DCD    1055227851
        0x00003834:    3f64d77b    {.d?    DCD    1063573371
        0x00003838:    3ee4cbfe    ...>    DCD    1055181822
        0x0000383c:    3f650479    y.e?    DCD    1063584889
        0x00003840:    3ee4180e    ...>    DCD    1055135758
        0x00003844:    3f653154    T1e?    DCD    1063596372
        0x00003848:    3ee363fa    .c.>    DCD    1055089658
        0x0000384c:    3f655e0b    .^e?    DCD    1063607819
        0x00003850:    3ee2afc4    ...>    DCD    1055043524
        0x00003854:    3f658aa0    ..e?    DCD    1063619232
        0x00003858:    3ee1fb6a    j..>    DCD    1054997354
        0x0000385c:    3f65b710    ..e?    DCD    1063630608
        0x00003860:    3ee146ee    .F.>    DCD    1054951150
        0x00003864:    3f65e35e    ^.e?    DCD    1063641950
        0x00003868:    3ee0924f    O..>    DCD    1054904911
        0x0000386c:    3f660f88    ..f?    DCD    1063653256
        0x00003870:    3edfdd8d    ...>    DCD    1054858637
        0x00003874:    3f663b8e    .;f?    DCD    1063664526
        0x00003878:    3edf28a9    .(.>    DCD    1054812329
        0x0000387c:    3f666771    qgf?    DCD    1063675761
        0x00003880:    3ede73a2    .s.>    DCD    1054765986
        0x00003884:    3f669330    0.f?    DCD    1063686960
        0x00003888:    3eddbe79    y..>    DCD    1054719609
        0x0000388c:    3f66becc    ..f?    DCD    1063698124
        0x00003890:    3edd092e    ...>    DCD    1054673198
        0x00003894:    3f66ea45    E.f?    DCD    1063709253
        0x00003898:    3edc53c1    .S.>    DCD    1054626753
        0x0000389c:    3f671599    ..g?    DCD    1063720345
        0x000038a0:    3edb9e31    1..>    DCD    1054580273
        0x000038a4:    3f6740ca    .@g?    DCD    1063731402
        0x000038a8:    3edae880    ...>    DCD    1054533760
        0x000038ac:    3f676bd8    .kg?    DCD    1063742424
        0x000038b0:    3eda32ad    .2.>    DCD    1054487213
        0x000038b4:    3f6796c1    ..g?    DCD    1063753409
        0x000038b8:    3ed97cb9    .|.>    DCD    1054440633
        0x000038bc:    3f67c187    ..g?    DCD    1063764359
        0x000038c0:    3ed8c6a3    ...>    DCD    1054394019
        0x000038c4:    3f67ec2a    *.g?    DCD    1063775274
        0x000038c8:    3ed8106b    k..>    DCD    1054347371
        0x000038cc:    3f6816a8    ..h?    DCD    1063786152
        0x000038d0:    3ed75a13    .Z.>    DCD    1054300691
        0x000038d4:    3f684103    .Ah?    DCD    1063796995
        0x000038d8:    3ed6a399    ...>    DCD    1054253977
        0x000038dc:    3f686b39    9kh?    DCD    1063807801
        0x000038e0:    3ed5ecfd    ...>    DCD    1054207229
        0x000038e4:    3f68954c    L.h?    DCD    1063818572
        0x000038e8:    3ed53641    A6.>    DCD    1054160449
        0x000038ec:    3f68bf3c    <.h?    DCD    1063829308
        0x000038f0:    3ed47f64    d..>    DCD    1054113636
        0x000038f4:    3f68e907    ..h?    DCD    1063840007
        0x000038f8:    3ed3c867    g..>    DCD    1054066791
        0x000038fc:    3f6912ae    ..i?    DCD    1063850670
        0x00003900:    3ed31148    H..>    DCD    1054019912
        0x00003904:    3f693c32    2<i?    DCD    1063861298
        0x00003908:    3ed25a09    .Z.>    DCD    1053973001
        0x0000390c:    3f696591    .ei?    DCD    1063871889
        0x00003910:    3ed1a2aa    ...>    DCD    1053926058
        0x00003914:    3f698ecc    ..i?    DCD    1063882444
        0x00003918:    3ed0eb2a    *..>    DCD    1053879082
        0x0000391c:    3f69b7e4    ..i?    DCD    1063892964
        0x00003920:    3ed0338a    .3.>    DCD    1053832074
        0x00003924:    3f69e0d7    ..i?    DCD    1063903447
        0x00003928:    3ecf7bca    .{.>    DCD    1053785034
        0x0000392c:    3f6a09a7    ..j?    DCD    1063913895
        0x00003930:    3ecec3ea    ...>    DCD    1053737962
        0x00003934:    3f6a3252    R2j?    DCD    1063924306
        0x00003938:    3ece0bea    ...>    DCD    1053690858
        0x0000393c:    3f6a5ad9    .Zj?    DCD    1063934681
        0x00003940:    3ecd53ca    .S.>    DCD    1053643722
        0x00003944:    3f6a833c    <.j?    DCD    1063945020
        0x00003948:    3ecc9b8b    ...>    DCD    1053596555
        0x0000394c:    3f6aab7b    {.j?    DCD    1063955323
        0x00003950:    3ecbe32c    ,..>    DCD    1053549356
        0x00003954:    3f6ad395    ..j?    DCD    1063965589
        0x00003958:    3ecb2aae    .*.>    DCD    1053502126
        0x0000395c:    3f6afb8c    ..j?    DCD    1063975820
        0x00003960:    3eca7210    .r.>    DCD    1053454864
        0x00003964:    3f6b235e    ^#k?    DCD    1063986014
        0x00003968:    3ec9b953    S..>    DCD    1053407571
        0x0000396c:    3f6b4b0c    .Kk?    DCD    1063996172
        0x00003970:    3ec90077    w..>    DCD    1053360247
        0x00003974:    3f6b7295    .rk?    DCD    1064006293
        0x00003978:    3ec8477c    |G.>    DCD    1053312892
        0x0000397c:    3f6b99fb    ..k?    DCD    1064016379
        0x00003980:    3ec78e62    b..>    DCD    1053265506
        0x00003984:    3f6bc13b    ;.k?    DCD    1064026427
        0x00003988:    3ec6d529    )..>    DCD    1053218089
        0x0000398c:    3f6be858    X.k?    DCD    1064036440
        0x00003990:    3ec61bd2    ...>    DCD    1053170642
        0x00003994:    3f6c0f50    P.l?    DCD    1064046416
        0x00003998:    3ec5625c    \b.>    DCD    1053123164
        0x0000399c:    3f6c3624    $6l?    DCD    1064056356
        0x000039a0:    3ec4a8c8    ...>    DCD    1053075656
        0x000039a4:    3f6c5cd4    .\l?    DCD    1064066260
        0x000039a8:    3ec3ef15    ...>    DCD    1053028117
        0x000039ac:    3f6c835e    ^.l?    DCD    1064076126
        0x000039b0:    3ec33544    D5.>    DCD    1052980548
        0x000039b4:    3f6ca9c5    ..l?    DCD    1064085957
        0x000039b8:    3ec27b55    U{.>    DCD    1052932949
        0x000039bc:    3f6cd007    ..l?    DCD    1064095751
        0x000039c0:    3ec1c148    H..>    DCD    1052885320
        0x000039c4:    3f6cf624    $.l?    DCD    1064105508
        0x000039c8:    3ec1071e    ...>    DCD    1052837662
        0x000039cc:    3f6d1c1d    ..m?    DCD    1064115229
        0x000039d0:    3ec04cd5    .L.>    DCD    1052789973
        0x000039d4:    3f6d41f2    .Am?    DCD    1064124914
        0x000039d8:    3ebf926f    o..>    DCD    1052742255
        0x000039dc:    3f6d67a1    .gm?    DCD    1064134561
        0x000039e0:    3ebed7eb    ...>    DCD    1052694507
        0x000039e4:    3f6d8d2d    -.m?    DCD    1064144173
        0x000039e8:    3ebe1d4a    J..>    DCD    1052646730
        0x000039ec:    3f6db293    ..m?    DCD    1064153747
        0x000039f0:    3ebd628b    .b.>    DCD    1052598923
        0x000039f4:    3f6dd7d5    ..m?    DCD    1064163285
        0x000039f8:    3ebca7af    ...>    DCD    1052551087
        0x000039fc:    3f6dfcf2    ..m?    DCD    1064172786
        0x00003a00:    3ebbecb6    ...>    DCD    1052503222
        0x00003a04:    3f6e21eb    .!n?    DCD    1064182251
        0x00003a08:    3ebb31a0    .1.>    DCD    1052455328
        0x00003a0c:    3f6e46be    .Fn?    DCD    1064191678
        0x00003a10:    3eba766e    nv.>    DCD    1052407406
        0x00003a14:    3f6e6b6d    mkn?    DCD    1064201069
        0x00003a18:    3eb9bb1e    ...>    DCD    1052359454
        0x00003a1c:    3f6e8ff8    ..n?    DCD    1064210424
        0x00003a20:    3eb8ffb2    ...>    DCD    1052311474
        0x00003a24:    3f6eb45d    ].n?    DCD    1064219741
        0x00003a28:    3eb8442a    *D.>    DCD    1052263466
        0x00003a2c:    3f6ed89e    ..n?    DCD    1064229022
        0x00003a30:    3eb78884    ...>    DCD    1052215428
        0x00003a34:    3f6efcba    ..n?    DCD    1064238266
        0x00003a38:    3eb6ccc3    ...>    DCD    1052167363
        0x00003a3c:    3f6f20b0    . o?    DCD    1064247472
        0x00003a40:    3eb610e6    ...>    DCD    1052119270
        0x00003a44:    3f6f4483    .Do?    DCD    1064256643
        0x00003a48:    3eb554ec    .T.>    DCD    1052071148
        0x00003a4c:    3f6f6830    0ho?    DCD    1064265776
        0x00003a50:    3eb498d6    ...>    DCD    1052022998
        0x00003a54:    3f6f8bb8    ..o?    DCD    1064274872
        0x00003a58:    3eb3dca5    ...>    DCD    1051974821
        0x00003a5c:    3f6faf1b    ..o?    DCD    1064283931
        0x00003a60:    3eb32058    X .>    DCD    1051926616
        0x00003a64:    3f6fd25a    Z.o?    DCD    1064292954
        0x00003a68:    3eb263ef    .c.>    DCD    1051878383
        0x00003a6c:    3f6ff573    s.o?    DCD    1064301939
        0x00003a70:    3eb1a76b    k..>    DCD    1051830123
        0x00003a74:    3f701867    g.p?    DCD    1064310887
        0x00003a78:    3eb0eacb    ...>    DCD    1051781835
        0x00003a7c:    3f703b37    7;p?    DCD    1064319799
        0x00003a80:    3eb02e10    ...>    DCD    1051733520
        0x00003a84:    3f705de1    .]p?    DCD    1064328673
        0x00003a88:    3eaf713a    :q.>    DCD    1051685178
        0x00003a8c:    3f708066    f.p?    DCD    1064337510
        0x00003a90:    3eaeb449    I..>    DCD    1051636809
        0x00003a94:    3f70a2c6    ..p?    DCD    1064346310
        0x00003a98:    3eadf73c    <..>    DCD    1051588412
        0x00003a9c:    3f70c502    ..p?    DCD    1064355074
        0x00003aa0:    3ead3a15    .:.>    DCD    1051539989
        0x00003aa4:    3f70e717    ..p?    DCD    1064363799
        0x00003aa8:    3eac7cd4    .|.>    DCD    1051491540
        0x00003aac:    3f710908    ..q?    DCD    1064372488
        0x00003ab0:    3eabbf77    w..>    DCD    1051443063
        0x00003ab4:    3f712ad4    .*q?    DCD    1064381140
        0x00003ab8:    3eab0201    ...>    DCD    1051394561
        0x00003abc:    3f714c7a    zLq?    DCD    1064389754
        0x00003ac0:    3eaa446f    oD.>    DCD    1051346031
        0x00003ac4:    3f716dfb    .mq?    DCD    1064398331
        0x00003ac8:    3ea986c4    ...>    DCD    1051297476
        0x00003acc:    3f718f57    W.q?    DCD    1064406871
        0x00003ad0:    3ea8c8fe    ...>    DCD    1051248894
        0x00003ad4:    3f71b08e    ..q?    DCD    1064415374
        0x00003ad8:    3ea80b1f    ...>    DCD    1051200287
        0x00003adc:    3f71d19f    ..q?    DCD    1064423839
        0x00003ae0:    3ea74d25    %M.>    DCD    1051151653
        0x00003ae4:    3f71f28c    ..q?    DCD    1064432268
        0x00003ae8:    3ea68f12    ...>    DCD    1051102994
        0x00003aec:    3f721352    R.r?    DCD    1064440658
        0x00003af0:    3ea5d0e5    ...>    DCD    1051054309
        0x00003af4:    3f7233f4    .3r?    DCD    1064449012
        0x00003af8:    3ea5129f    ...>    DCD    1051005599
        0x00003afc:    3f725470    pTr?    DCD    1064457328
        0x00003b00:    3ea4543f    ?T.>    DCD    1050956863
        0x00003b04:    3f7274c7    .tr?    DCD    1064465607
        0x00003b08:    3ea395c5    ...>    DCD    1050908101
        0x00003b0c:    3f7294f8    ..r?    DCD    1064473848
        0x00003b10:    3ea2d733    3..>    DCD    1050859315
        0x00003b14:    3f72b504    ..r?    DCD    1064482052
        0x00003b18:    3ea21887    ...>    DCD    1050810503
        0x00003b1c:    3f72d4eb    ..r?    DCD    1064490219
        0x00003b20:    3ea159c2    .Y.>    DCD    1050761666
        0x00003b24:    3f72f4ac    ..r?    DCD    1064498348
        0x00003b28:    3ea09ae5    ...>    DCD    1050712805
        0x00003b2c:    3f731447    G.s?    DCD    1064506439
        0x00003b30:    3e9fdbee    ...>    DCD    1050663918
        0x00003b34:    3f7333be    .3s?    DCD    1064514494
        0x00003b38:    3e9f1cdf    ...>    DCD    1050615007
        0x00003b3c:    3f73530e    .Ss?    DCD    1064522510
        0x00003b40:    3e9e5db8    .].>    DCD    1050566072
        0x00003b44:    3f737239    9rs?    DCD    1064530489
        0x00003b48:    3e9d9e78    x..>    DCD    1050517112
        0x00003b4c:    3f73913f    ?.s?    DCD    1064538431
        0x00003b50:    3e9cdf20     ..>    DCD    1050468128
        0x00003b54:    3f73b01f    ..s?    DCD    1064546335
        0x00003b58:    3e9c1faf    ...>    DCD    1050419119
        0x00003b5c:    3f73ced9    ..s?    DCD    1064554201
        0x00003b60:    3e9b6027    '`.>    DCD    1050370087
        0x00003b64:    3f73ed6e    n.s?    DCD    1064562030
        0x00003b68:    3e9aa086    ...>    DCD    1050321030
        0x00003b6c:    3f740bdd    ..t?    DCD    1064569821
        0x00003b70:    3e99e0ce    ...>    DCD    1050271950
        0x00003b74:    3f742a27    '*t?    DCD    1064577575
        0x00003b78:    3e9920fe    . .>    DCD    1050222846
        0x00003b7c:    3f74484b    KHt?    DCD    1064585291
        0x00003b80:    3e986116    .a.>    DCD    1050173718
        0x00003b84:    3f746649    Ift?    DCD    1064592969
        0x00003b88:    3e97a117    ...>    DCD    1050124567
        0x00003b8c:    3f748422    ".t?    DCD    1064600610
        0x00003b90:    3e96e100    ...>    DCD    1050075392
        0x00003b94:    3f74a1d5    ..t?    DCD    1064608213
        0x00003b98:    3e9620d2    . .>    DCD    1050026194
        0x00003b9c:    3f74bf62    b.t?    DCD    1064615778
        0x00003ba0:    3e95608d    .`.>    DCD    1049976973
        0x00003ba4:    3f74dcc9    ..t?    DCD    1064623305
        0x00003ba8:    3e94a031    1..>    DCD    1049927729
        0x00003bac:    3f74fa0b    ..t?    DCD    1064630795
        0x00003bb0:    3e93dfbf    ...>    DCD    1049878463
        0x00003bb4:    3f751727    '.u?    DCD    1064638247
        0x00003bb8:    3e931f35    5..>    DCD    1049829173
        0x00003bbc:    3f75341d    .4u?    DCD    1064645661
        0x00003bc0:    3e925e94    .^.>    DCD    1049779860
        0x00003bc4:    3f7550ed    .Pu?    DCD    1064653037
        0x00003bc8:    3e919ddd    ...>    DCD    1049730525
        0x00003bcc:    3f756d97    .mu?    DCD    1064660375
        0x00003bd0:    3e90dd10    ...>    DCD    1049681168
        0x00003bd4:    3f758a1c    ..u?    DCD    1064667676
        0x00003bd8:    3e901c2c    ,..>    DCD    1049631788
        0x00003bdc:    3f75a67b    {.u?    DCD    1064674939
        0x00003be0:    3e8f5b32    2[.>    DCD    1049582386
        0x00003be4:    3f75c2b3    ..u?    DCD    1064682163
        0x00003be8:    3e8e9a22    "..>    DCD    1049532962
        0x00003bec:    3f75dec6    ..u?    DCD    1064689350
        0x00003bf0:    3e8dd8fc    ...>    DCD    1049483516
        0x00003bf4:    3f75fab3    ..u?    DCD    1064696499
        0x00003bf8:    3e8d17c0    ...>    DCD    1049434048
        0x00003bfc:    3f76167a    z.v?    DCD    1064703610
        0x00003c00:    3e8c566e    nV.>    DCD    1049384558
        0x00003c04:    3f76321b    .2v?    DCD    1064710683
        0x00003c08:    3e8b9507    ...>    DCD    1049335047
        0x00003c0c:    3f764d97    .Mv?    DCD    1064717719
        0x00003c10:    3e8ad38a    ...>    DCD    1049285514
        0x00003c14:    3f7668ec    .hv?    DCD    1064724716
        0x00003c18:    3e8a11f8    ...>    DCD    1049235960
        0x00003c1c:    3f76841b    ..v?    DCD    1064731675
        0x00003c20:    3e895050    PP.>    DCD    1049186384
        0x00003c24:    3f769f24    $.v?    DCD    1064738596
        0x00003c28:    3e888e93    ...>    DCD    1049136787
        0x00003c2c:    3f76ba07    ..v?    DCD    1064745479
        0x00003c30:    3e87ccc1    ...>    DCD    1049087169
        0x00003c34:    3f76d4c4    ..v?    DCD    1064752324
        0x00003c38:    3e870ada    ...>    DCD    1049037530
        0x00003c3c:    3f76ef5b    [.v?    DCD    1064759131
        0x00003c40:    3e8648df    .H.>    DCD    1048987871
        0x00003c44:    3f7709cc    ..w?    DCD    1064765900
        0x00003c48:    3e8586ce    ...>    DCD    1048938190
        0x00003c4c:    3f772417    .$w?    DCD    1064772631
        0x00003c50:    3e84c4aa    ...>    DCD    1048888490
        0x00003c54:    3f773e3c    <>w?    DCD    1064779324
        0x00003c58:    3e840270    p..>    DCD    1048838768
        0x00003c5c:    3f77583a    :Xw?    DCD    1064785978
        0x00003c60:    3e834022    "@.>    DCD    1048789026
        0x00003c64:    3f777213    .rw?    DCD    1064792595
        0x00003c68:    3e827dc0    .}.>    DCD    1048739264
        0x00003c6c:    3f778bc5    ..w?    DCD    1064799173
        0x00003c70:    3e81bb4a    J..>    DCD    1048689482
        0x00003c74:    3f77a551    Q.w?    DCD    1064805713
        0x00003c78:    3e80f8c0    ...>    DCD    1048639680
        0x00003c7c:    3f77beb7    ..w?    DCD    1064812215
        0x00003c80:    3e803622    "6.>    DCD    1048589858
        0x00003c84:    3f77d7f7    ..w?    DCD    1064818679
        0x00003c88:    3e7ee6e1    ..~>    DCD    1048504033
        0x00003c8c:    3f77f110    ..w?    DCD    1064825104
        0x00003c90:    3e7d6156    Va}>    DCD    1048404310
        0x00003c94:    3f780a04    ..x?    DCD    1064831492
        0x00003c98:    3e7bdba4    ..{>    DCD    1048304548
        0x00003c9c:    3f7822d1    ."x?    DCD    1064837841
        0x00003ca0:    3e7a55cb    .Uz>    DCD    1048204747
        0x00003ca4:    3f783b77    w;x?    DCD    1064844151
        0x00003ca8:    3e78cfcc    ..x>    DCD    1048104908
        0x00003cac:    3f7853f8    .Sx?    DCD    1064850424
        0x00003cb0:    3e7749a6    .Iw>    DCD    1048005030
        0x00003cb4:    3f786c52    Rlx?    DCD    1064856658
        0x00003cb8:    3e75c35a    Z.u>    DCD    1047905114
        0x00003cbc:    3f788486    ..x?    DCD    1064862854
        0x00003cc0:    3e743ce8    .<t>    DCD    1047805160
        0x00003cc4:    3f789c93    ..x?    DCD    1064869011
        0x00003cc8:    3e72b651    Q.r>    DCD    1047705169
        0x00003ccc:    3f78b47b    {.x?    DCD    1064875131
        0x00003cd0:    3e712f94    ./q>    DCD    1047605140
        0x00003cd4:    3f78cc3b    ;.x?    DCD    1064881211
        0x00003cd8:    3e6fa8b2    ..o>    DCD    1047505074
        0x00003cdc:    3f78e3d6    ..x?    DCD    1064887254
        0x00003ce0:    3e6e21ab    .!n>    DCD    1047404971
        0x00003ce4:    3f78fb4a    J.x?    DCD    1064893258
        0x00003ce8:    3e6c9a7f    ..l>    DCD    1047304831
        0x00003cec:    3f791298    ..y?    DCD    1064899224
        0x00003cf0:    3e6b132f    /.k>    DCD    1047204655
        0x00003cf4:    3f7929bf    .)y?    DCD    1064905151
        0x00003cf8:    3e698bba    ..i>    DCD    1047104442
        0x00003cfc:    3f7940c0    .@y?    DCD    1064911040
        0x00003d00:    3e680422    ".h>    DCD    1047004194
        0x00003d04:    3f79579a    .Wy?    DCD    1064916890
        0x00003d08:    3e667c66    f|f>    DCD    1046903910
        0x00003d0c:    3f796e4e    Nny?    DCD    1064922702
        0x00003d10:    3e64f486    ..d>    DCD    1046803590
        0x00003d14:    3f7984dc    ..y?    DCD    1064928476
        0x00003d18:    3e636c83    .lc>    DCD    1046703235
        0x00003d1c:    3f799b43    C.y?    DCD    1064934211
        0x00003d20:    3e61e45c    \.a>    DCD    1046602844
        0x00003d24:    3f79b183    ..y?    DCD    1064939907
        0x00003d28:    3e605c13    .\`>    DCD    1046502419
        0x00003d2c:    3f79c79d    ..y?    DCD    1064945565
        0x00003d30:    3e5ed3a8    ..^>    DCD    1046401960
        0x00003d34:    3f79dd91    ..y?    DCD    1064951185
        0x00003d38:    3e5d4b1a    .K]>    DCD    1046301466
        0x00003d3c:    3f79f35e    ^.y?    DCD    1064956766
        0x00003d40:    3e5bc26a    j.[>    DCD    1046200938
        0x00003d44:    3f7a0904    ..z?    DCD    1064962308
        0x00003d48:    3e5a3997    .9Z>    DCD    1046100375
        0x00003d4c:    3f7a1e84    ..z?    DCD    1064967812
        0x00003d50:    3e58b0a4    ..X>    DCD    1045999780
        0x00003d54:    3f7a33dd    .3z?    DCD    1064973277
        0x00003d58:    3e57278f    .'W>    DCD    1045899151
        0x00003d5c:    3f7a4910    .Iz?    DCD    1064978704
        0x00003d60:    3e559e58    X.U>    DCD    1045798488
        0x00003d64:    3f7a5e1c    .^z?    DCD    1064984092
        0x00003d68:    3e541501    ..T>    DCD    1045697793
        0x00003d6c:    3f7a7302    .sz?    DCD    1064989442
        0x00003d70:    3e528b89    ..R>    DCD    1045597065
        0x00003d74:    3f7a87c1    ..z?    DCD    1064994753
        0x00003d78:    3e5101f1    ..Q>    DCD    1045496305
        0x00003d7c:    3f7a9c59    Y.z?    DCD    1065000025
        0x00003d80:    3e4f7838    8xO>    DCD    1045395512
        0x00003d84:    3f7ab0cb    ..z?    DCD    1065005259
        0x00003d88:    3e4dee60    `.M>    DCD    1045294688
        0x00003d8c:    3f7ac516    ..z?    DCD    1065010454
        0x00003d90:    3e4c6467    gdL>    DCD    1045193831
        0x00003d94:    3f7ad93a    :.z?    DCD    1065015610
        0x00003d98:    3e4ada4f    O.J>    DCD    1045092943
        0x00003d9c:    3f7aed37    7.z?    DCD    1065020727
        0x00003da0:    3e495018    .PI>    DCD    1044992024
        0x00003da4:    3f7b010e    ..{?    DCD    1065025806
        0x00003da8:    3e47c5c2    ..G>    DCD    1044891074
        0x00003dac:    3f7b14be    ..{?    DCD    1065030846
        0x00003db0:    3e463b4d    M;F>    DCD    1044790093
        0x00003db4:    3f7b2848    H({?    DCD    1065035848
        0x00003db8:    3e44b0b9    ..D>    DCD    1044689081
        0x00003dbc:    3f7b3bab    .;{?    DCD    1065040811
        0x00003dc0:    3e432607    .&C>    DCD    1044588039
        0x00003dc4:    3f7b4ee7    .N{?    DCD    1065045735
        0x00003dc8:    3e419b37    7.A>    DCD    1044486967
        0x00003dcc:    3f7b61fc    .a{?    DCD    1065050620
        0x00003dd0:    3e401049    I.@>    DCD    1044385865
        0x00003dd4:    3f7b74ea    .t{?    DCD    1065055466
        0x00003dd8:    3e3e853e    >.>>    DCD    1044284734
        0x00003ddc:    3f7b87b2    ..{?    DCD    1065060274
        0x00003de0:    3e3cfa15    ..<>    DCD    1044183573
        0x00003de4:    3f7b9a53    S.{?    DCD    1065065043
        0x00003de8:    3e3b6ecf    .n;>    DCD    1044082383
        0x00003dec:    3f7baccd    ..{?    DCD    1065069773
        0x00003df0:    3e39e36c    l.9>    DCD    1043981164
        0x00003df4:    3f7bbf20     .{?    DCD    1065074464
        0x00003df8:    3e3857ec    .W8>    DCD    1043879916
        0x00003dfc:    3f7bd14d    M.{?    DCD    1065079117
        0x00003e00:    3e36cc50    P.6>    DCD    1043778640
        0x00003e04:    3f7be353    S.{?    DCD    1065083731
        0x00003e08:    3e354098    .@5>    DCD    1043677336
        0x00003e0c:    3f7bf531    1.{?    DCD    1065088305
        0x00003e10:    3e33b4c4    ..3>    DCD    1043576004
        0x00003e14:    3f7c06e9    ..|?    DCD    1065092841
        0x00003e18:    3e3228d4    .(2>    DCD    1043474644
        0x00003e1c:    3f7c187a    z.|?    DCD    1065097338
        0x00003e20:    3e309cc9    ..0>    DCD    1043373257
        0x00003e24:    3f7c29e5    .)|?    DCD    1065101797
        0x00003e28:    3e2f10a2    ../>    DCD    1043271842
        0x00003e2c:    3f7c3b28    (;|?    DCD    1065106216
        0x00003e30:    3e2d8461    a.->    DCD    1043170401
        0x00003e34:    3f7c4c44    DL|?    DCD    1065110596
        0x00003e38:    3e2bf804    ..+>    DCD    1043068932
        0x00003e3c:    3f7c5d3a    :]|?    DCD    1065114938
        0x00003e40:    3e2a6b8d    .k*>    DCD    1042967437
        0x00003e44:    3f7c6e08    .n|?    DCD    1065119240
        0x00003e48:    3e28defc    ..(>    DCD    1042865916
        0x00003e4c:    3f7c7eb0    .~|?    DCD    1065123504
        0x00003e50:    3e275251    QR'>    DCD    1042764369
        0x00003e54:    3f7c8f31    1.|?    DCD    1065127729
        0x00003e58:    3e25c58c    ..%>    DCD    1042662796
        0x00003e5c:    3f7c9f8a    ..|?    DCD    1065131914
        0x00003e60:    3e2438ad    .8$>    DCD    1042561197
        0x00003e64:    3f7cafbd    ..|?    DCD    1065136061
        0x00003e68:    3e22abb6    ..">    DCD    1042459574
        0x00003e6c:    3f7cbfc9    ..|?    DCD    1065140169
        0x00003e70:    3e211ea5    ..!>    DCD    1042357925
        0x00003e74:    3f7ccfae    ..|?    DCD    1065144238
        0x00003e78:    3e1f917b    {..>    DCD    1042256251
        0x00003e7c:    3f7cdf6c    l.|?    DCD    1065148268
        0x00003e80:    3e1e0438    8..>    DCD    1042154552
        0x00003e84:    3f7cef03    ..|?    DCD    1065152259
        0x00003e88:    3e1c76de    .v.>    DCD    1042052830
        0x00003e8c:    3f7cfe73    s.|?    DCD    1065156211
        0x00003e90:    3e1ae96b    k..>    DCD    1041951083
        0x00003e94:    3f7d0dbc    ..}?    DCD    1065160124
        0x00003e98:    3e195be0    .[.>    DCD    1041849312
        0x00003e9c:    3f7d1cdd    ..}?    DCD    1065163997
        0x00003ea0:    3e17ce3d    =..>    DCD    1041747517
        0x00003ea4:    3f7d2bd8    .+}?    DCD    1065167832
        0x00003ea8:    3e164083    .@.>    DCD    1041645699
        0x00003eac:    3f7d3aac    .:}?    DCD    1065171628
        0x00003eb0:    3e14b2b2    ...>    DCD    1041543858
        0x00003eb4:    3f7d4959    YI}?    DCD    1065175385
        0x00003eb8:    3e1324ca    .$.>    DCD    1041441994
        0x00003ebc:    3f7d57de    .W}?    DCD    1065179102
        0x00003ec0:    3e1196cc    ...>    DCD    1041340108
        0x00003ec4:    3f7d663d    =f}?    DCD    1065182781
        0x00003ec8:    3e1008b7    ...>    DCD    1041238199
        0x00003ecc:    3f7d7474    tt}?    DCD    1065186420
        0x00003ed0:    3e0e7a8b    .z.>    DCD    1041136267
        0x00003ed4:    3f7d8285    ..}?    DCD    1065190021
        0x00003ed8:    3e0cec4a    J..>    DCD    1041034314
        0x00003edc:    3f7d906e    n.}?    DCD    1065193582
        0x00003ee0:    3e0b5df3    .].>    DCD    1040932339
        0x00003ee4:    3f7d9e30    0.}?    DCD    1065197104
        0x00003ee8:    3e09cf86    ...>    DCD    1040830342
        0x00003eec:    3f7dabcc    ..}?    DCD    1065200588
        0x00003ef0:    3e084105    .A.>    DCD    1040728325
        0x00003ef4:    3f7db940    @.}?    DCD    1065204032
        0x00003ef8:    3e06b26e    n..>    DCD    1040626286
        0x00003efc:    3f7dc68c    ..}?    DCD    1065207436
        0x00003f00:    3e0523c2    .#.>    DCD    1040524226
        0x00003f04:    3f7dd3b2    ..}?    DCD    1065210802
        0x00003f08:    3e039502    ...>    DCD    1040422146
        0x00003f0c:    3f7de0b1    ..}?    DCD    1065214129
        0x00003f10:    3e02062e    ...>    DCD    1040320046
        0x00003f14:    3f7ded88    ..}?    DCD    1065217416
        0x00003f18:    3e007745    Ew.>    DCD    1040217925
        0x00003f1c:    3f7dfa38    8.}?    DCD    1065220664
        0x00003f20:    3dfdd092    ...=    DCD    1040044178
        0x00003f24:    3f7e06c2    ..~?    DCD    1065223874
        0x00003f28:    3dfab273    s..=    DCD    1039839859
        0x00003f2c:    3f7e1324    $.~?    DCD    1065227044
        0x00003f30:    3df7942c    ,..=    DCD    1039635500
        0x00003f34:    3f7e1f5e    ^.~?    DCD    1065230174
        0x00003f38:    3df475c0    .u.=    DCD    1039431104
        0x00003f3c:    3f7e2b72    r+~?    DCD    1065233266
        0x00003f40:    3df1572e    .W.=    DCD    1039226670
        0x00003f44:    3f7e375e    ^7~?    DCD    1065236318
        0x00003f48:    3dee3876    v8.=    DCD    1039022198
        0x00003f4c:    3f7e4323    #C~?    DCD    1065239331
        0x00003f50:    3deb199a    ...=    DCD    1038817690
        0x00003f54:    3f7e4ec1    .N~?    DCD    1065242305
        0x00003f58:    3de7fa9a    ...=    DCD    1038613146
        0x00003f5c:    3f7e5a38    8Z~?    DCD    1065245240
        0x00003f60:    3de4db76    v..=    DCD    1038408566
        0x00003f64:    3f7e6588    .e~?    DCD    1065248136
        0x00003f68:    3de1bc2e    ...=    DCD    1038203950
        0x00003f6c:    3f7e70b0    .p~?    DCD    1065250992
        0x00003f70:    3dde9cc4    ...=    DCD    1037999300
        0x00003f74:    3f7e7bb1    .{~?    DCD    1065253809
        0x00003f78:    3ddb7d37    7}.=    DCD    1037794615
        0x00003f7c:    3f7e868b    ..~?    DCD    1065256587
        0x00003f80:    3dd85d89    .].=    DCD    1037589897
        0x00003f84:    3f7e913d    =.~?    DCD    1065259325
        0x00003f88:    3dd53db9    .=.=    DCD    1037385145
        0x00003f8c:    3f7e9bc9    ..~?    DCD    1065262025
        0x00003f90:    3dd21dc8    ...=    DCD    1037180360
        0x00003f94:    3f7ea62d    -.~?    DCD    1065264685
        0x00003f98:    3dcefdb7    ...=    DCD    1036975543
        0x00003f9c:    3f7eb069    i.~?    DCD    1065267305
        0x00003fa0:    3dcbdd86    ...=    DCD    1036770694
        0x00003fa4:    3f7eba7f    ..~?    DCD    1065269887
        0x00003fa8:    3dc8bd36    6..=    DCD    1036565814
        0x00003fac:    3f7ec46d    m.~?    DCD    1065272429
        0x00003fb0:    3dc59cc6    ...=    DCD    1036360902
        0x00003fb4:    3f7ece34    4.~?    DCD    1065274932
        0x00003fb8:    3dc27c39    9|.=    DCD    1036155961
        0x00003fbc:    3f7ed7d4    ..~?    DCD    1065277396
        0x00003fc0:    3dbf5b8d    .[.=    DCD    1035950989
        0x00003fc4:    3f7ee14c    L.~?    DCD    1065279820
        0x00003fc8:    3dbc3ac3    .:.=    DCD    1035745987
        0x00003fcc:    3f7eea9d    ..~?    DCD    1065282205
        0x00003fd0:    3db919dd    ...=    DCD    1035540957
        0x00003fd4:    3f7ef3c7    ..~?    DCD    1065284551
        0x00003fd8:    3db5f8da    ...=    DCD    1035335898
        0x00003fdc:    3f7efcc9    ..~?    DCD    1065286857
        0x00003fe0:    3db2d7bb    ...=    DCD    1035130811
        0x00003fe4:    3f7f05a4    ...?    DCD    1065289124
        0x00003fe8:    3dafb680    ...=    DCD    1034925696
        0x00003fec:    3f7f0e58    X..?    DCD    1065291352
        0x00003ff0:    3dac952b    +..=    DCD    1034720555
        0x00003ff4:    3f7f16e4    ...?    DCD    1065293540
        0x00003ff8:    3da973ba    .s.=    DCD    1034515386
        0x00003ffc:    3f7f1f49    I..?    DCD    1065295689
        0x00004000:    3da65230    0R.=    DCD    1034310192
        0x00004004:    3f7f2787    .'.?    DCD    1065297799
        0x00004008:    3da3308c    .0.=    DCD    1034104972
        0x0000400c:    3f7f2f9d    ./.?    DCD    1065299869
        0x00004010:    3da00ecf    ...=    DCD    1033899727
        0x00004014:    3f7f378d    .7.?    DCD    1065301901
        0x00004018:    3d9cecf9    ...=    DCD    1033694457
        0x0000401c:    3f7f3f54    T?.?    DCD    1065303892
        0x00004020:    3d99cb0a    ...=    DCD    1033489162
        0x00004024:    3f7f46f4    .F.?    DCD    1065305844
        0x00004028:    3d96a905    ...=    DCD    1033283845
        0x0000402c:    3f7f4e6d    mN.?    DCD    1065307757
        0x00004030:    3d9386e7    ...=    DCD    1033078503
        0x00004034:    3f7f55bf    .U.?    DCD    1065309631
        0x00004038:    3d9064b4    .d.=    DCD    1032873140
        0x0000403c:    3f7f5ce9    .\.?    DCD    1065311465
        0x00004040:    3d8d426a    jB.=    DCD    1032667754
        0x00004044:    3f7f63ec    .c.?    DCD    1065313260
        0x00004048:    3d8a200a    . .=    DCD    1032462346
        0x0000404c:    3f7f6ac7    .j.?    DCD    1065315015
        0x00004050:    3d86fd94    ...=    DCD    1032256916
        0x00004054:    3f7f717b    {q.?    DCD    1065316731
        0x00004058:    3d83db0a    ...=    DCD    1032051466
        0x0000405c:    3f7f7808    .x.?    DCD    1065318408
        0x00004060:    3d80b86c    l..=    DCD    1031845996
        0x00004064:    3f7f7e6d    m~.?    DCD    1065320045
        0x00004068:    3d7b2b74    t+{=    DCD    1031482228
        0x0000406c:    3f7f84ab    ...?    DCD    1065321643
        0x00004070:    3d74e5e9    ..t=    DCD    1031071209
        0x00004074:    3f7f8ac2    ...?    DCD    1065323202
        0x00004078:    3d6ea038    8.n=    DCD    1030660152
        0x0000407c:    3f7f90b1    ...?    DCD    1065324721
        0x00004080:    3d685a62    bZh=    DCD    1030249058
        0x00004084:    3f7f9678    x..?    DCD    1065326200
        0x00004088:    3d621468    h.b=    DCD    1029837928
        0x0000408c:    3f7f9c18    ...?    DCD    1065327640
        0x00004090:    3d5bce4c    L.[=    DCD    1029426764
        0x00004094:    3f7fa191    ...?    DCD    1065329041
        0x00004098:    3d55880e    ..U=    DCD    1029015566
        0x0000409c:    3f7fa6e3    ...?    DCD    1065330403
        0x000040a0:    3d4f41af    .AO=    DCD    1028604335
        0x000040a4:    3f7fac0d    ...?    DCD    1065331725
        0x000040a8:    3d48fb2f    /.H=    DCD    1028193071
        0x000040ac:    3f7fb10f    ...?    DCD    1065333007
        0x000040b0:    3d42b491    ..B=    DCD    1027781777
        0x000040b4:    3f7fb5ea    ...?    DCD    1065334250
        0x000040b8:    3d3c6dd5    .m<=    DCD    1027370453
        0x000040bc:    3f7fba9e    ...?    DCD    1065335454
        0x000040c0:    3d3626fc    .&6=    DCD    1026959100
        0x000040c4:    3f7fbf2a    *..?    DCD    1065336618
        0x000040c8:    3d2fe007    ../=    DCD    1026547719
        0x000040cc:    3f7fc38f    ...?    DCD    1065337743
        0x000040d0:    3d2998f6    ..)=    DCD    1026136310
        0x000040d4:    3f7fc7cc    ...?    DCD    1065338828
        0x000040d8:    3d2351cc    .Q#=    DCD    1025724876
        0x000040dc:    3f7fcbe2    ...?    DCD    1065339874
        0x000040e0:    3d1d0a88    ...=    DCD    1025313416
        0x000040e4:    3f7fcfd1    ...?    DCD    1065340881
        0x000040e8:    3d16c32c    ,..=    DCD    1024901932
        0x000040ec:    3f7fd398    ...?    DCD    1065341848
        0x000040f0:    3d107bb8    .{.=    DCD    1024490424
        0x000040f4:    3f7fd737    7..?    DCD    1065342775
        0x000040f8:    3d0a342f    /4.=    DCD    1024078895
        0x000040fc:    3f7fdaaf    ...?    DCD    1065343663
        0x00004100:    3d03ec90    ...=    DCD    1023667344
        0x00004104:    3f7fde00    ...?    DCD    1065344512
        0x00004108:    3cfb49b9    .I.<    DCD    1023101369
        0x0000410c:    3f7fe129    )..?    DCD    1065345321
        0x00004110:    3ceeba2d    -..<    DCD    1022278189
        0x00004114:    3f7fe42b    +..?    DCD    1065346091
        0x00004118:    3ce22a7b    {*.<    DCD    1021454971
        0x0000411c:    3f7fe705    ...?    DCD    1065346821
        0x00004120:    3cd59aa6    ...<    DCD    1020631718
        0x00004124:    3f7fe9b8    ...?    DCD    1065347512
        0x00004128:    3cc90ab0    ...<    DCD    1019808432
        0x0000412c:    3f7fec43    C..?    DCD    1065348163
        0x00004130:    3cbc7a9b    .z.<    DCD    1018985115
        0x00004134:    3f7feea7    ...?    DCD    1065348775
        0x00004138:    3cafea69    i..<    DCD    1018161769
        0x0000413c:    3f7ff0e3    ...?    DCD    1065349347
        0x00004140:    3ca35a1c    .Z.<    DCD    1017338396
        0x00004144:    3f7ff2f8    ...?    DCD    1065349880
        0x00004148:    3c96c9b6    ...<    DCD    1016514998
        0x0000414c:    3f7ff4e6    ...?    DCD    1065350374
        0x00004150:    3c8a3938    89.<    DCD    1015691576
        0x00004154:    3f7ff6ac    ...?    DCD    1065350828
        0x00004158:    3c7b514b    KQ{<    DCD    1014714699
        0x0000415c:    3f7ff84a    J..?    DCD    1065351242
        0x00004160:    3c623000    .0b<    DCD    1013067776
        0x00004164:    3f7ff9c1    ...?    DCD    1065351617
        0x00004168:    3c490e90    ..I<    DCD    1011420816
        0x0000416c:    3f7ffb11    ...?    DCD    1065351953
        0x00004170:    3c2fed02    ../<    DCD    1009773826
        0x00004174:    3f7ffc39    9..?    DCD    1065352249
        0x00004178:    3c16cb59    Y..<    DCD    1008126809
        0x0000417c:    3f7ffd39    9..?    DCD    1065352505
        0x00004180:    3bfb5330    0S.;    DCD    1006326576
        0x00004184:    3f7ffe13    ...?    DCD    1065352723
        0x00004188:    3bc90f89    ...;    DCD    1003032457
        0x0000418c:    3f7ffec4    ...?    DCD    1065352900
        0x00004190:    3b96cbc1    ...;    DCD    999738305
        0x00004194:    3f7fff4e    N..?    DCD    1065353038
        0x00004198:    3b490fc7    ..I;    DCD    994643911
        0x0000419c:    3f7fffb1    ...?    DCD    1065353137
        0x000041a0:    3ac90fd4    ...:    DCD    986255316
        0x000041a4:    3f7fffec    ...?    DCD    1065353196
        0x000041a8:    00000000    ....    DCD    0
        0x000041ac:    3f800000    ...?    DCD    1065353216
        0x000041b0:    bac90fd4    ....    DCD    3133738964
        0x000041b4:    3f7fffec    ...?    DCD    1065353196
        0x000041b8:    bb490fc7    ..I.    DCD    3142127559
        0x000041bc:    3f7fffb1    ...?    DCD    1065353137
        0x000041c0:    bb96cbc1    ....    DCD    3147221953
        0x000041c4:    3f7fff4e    N..?    DCD    1065353038
        0x000041c8:    bbc90f89    ....    DCD    3150516105
        0x000041cc:    3f7ffec4    ...?    DCD    1065352900
        0x000041d0:    bbfb5330    0S..    DCD    3153810224
        0x000041d4:    3f7ffe13    ...?    DCD    1065352723
        0x000041d8:    bc16cb59    Y...    DCD    3155610457
        0x000041dc:    3f7ffd39    9..?    DCD    1065352505
        0x000041e0:    bc2fed02    ../.    DCD    3157257474
        0x000041e4:    3f7ffc39    9..?    DCD    1065352249
        0x000041e8:    bc490e90    ..I.    DCD    3158904464
        0x000041ec:    3f7ffb11    ...?    DCD    1065351953
        0x000041f0:    bc623000    .0b.    DCD    3160551424
        0x000041f4:    3f7ff9c1    ...?    DCD    1065351617
        0x000041f8:    bc7b514b    KQ{.    DCD    3162198347
        0x000041fc:    3f7ff84a    J..?    DCD    1065351242
        0x00004200:    bc8a3938    89..    DCD    3163175224
        0x00004204:    3f7ff6ac    ...?    DCD    1065350828
        0x00004208:    bc96c9b6    ....    DCD    3163998646
        0x0000420c:    3f7ff4e6    ...?    DCD    1065350374
        0x00004210:    bca35a1c    .Z..    DCD    3164822044
        0x00004214:    3f7ff2f8    ...?    DCD    1065349880
        0x00004218:    bcafea69    i...    DCD    3165645417
        0x0000421c:    3f7ff0e3    ...?    DCD    1065349347
        0x00004220:    bcbc7a9b    .z..    DCD    3166468763
        0x00004224:    3f7feea7    ...?    DCD    1065348775
        0x00004228:    bcc90ab0    ....    DCD    3167292080
        0x0000422c:    3f7fec43    C..?    DCD    1065348163
        0x00004230:    bcd59aa6    ....    DCD    3168115366
        0x00004234:    3f7fe9b8    ...?    DCD    1065347512
        0x00004238:    bce22a7b    {*..    DCD    3168938619
        0x0000423c:    3f7fe705    ...?    DCD    1065346821
        0x00004240:    bceeba2d    -...    DCD    3169761837
        0x00004244:    3f7fe42b    +..?    DCD    1065346091
        0x00004248:    bcfb49b9    .I..    DCD    3170585017
        0x0000424c:    3f7fe129    )..?    DCD    1065345321
        0x00004250:    bd03ec90    ....    DCD    3171150992
        0x00004254:    3f7fde00    ...?    DCD    1065344512
        0x00004258:    bd0a342f    /4..    DCD    3171562543
        0x0000425c:    3f7fdaaf    ...?    DCD    1065343663
        0x00004260:    bd107bb8    .{..    DCD    3171974072
        0x00004264:    3f7fd737    7..?    DCD    1065342775
        0x00004268:    bd16c32c    ,...    DCD    3172385580
        0x0000426c:    3f7fd398    ...?    DCD    1065341848
        0x00004270:    bd1d0a88    ....    DCD    3172797064
        0x00004274:    3f7fcfd1    ...?    DCD    1065340881
        0x00004278:    bd2351cc    .Q#.    DCD    3173208524
        0x0000427c:    3f7fcbe2    ...?    DCD    1065339874
        0x00004280:    bd2998f6    ..).    DCD    3173619958
        0x00004284:    3f7fc7cc    ...?    DCD    1065338828
        0x00004288:    bd2fe007    ../.    DCD    3174031367
        0x0000428c:    3f7fc38f    ...?    DCD    1065337743
        0x00004290:    bd3626fc    .&6.    DCD    3174442748
        0x00004294:    3f7fbf2a    *..?    DCD    1065336618
        0x00004298:    bd3c6dd5    .m<.    DCD    3174854101
        0x0000429c:    3f7fba9e    ...?    DCD    1065335454
        0x000042a0:    bd42b491    ..B.    DCD    3175265425
        0x000042a4:    3f7fb5ea    ...?    DCD    1065334250
        0x000042a8:    bd48fb2f    /.H.    DCD    3175676719
        0x000042ac:    3f7fb10f    ...?    DCD    1065333007
        0x000042b0:    bd4f41af    .AO.    DCD    3176087983
        0x000042b4:    3f7fac0d    ...?    DCD    1065331725
        0x000042b8:    bd55880e    ..U.    DCD    3176499214
        0x000042bc:    3f7fa6e3    ...?    DCD    1065330403
        0x000042c0:    bd5bce4c    L.[.    DCD    3176910412
        0x000042c4:    3f7fa191    ...?    DCD    1065329041
        0x000042c8:    bd621468    h.b.    DCD    3177321576
        0x000042cc:    3f7f9c18    ...?    DCD    1065327640
        0x000042d0:    bd685a62    bZh.    DCD    3177732706
        0x000042d4:    3f7f9678    x..?    DCD    1065326200
        0x000042d8:    bd6ea038    8.n.    DCD    3178143800
        0x000042dc:    3f7f90b1    ...?    DCD    1065324721
        0x000042e0:    bd74e5e9    ..t.    DCD    3178554857
        0x000042e4:    3f7f8ac2    ...?    DCD    1065323202
        0x000042e8:    bd7b2b74    t+{.    DCD    3178965876
        0x000042ec:    3f7f84ab    ...?    DCD    1065321643
        0x000042f0:    bd80b86c    l...    DCD    3179329644
        0x000042f4:    3f7f7e6d    m~.?    DCD    1065320045
        0x000042f8:    bd83db0a    ....    DCD    3179535114
        0x000042fc:    3f7f7808    .x.?    DCD    1065318408
        0x00004300:    bd86fd94    ....    DCD    3179740564
        0x00004304:    3f7f717b    {q.?    DCD    1065316731
        0x00004308:    bd8a200a    . ..    DCD    3179945994
        0x0000430c:    3f7f6ac7    .j.?    DCD    1065315015
        0x00004310:    bd8d426a    jB..    DCD    3180151402
        0x00004314:    3f7f63ec    .c.?    DCD    1065313260
        0x00004318:    bd9064b4    .d..    DCD    3180356788
        0x0000431c:    3f7f5ce9    .\.?    DCD    1065311465
        0x00004320:    bd9386e7    ....    DCD    3180562151
        0x00004324:    3f7f55bf    .U.?    DCD    1065309631
        0x00004328:    bd96a905    ....    DCD    3180767493
        0x0000432c:    3f7f4e6d    mN.?    DCD    1065307757
        0x00004330:    bd99cb0a    ....    DCD    3180972810
        0x00004334:    3f7f46f4    .F.?    DCD    1065305844
        0x00004338:    bd9cecf9    ....    DCD    3181178105
        0x0000433c:    3f7f3f54    T?.?    DCD    1065303892
        0x00004340:    bda00ecf    ....    DCD    3181383375
        0x00004344:    3f7f378d    .7.?    DCD    1065301901
        0x00004348:    bda3308c    .0..    DCD    3181588620
        0x0000434c:    3f7f2f9d    ./.?    DCD    1065299869
        0x00004350:    bda65230    0R..    DCD    3181793840
        0x00004354:    3f7f2787    .'.?    DCD    1065297799
        0x00004358:    bda973ba    .s..    DCD    3181999034
        0x0000435c:    3f7f1f49    I..?    DCD    1065295689
        0x00004360:    bdac952b    +...    DCD    3182204203
        0x00004364:    3f7f16e4    ...?    DCD    1065293540
        0x00004368:    bdafb680    ....    DCD    3182409344
        0x0000436c:    3f7f0e58    X..?    DCD    1065291352
        0x00004370:    bdb2d7bb    ....    DCD    3182614459
        0x00004374:    3f7f05a4    ...?    DCD    1065289124
        0x00004378:    bdb5f8da    ....    DCD    3182819546
        0x0000437c:    3f7efcc9    ..~?    DCD    1065286857
        0x00004380:    bdb919dd    ....    DCD    3183024605
        0x00004384:    3f7ef3c7    ..~?    DCD    1065284551
        0x00004388:    bdbc3ac3    .:..    DCD    3183229635
        0x0000438c:    3f7eea9d    ..~?    DCD    1065282205
        0x00004390:    bdbf5b8d    .[..    DCD    3183434637
        0x00004394:    3f7ee14c    L.~?    DCD    1065279820
        0x00004398:    bdc27c39    9|..    DCD    3183639609
        0x0000439c:    3f7ed7d4    ..~?    DCD    1065277396
        0x000043a0:    bdc59cc6    ....    DCD    3183844550
        0x000043a4:    3f7ece34    4.~?    DCD    1065274932
        0x000043a8:    bdc8bd36    6...    DCD    3184049462
        0x000043ac:    3f7ec46d    m.~?    DCD    1065272429
        0x000043b0:    bdcbdd86    ....    DCD    3184254342
        0x000043b4:    3f7eba7f    ..~?    DCD    1065269887
        0x000043b8:    bdcefdb7    ....    DCD    3184459191
        0x000043bc:    3f7eb069    i.~?    DCD    1065267305
        0x000043c0:    bdd21dc8    ....    DCD    3184664008
        0x000043c4:    3f7ea62d    -.~?    DCD    1065264685
        0x000043c8:    bdd53db9    .=..    DCD    3184868793
        0x000043cc:    3f7e9bc9    ..~?    DCD    1065262025
        0x000043d0:    bdd85d89    .]..    DCD    3185073545
        0x000043d4:    3f7e913d    =.~?    DCD    1065259325
        0x000043d8:    bddb7d37    7}..    DCD    3185278263
        0x000043dc:    3f7e868b    ..~?    DCD    1065256587
        0x000043e0:    bdde9cc4    ....    DCD    3185482948
        0x000043e4:    3f7e7bb1    .{~?    DCD    1065253809
        0x000043e8:    bde1bc2e    ....    DCD    3185687598
        0x000043ec:    3f7e70b0    .p~?    DCD    1065250992
        0x000043f0:    bde4db76    v...    DCD    3185892214
        0x000043f4:    3f7e6588    .e~?    DCD    1065248136
        0x000043f8:    bde7fa9a    ....    DCD    3186096794
        0x000043fc:    3f7e5a38    8Z~?    DCD    1065245240
        0x00004400:    bdeb199a    ....    DCD    3186301338
        0x00004404:    3f7e4ec1    .N~?    DCD    1065242305
        0x00004408:    bdee3876    v8..    DCD    3186505846
        0x0000440c:    3f7e4323    #C~?    DCD    1065239331
        0x00004410:    bdf1572e    .W..    DCD    3186710318
        0x00004414:    3f7e375e    ^7~?    DCD    1065236318
        0x00004418:    bdf475c0    .u..    DCD    3186914752
        0x0000441c:    3f7e2b72    r+~?    DCD    1065233266
        0x00004420:    bdf7942c    ,...    DCD    3187119148
        0x00004424:    3f7e1f5e    ^.~?    DCD    1065230174
        0x00004428:    bdfab273    s...    DCD    3187323507
        0x0000442c:    3f7e1324    $.~?    DCD    1065227044
        0x00004430:    bdfdd092    ....    DCD    3187527826
        0x00004434:    3f7e06c2    ..~?    DCD    1065223874
        0x00004438:    be007745    Ew..    DCD    3187701573
        0x0000443c:    3f7dfa38    8.}?    DCD    1065220664
        0x00004440:    be02062e    ....    DCD    3187803694
        0x00004444:    3f7ded88    ..}?    DCD    1065217416
        0x00004448:    be039502    ....    DCD    3187905794
        0x0000444c:    3f7de0b1    ..}?    DCD    1065214129
        0x00004450:    be0523c2    .#..    DCD    3188007874
        0x00004454:    3f7dd3b2    ..}?    DCD    1065210802
        0x00004458:    be06b26e    n...    DCD    3188109934
        0x0000445c:    3f7dc68c    ..}?    DCD    1065207436
        0x00004460:    be084105    .A..    DCD    3188211973
        0x00004464:    3f7db940    @.}?    DCD    1065204032
        0x00004468:    be09cf86    ....    DCD    3188313990
        0x0000446c:    3f7dabcc    ..}?    DCD    1065200588
        0x00004470:    be0b5df3    .]..    DCD    3188415987
        0x00004474:    3f7d9e30    0.}?    DCD    1065197104
        0x00004478:    be0cec4a    J...    DCD    3188517962
        0x0000447c:    3f7d906e    n.}?    DCD    1065193582
        0x00004480:    be0e7a8b    .z..    DCD    3188619915
        0x00004484:    3f7d8285    ..}?    DCD    1065190021
        0x00004488:    be1008b7    ....    DCD    3188721847
        0x0000448c:    3f7d7474    tt}?    DCD    1065186420
        0x00004490:    be1196cc    ....    DCD    3188823756
        0x00004494:    3f7d663d    =f}?    DCD    1065182781
        0x00004498:    be1324ca    .$..    DCD    3188925642
        0x0000449c:    3f7d57de    .W}?    DCD    1065179102
        0x000044a0:    be14b2b2    ....    DCD    3189027506
        0x000044a4:    3f7d4959    YI}?    DCD    1065175385
        0x000044a8:    be164083    .@..    DCD    3189129347
        0x000044ac:    3f7d3aac    .:}?    DCD    1065171628
        0x000044b0:    be17ce3d    =...    DCD    3189231165
        0x000044b4:    3f7d2bd8    .+}?    DCD    1065167832
        0x000044b8:    be195be0    .[..    DCD    3189332960
        0x000044bc:    3f7d1cdd    ..}?    DCD    1065163997
        0x000044c0:    be1ae96b    k...    DCD    3189434731
        0x000044c4:    3f7d0dbc    ..}?    DCD    1065160124
        0x000044c8:    be1c76de    .v..    DCD    3189536478
        0x000044cc:    3f7cfe73    s.|?    DCD    1065156211
        0x000044d0:    be1e0438    8...    DCD    3189638200
        0x000044d4:    3f7cef03    ..|?    DCD    1065152259
        0x000044d8:    be1f917b    {...    DCD    3189739899
        0x000044dc:    3f7cdf6c    l.|?    DCD    1065148268
        0x000044e0:    be211ea5    ..!.    DCD    3189841573
        0x000044e4:    3f7ccfae    ..|?    DCD    1065144238
        0x000044e8:    be22abb6    ..".    DCD    3189943222
        0x000044ec:    3f7cbfc9    ..|?    DCD    1065140169
        0x000044f0:    be2438ad    .8$.    DCD    3190044845
        0x000044f4:    3f7cafbd    ..|?    DCD    1065136061
        0x000044f8:    be25c58c    ..%.    DCD    3190146444
        0x000044fc:    3f7c9f8a    ..|?    DCD    1065131914
        0x00004500:    be275251    QR'.    DCD    3190248017
        0x00004504:    3f7c8f31    1.|?    DCD    1065127729
        0x00004508:    be28defc    ..(.    DCD    3190349564
        0x0000450c:    3f7c7eb0    .~|?    DCD    1065123504
        0x00004510:    be2a6b8d    .k*.    DCD    3190451085
        0x00004514:    3f7c6e08    .n|?    DCD    1065119240
        0x00004518:    be2bf804    ..+.    DCD    3190552580
        0x0000451c:    3f7c5d3a    :]|?    DCD    1065114938
        0x00004520:    be2d8461    a.-.    DCD    3190654049
        0x00004524:    3f7c4c44    DL|?    DCD    1065110596
        0x00004528:    be2f10a2    ../.    DCD    3190755490
        0x0000452c:    3f7c3b28    (;|?    DCD    1065106216
        0x00004530:    be309cc9    ..0.    DCD    3190856905
        0x00004534:    3f7c29e5    .)|?    DCD    1065101797
        0x00004538:    be3228d4    .(2.    DCD    3190958292
        0x0000453c:    3f7c187a    z.|?    DCD    1065097338
        0x00004540:    be33b4c4    ..3.    DCD    3191059652
        0x00004544:    3f7c06e9    ..|?    DCD    1065092841
        0x00004548:    be354098    .@5.    DCD    3191160984
        0x0000454c:    3f7bf531    1.{?    DCD    1065088305
        0x00004550:    be36cc50    P.6.    DCD    3191262288
        0x00004554:    3f7be353    S.{?    DCD    1065083731
        0x00004558:    be3857ec    .W8.    DCD    3191363564
        0x0000455c:    3f7bd14d    M.{?    DCD    1065079117
        0x00004560:    be39e36c    l.9.    DCD    3191464812
        0x00004564:    3f7bbf20     .{?    DCD    1065074464
        0x00004568:    be3b6ecf    .n;.    DCD    3191566031
        0x0000456c:    3f7baccd    ..{?    DCD    1065069773
        0x00004570:    be3cfa15    ..<.    DCD    3191667221
        0x00004574:    3f7b9a53    S.{?    DCD    1065065043
        0x00004578:    be3e853e    >.>.    DCD    3191768382
        0x0000457c:    3f7b87b2    ..{?    DCD    1065060274
        0x00004580:    be401049    I.@.    DCD    3191869513
        0x00004584:    3f7b74ea    .t{?    DCD    1065055466
        0x00004588:    be419b37    7.A.    DCD    3191970615
        0x0000458c:    3f7b61fc    .a{?    DCD    1065050620
        0x00004590:    be432607    .&C.    DCD    3192071687
        0x00004594:    3f7b4ee7    .N{?    DCD    1065045735
        0x00004598:    be44b0b9    ..D.    DCD    3192172729
        0x0000459c:    3f7b3bab    .;{?    DCD    1065040811
        0x000045a0:    be463b4d    M;F.    DCD    3192273741
        0x000045a4:    3f7b2848    H({?    DCD    1065035848
        0x000045a8:    be47c5c2    ..G.    DCD    3192374722
        0x000045ac:    3f7b14be    ..{?    DCD    1065030846
        0x000045b0:    be495018    .PI.    DCD    3192475672
        0x000045b4:    3f7b010e    ..{?    DCD    1065025806
        0x000045b8:    be4ada4f    O.J.    DCD    3192576591
        0x000045bc:    3f7aed37    7.z?    DCD    1065020727
        0x000045c0:    be4c6467    gdL.    DCD    3192677479
        0x000045c4:    3f7ad93a    :.z?    DCD    1065015610
        0x000045c8:    be4dee60    `.M.    DCD    3192778336
        0x000045cc:    3f7ac516    ..z?    DCD    1065010454
        0x000045d0:    be4f7838    8xO.    DCD    3192879160
        0x000045d4:    3f7ab0cb    ..z?    DCD    1065005259
        0x000045d8:    be5101f1    ..Q.    DCD    3192979953
        0x000045dc:    3f7a9c59    Y.z?    DCD    1065000025
        0x000045e0:    be528b89    ..R.    DCD    3193080713
        0x000045e4:    3f7a87c1    ..z?    DCD    1064994753
        0x000045e8:    be541501    ..T.    DCD    3193181441
        0x000045ec:    3f7a7302    .sz?    DCD    1064989442
        0x000045f0:    be559e58    X.U.    DCD    3193282136
        0x000045f4:    3f7a5e1c    .^z?    DCD    1064984092
        0x000045f8:    be57278f    .'W.    DCD    3193382799
        0x000045fc:    3f7a4910    .Iz?    DCD    1064978704
        0x00004600:    be58b0a4    ..X.    DCD    3193483428
        0x00004604:    3f7a33dd    .3z?    DCD    1064973277
        0x00004608:    be5a3997    .9Z.    DCD    3193584023
        0x0000460c:    3f7a1e84    ..z?    DCD    1064967812
        0x00004610:    be5bc26a    j.[.    DCD    3193684586
        0x00004614:    3f7a0904    ..z?    DCD    1064962308
        0x00004618:    be5d4b1a    .K].    DCD    3193785114
        0x0000461c:    3f79f35e    ^.y?    DCD    1064956766
        0x00004620:    be5ed3a8    ..^.    DCD    3193885608
        0x00004624:    3f79dd91    ..y?    DCD    1064951185
        0x00004628:    be605c13    .\`.    DCD    3193986067
        0x0000462c:    3f79c79d    ..y?    DCD    1064945565
        0x00004630:    be61e45c    \.a.    DCD    3194086492
        0x00004634:    3f79b183    ..y?    DCD    1064939907
        0x00004638:    be636c83    .lc.    DCD    3194186883
        0x0000463c:    3f799b43    C.y?    DCD    1064934211
        0x00004640:    be64f486    ..d.    DCD    3194287238
        0x00004644:    3f7984dc    ..y?    DCD    1064928476
        0x00004648:    be667c66    f|f.    DCD    3194387558
        0x0000464c:    3f796e4e    Nny?    DCD    1064922702
        0x00004650:    be680422    ".h.    DCD    3194487842
        0x00004654:    3f79579a    .Wy?    DCD    1064916890
        0x00004658:    be698bba    ..i.    DCD    3194588090
        0x0000465c:    3f7940c0    .@y?    DCD    1064911040
        0x00004660:    be6b132f    /.k.    DCD    3194688303
        0x00004664:    3f7929bf    .)y?    DCD    1064905151
        0x00004668:    be6c9a7f    ..l.    DCD    3194788479
        0x0000466c:    3f791298    ..y?    DCD    1064899224
        0x00004670:    be6e21ab    .!n.    DCD    3194888619
        0x00004674:    3f78fb4a    J.x?    DCD    1064893258
        0x00004678:    be6fa8b2    ..o.    DCD    3194988722
        0x0000467c:    3f78e3d6    ..x?    DCD    1064887254
        0x00004680:    be712f94    ./q.    DCD    3195088788
        0x00004684:    3f78cc3b    ;.x?    DCD    1064881211
        0x00004688:    be72b651    Q.r.    DCD    3195188817
        0x0000468c:    3f78b47b    {.x?    DCD    1064875131
        0x00004690:    be743ce8    .<t.    DCD    3195288808
        0x00004694:    3f789c93    ..x?    DCD    1064869011
        0x00004698:    be75c35a    Z.u.    DCD    3195388762
        0x0000469c:    3f788486    ..x?    DCD    1064862854
        0x000046a0:    be7749a6    .Iw.    DCD    3195488678
        0x000046a4:    3f786c52    Rlx?    DCD    1064856658
        0x000046a8:    be78cfcc    ..x.    DCD    3195588556
        0x000046ac:    3f7853f8    .Sx?    DCD    1064850424
        0x000046b0:    be7a55cb    .Uz.    DCD    3195688395
        0x000046b4:    3f783b77    w;x?    DCD    1064844151
        0x000046b8:    be7bdba4    ..{.    DCD    3195788196
        0x000046bc:    3f7822d1    ."x?    DCD    1064837841
        0x000046c0:    be7d6156    Va}.    DCD    3195887958
        0x000046c4:    3f780a04    ..x?    DCD    1064831492
        0x000046c8:    be7ee6e1    ..~.    DCD    3195987681
        0x000046cc:    3f77f110    ..w?    DCD    1064825104
        0x000046d0:    be803622    "6..    DCD    3196073506
        0x000046d4:    3f77d7f7    ..w?    DCD    1064818679
        0x000046d8:    be80f8c0    ....    DCD    3196123328
        0x000046dc:    3f77beb7    ..w?    DCD    1064812215
        0x000046e0:    be81bb4a    J...    DCD    3196173130
        0x000046e4:    3f77a551    Q.w?    DCD    1064805713
        0x000046e8:    be827dc0    .}..    DCD    3196222912
        0x000046ec:    3f778bc5    ..w?    DCD    1064799173
        0x000046f0:    be834022    "@..    DCD    3196272674
        0x000046f4:    3f777213    .rw?    DCD    1064792595
        0x000046f8:    be840270    p...    DCD    3196322416
        0x000046fc:    3f77583a    :Xw?    DCD    1064785978
        0x00004700:    be84c4aa    ....    DCD    3196372138
        0x00004704:    3f773e3c    <>w?    DCD    1064779324
        0x00004708:    be8586ce    ....    DCD    3196421838
        0x0000470c:    3f772417    .$w?    DCD    1064772631
        0x00004710:    be8648df    .H..    DCD    3196471519
        0x00004714:    3f7709cc    ..w?    DCD    1064765900
        0x00004718:    be870ada    ....    DCD    3196521178
        0x0000471c:    3f76ef5b    [.v?    DCD    1064759131
        0x00004720:    be87ccc1    ....    DCD    3196570817
        0x00004724:    3f76d4c4    ..v?    DCD    1064752324
        0x00004728:    be888e93    ....    DCD    3196620435
        0x0000472c:    3f76ba07    ..v?    DCD    1064745479
        0x00004730:    be895050    PP..    DCD    3196670032
        0x00004734:    3f769f24    $.v?    DCD    1064738596
        0x00004738:    be8a11f8    ....    DCD    3196719608
        0x0000473c:    3f76841b    ..v?    DCD    1064731675
        0x00004740:    be8ad38a    ....    DCD    3196769162
        0x00004744:    3f7668ec    .hv?    DCD    1064724716
        0x00004748:    be8b9507    ....    DCD    3196818695
        0x0000474c:    3f764d97    .Mv?    DCD    1064717719
        0x00004750:    be8c566e    nV..    DCD    3196868206
        0x00004754:    3f76321b    .2v?    DCD    1064710683
        0x00004758:    be8d17c0    ....    DCD    3196917696
        0x0000475c:    3f76167a    z.v?    DCD    1064703610
        0x00004760:    be8dd8fc    ....    DCD    3196967164
        0x00004764:    3f75fab3    ..u?    DCD    1064696499
        0x00004768:    be8e9a22    "...    DCD    3197016610
        0x0000476c:    3f75dec6    ..u?    DCD    1064689350
        0x00004770:    be8f5b32    2[..    DCD    3197066034
        0x00004774:    3f75c2b3    ..u?    DCD    1064682163
        0x00004778:    be901c2c    ,...    DCD    3197115436
        0x0000477c:    3f75a67b    {.u?    DCD    1064674939
        0x00004780:    be90dd10    ....    DCD    3197164816
        0x00004784:    3f758a1c    ..u?    DCD    1064667676
        0x00004788:    be919ddd    ....    DCD    3197214173
        0x0000478c:    3f756d97    .mu?    DCD    1064660375
        0x00004790:    be925e94    .^..    DCD    3197263508
        0x00004794:    3f7550ed    .Pu?    DCD    1064653037
        0x00004798:    be931f35    5...    DCD    3197312821
        0x0000479c:    3f75341d    .4u?    DCD    1064645661
        0x000047a0:    be93dfbf    ....    DCD    3197362111
        0x000047a4:    3f751727    '.u?    DCD    1064638247
        0x000047a8:    be94a031    1...    DCD    3197411377
        0x000047ac:    3f74fa0b    ..t?    DCD    1064630795
        0x000047b0:    be95608d    .`..    DCD    3197460621
        0x000047b4:    3f74dcc9    ..t?    DCD    1064623305
        0x000047b8:    be9620d2    . ..    DCD    3197509842
        0x000047bc:    3f74bf62    b.t?    DCD    1064615778
        0x000047c0:    be96e100    ....    DCD    3197559040
        0x000047c4:    3f74a1d5    ..t?    DCD    1064608213
        0x000047c8:    be97a117    ....    DCD    3197608215
        0x000047cc:    3f748422    ".t?    DCD    1064600610
        0x000047d0:    be986116    .a..    DCD    3197657366
        0x000047d4:    3f746649    Ift?    DCD    1064592969
        0x000047d8:    be9920fe    . ..    DCD    3197706494
        0x000047dc:    3f74484b    KHt?    DCD    1064585291
        0x000047e0:    be99e0ce    ....    DCD    3197755598
        0x000047e4:    3f742a27    '*t?    DCD    1064577575
        0x000047e8:    be9aa086    ....    DCD    3197804678
        0x000047ec:    3f740bdd    ..t?    DCD    1064569821
        0x000047f0:    be9b6027    '`..    DCD    3197853735
        0x000047f4:    3f73ed6e    n.s?    DCD    1064562030
        0x000047f8:    be9c1faf    ....    DCD    3197902767
        0x000047fc:    3f73ced9    ..s?    DCD    1064554201
        0x00004800:    be9cdf20     ...    DCD    3197951776
        0x00004804:    3f73b01f    ..s?    DCD    1064546335
        0x00004808:    be9d9e78    x...    DCD    3198000760
        0x0000480c:    3f73913f    ?.s?    DCD    1064538431
        0x00004810:    be9e5db8    .]..    DCD    3198049720
        0x00004814:    3f737239    9rs?    DCD    1064530489
        0x00004818:    be9f1cdf    ....    DCD    3198098655
        0x0000481c:    3f73530e    .Ss?    DCD    1064522510
        0x00004820:    be9fdbee    ....    DCD    3198147566
        0x00004824:    3f7333be    .3s?    DCD    1064514494
        0x00004828:    bea09ae5    ....    DCD    3198196453
        0x0000482c:    3f731447    G.s?    DCD    1064506439
        0x00004830:    bea159c2    .Y..    DCD    3198245314
        0x00004834:    3f72f4ac    ..r?    DCD    1064498348
        0x00004838:    bea21887    ....    DCD    3198294151
        0x0000483c:    3f72d4eb    ..r?    DCD    1064490219
        0x00004840:    bea2d733    3...    DCD    3198342963
        0x00004844:    3f72b504    ..r?    DCD    1064482052
        0x00004848:    bea395c5    ....    DCD    3198391749
        0x0000484c:    3f7294f8    ..r?    DCD    1064473848
        0x00004850:    bea4543f    ?T..    DCD    3198440511
        0x00004854:    3f7274c7    .tr?    DCD    1064465607
        0x00004858:    bea5129f    ....    DCD    3198489247
        0x0000485c:    3f725470    pTr?    DCD    1064457328
        0x00004860:    bea5d0e5    ....    DCD    3198537957
        0x00004864:    3f7233f4    .3r?    DCD    1064449012
        0x00004868:    bea68f12    ....    DCD    3198586642
        0x0000486c:    3f721352    R.r?    DCD    1064440658
        0x00004870:    bea74d25    %M..    DCD    3198635301
        0x00004874:    3f71f28c    ..q?    DCD    1064432268
        0x00004878:    bea80b1f    ....    DCD    3198683935
        0x0000487c:    3f71d19f    ..q?    DCD    1064423839
        0x00004880:    bea8c8fe    ....    DCD    3198732542
        0x00004884:    3f71b08e    ..q?    DCD    1064415374
        0x00004888:    bea986c4    ....    DCD    3198781124
        0x0000488c:    3f718f57    W.q?    DCD    1064406871
        0x00004890:    beaa446f    oD..    DCD    3198829679
        0x00004894:    3f716dfb    .mq?    DCD    1064398331
        0x00004898:    beab0201    ....    DCD    3198878209
        0x0000489c:    3f714c7a    zLq?    DCD    1064389754
        0x000048a0:    beabbf77    w...    DCD    3198926711
        0x000048a4:    3f712ad4    .*q?    DCD    1064381140
        0x000048a8:    beac7cd4    .|..    DCD    3198975188
        0x000048ac:    3f710908    ..q?    DCD    1064372488
        0x000048b0:    bead3a15    .:..    DCD    3199023637
        0x000048b4:    3f70e717    ..p?    DCD    1064363799
        0x000048b8:    beadf73c    <...    DCD    3199072060
        0x000048bc:    3f70c502    ..p?    DCD    1064355074
        0x000048c0:    beaeb449    I...    DCD    3199120457
        0x000048c4:    3f70a2c6    ..p?    DCD    1064346310
        0x000048c8:    beaf713a    :q..    DCD    3199168826
        0x000048cc:    3f708066    f.p?    DCD    1064337510
        0x000048d0:    beb02e10    ....    DCD    3199217168
        0x000048d4:    3f705de1    .]p?    DCD    1064328673
        0x000048d8:    beb0eacb    ....    DCD    3199265483
        0x000048dc:    3f703b37    7;p?    DCD    1064319799
        0x000048e0:    beb1a76b    k...    DCD    3199313771
        0x000048e4:    3f701867    g.p?    DCD    1064310887
        0x000048e8:    beb263ef    .c..    DCD    3199362031
        0x000048ec:    3f6ff573    s.o?    DCD    1064301939
        0x000048f0:    beb32058    X ..    DCD    3199410264
        0x000048f4:    3f6fd25a    Z.o?    DCD    1064292954
        0x000048f8:    beb3dca5    ....    DCD    3199458469
        0x000048fc:    3f6faf1b    ..o?    DCD    1064283931
        0x00004900:    beb498d6    ....    DCD    3199506646
        0x00004904:    3f6f8bb8    ..o?    DCD    1064274872
        0x00004908:    beb554ec    .T..    DCD    3199554796
        0x0000490c:    3f6f6830    0ho?    DCD    1064265776
        0x00004910:    beb610e6    ....    DCD    3199602918
        0x00004914:    3f6f4483    .Do?    DCD    1064256643
        0x00004918:    beb6ccc3    ....    DCD    3199651011
        0x0000491c:    3f6f20b0    . o?    DCD    1064247472
        0x00004920:    beb78884    ....    DCD    3199699076
        0x00004924:    3f6efcba    ..n?    DCD    1064238266
        0x00004928:    beb8442a    *D..    DCD    3199747114
        0x0000492c:    3f6ed89e    ..n?    DCD    1064229022
        0x00004930:    beb8ffb2    ....    DCD    3199795122
        0x00004934:    3f6eb45d    ].n?    DCD    1064219741
        0x00004938:    beb9bb1e    ....    DCD    3199843102
        0x0000493c:    3f6e8ff8    ..n?    DCD    1064210424
        0x00004940:    beba766e    nv..    DCD    3199891054
        0x00004944:    3f6e6b6d    mkn?    DCD    1064201069
        0x00004948:    bebb31a0    .1..    DCD    3199938976
        0x0000494c:    3f6e46be    .Fn?    DCD    1064191678
        0x00004950:    bebbecb6    ....    DCD    3199986870
        0x00004954:    3f6e21eb    .!n?    DCD    1064182251
        0x00004958:    bebca7af    ....    DCD    3200034735
        0x0000495c:    3f6dfcf2    ..m?    DCD    1064172786
        0x00004960:    bebd628b    .b..    DCD    3200082571
        0x00004964:    3f6dd7d5    ..m?    DCD    1064163285
        0x00004968:    bebe1d4a    J...    DCD    3200130378
        0x0000496c:    3f6db293    ..m?    DCD    1064153747
        0x00004970:    bebed7eb    ....    DCD    3200178155
        0x00004974:    3f6d8d2d    -.m?    DCD    1064144173
        0x00004978:    bebf926f    o...    DCD    3200225903
        0x0000497c:    3f6d67a1    .gm?    DCD    1064134561
        0x00004980:    bec04cd5    .L..    DCD    3200273621
        0x00004984:    3f6d41f2    .Am?    DCD    1064124914
        0x00004988:    bec1071e    ....    DCD    3200321310
        0x0000498c:    3f6d1c1d    ..m?    DCD    1064115229
        0x00004990:    bec1c148    H...    DCD    3200368968
        0x00004994:    3f6cf624    $.l?    DCD    1064105508
        0x00004998:    bec27b55    U{..    DCD    3200416597
        0x0000499c:    3f6cd007    ..l?    DCD    1064095751
        0x000049a0:    bec33544    D5..    DCD    3200464196
        0x000049a4:    3f6ca9c5    ..l?    DCD    1064085957
        0x000049a8:    bec3ef15    ....    DCD    3200511765
        0x000049ac:    3f6c835e    ^.l?    DCD    1064076126
        0x000049b0:    bec4a8c8    ....    DCD    3200559304
        0x000049b4:    3f6c5cd4    .\l?    DCD    1064066260
        0x000049b8:    bec5625c    \b..    DCD    3200606812
        0x000049bc:    3f6c3624    $6l?    DCD    1064056356
        0x000049c0:    bec61bd2    ....    DCD    3200654290
        0x000049c4:    3f6c0f50    P.l?    DCD    1064046416
        0x000049c8:    bec6d529    )...    DCD    3200701737
        0x000049cc:    3f6be858    X.k?    DCD    1064036440
        0x000049d0:    bec78e62    b...    DCD    3200749154
        0x000049d4:    3f6bc13b    ;.k?    DCD    1064026427
        0x000049d8:    bec8477c    |G..    DCD    3200796540
        0x000049dc:    3f6b99fb    ..k?    DCD    1064016379
        0x000049e0:    bec90077    w...    DCD    3200843895
        0x000049e4:    3f6b7295    .rk?    DCD    1064006293
        0x000049e8:    bec9b953    S...    DCD    3200891219
        0x000049ec:    3f6b4b0c    .Kk?    DCD    1063996172
        0x000049f0:    beca7210    .r..    DCD    3200938512
        0x000049f4:    3f6b235e    ^#k?    DCD    1063986014
        0x000049f8:    becb2aae    .*..    DCD    3200985774
        0x000049fc:    3f6afb8c    ..j?    DCD    1063975820
        0x00004a00:    becbe32c    ,...    DCD    3201033004
        0x00004a04:    3f6ad395    ..j?    DCD    1063965589
        0x00004a08:    becc9b8b    ....    DCD    3201080203
        0x00004a0c:    3f6aab7b    {.j?    DCD    1063955323
        0x00004a10:    becd53ca    .S..    DCD    3201127370
        0x00004a14:    3f6a833c    <.j?    DCD    1063945020
        0x00004a18:    bece0bea    ....    DCD    3201174506
        0x00004a1c:    3f6a5ad9    .Zj?    DCD    1063934681
        0x00004a20:    becec3ea    ....    DCD    3201221610
        0x00004a24:    3f6a3252    R2j?    DCD    1063924306
        0x00004a28:    becf7bca    .{..    DCD    3201268682
        0x00004a2c:    3f6a09a7    ..j?    DCD    1063913895
        0x00004a30:    bed0338a    .3..    DCD    3201315722
        0x00004a34:    3f69e0d7    ..i?    DCD    1063903447
        0x00004a38:    bed0eb2a    *...    DCD    3201362730
        0x00004a3c:    3f69b7e4    ..i?    DCD    1063892964
        0x00004a40:    bed1a2aa    ....    DCD    3201409706
        0x00004a44:    3f698ecc    ..i?    DCD    1063882444
        0x00004a48:    bed25a09    .Z..    DCD    3201456649
        0x00004a4c:    3f696591    .ei?    DCD    1063871889
        0x00004a50:    bed31148    H...    DCD    3201503560
        0x00004a54:    3f693c32    2<i?    DCD    1063861298
        0x00004a58:    bed3c867    g...    DCD    3201550439
        0x00004a5c:    3f6912ae    ..i?    DCD    1063850670
        0x00004a60:    bed47f64    d...    DCD    3201597284
        0x00004a64:    3f68e907    ..h?    DCD    1063840007
        0x00004a68:    bed53641    A6..    DCD    3201644097
        0x00004a6c:    3f68bf3c    <.h?    DCD    1063829308
        0x00004a70:    bed5ecfd    ....    DCD    3201690877
        0x00004a74:    3f68954c    L.h?    DCD    1063818572
        0x00004a78:    bed6a399    ....    DCD    3201737625
        0x00004a7c:    3f686b39    9kh?    DCD    1063807801
        0x00004a80:    bed75a13    .Z..    DCD    3201784339
        0x00004a84:    3f684103    .Ah?    DCD    1063796995
        0x00004a88:    bed8106b    k...    DCD    3201831019
        0x00004a8c:    3f6816a8    ..h?    DCD    1063786152
        0x00004a90:    bed8c6a3    ....    DCD    3201877667
        0x00004a94:    3f67ec2a    *.g?    DCD    1063775274
        0x00004a98:    bed97cb9    .|..    DCD    3201924281
        0x00004a9c:    3f67c187    ..g?    DCD    1063764359
        0x00004aa0:    beda32ad    .2..    DCD    3201970861
        0x00004aa4:    3f6796c1    ..g?    DCD    1063753409
        0x00004aa8:    bedae880    ....    DCD    3202017408
        0x00004aac:    3f676bd8    .kg?    DCD    1063742424
        0x00004ab0:    bedb9e31    1...    DCD    3202063921
        0x00004ab4:    3f6740ca    .@g?    DCD    1063731402
        0x00004ab8:    bedc53c1    .S..    DCD    3202110401
        0x00004abc:    3f671599    ..g?    DCD    1063720345
        0x00004ac0:    bedd092e    ....    DCD    3202156846
        0x00004ac4:    3f66ea45    E.f?    DCD    1063709253
        0x00004ac8:    beddbe79    y...    DCD    3202203257
        0x00004acc:    3f66becc    ..f?    DCD    1063698124
        0x00004ad0:    bede73a2    .s..    DCD    3202249634
        0x00004ad4:    3f669330    0.f?    DCD    1063686960
        0x00004ad8:    bedf28a9    .(..    DCD    3202295977
        0x00004adc:    3f666771    qgf?    DCD    1063675761
        0x00004ae0:    bedfdd8d    ....    DCD    3202342285
        0x00004ae4:    3f663b8e    .;f?    DCD    1063664526
        0x00004ae8:    bee0924f    O...    DCD    3202388559
        0x00004aec:    3f660f88    ..f?    DCD    1063653256
        0x00004af0:    bee146ee    .F..    DCD    3202434798
        0x00004af4:    3f65e35e    ^.e?    DCD    1063641950
        0x00004af8:    bee1fb6a    j...    DCD    3202481002
        0x00004afc:    3f65b710    ..e?    DCD    1063630608
        0x00004b00:    bee2afc4    ....    DCD    3202527172
        0x00004b04:    3f658aa0    ..e?    DCD    1063619232
        0x00004b08:    bee363fa    .c..    DCD    3202573306
        0x00004b0c:    3f655e0b    .^e?    DCD    1063607819
        0x00004b10:    bee4180e    ....    DCD    3202619406
        0x00004b14:    3f653154    T1e?    DCD    1063596372
        0x00004b18:    bee4cbfe    ....    DCD    3202665470
        0x00004b1c:    3f650479    y.e?    DCD    1063584889
        0x00004b20:    bee57fcb    ....    DCD    3202711499
        0x00004b24:    3f64d77b    {.d?    DCD    1063573371
        0x00004b28:    bee63375    u3..    DCD    3202757493
        0x00004b2c:    3f64aa59    Y.d?    DCD    1063561817
        0x00004b30:    bee6e6fb    ....    DCD    3202803451
        0x00004b34:    3f647d14    .}d?    DCD    1063550228
        0x00004b38:    bee79a5d    ]...    DCD    3202849373
        0x00004b3c:    3f644fac    .Od?    DCD    1063538604
        0x00004b40:    bee84d9c    .M..    DCD    3202895260
        0x00004b44:    3f642221    !"d?    DCD    1063526945
        0x00004b48:    bee900b7    ....    DCD    3202941111
        0x00004b4c:    3f63f473    s.c?    DCD    1063515251
        0x00004b50:    bee9b3ae    ....    DCD    3202986926
        0x00004b54:    3f63c6a1    ..c?    DCD    1063503521
        0x00004b58:    beea6681    .f..    DCD    3203032705
        0x00004b5c:    3f6398ac    ..c?    DCD    1063491756
        0x00004b60:    beeb1930    0...    DCD    3203078448
        0x00004b64:    3f636a95    .jc?    DCD    1063479957
        0x00004b68:    beebcbbb    ....    DCD    3203124155
        0x00004b6c:    3f633c5a    Z<c?    DCD    1063468122
        0x00004b70:    beec7e21    !~..    DCD    3203169825
        0x00004b74:    3f630dfc    ..c?    DCD    1063456252
        0x00004b78:    beed3063    c0..    DCD    3203215459
        0x00004b7c:    3f62df7b    {.b?    DCD    1063444347
        0x00004b80:    beede280    ....    DCD    3203261056
        0x00004b84:    3f62b0d7    ..b?    DCD    1063432407
        0x00004b88:    beee9479    y...    DCD    3203306617
        0x00004b8c:    3f628210    ..b?    DCD    1063420432
        0x00004b90:    beef464c    LF..    DCD    3203352140
        0x00004b94:    3f625326    &Sb?    DCD    1063408422
        0x00004b98:    beeff7fb    ....    DCD    3203397627
        0x00004b9c:    3f62241a    .$b?    DCD    1063396378
        0x00004ba0:    bef0a985    ....    DCD    3203443077
        0x00004ba4:    3f61f4ea    ..a?    DCD    1063384298
        0x00004ba8:    bef15aea    .Z..    DCD    3203488490
        0x00004bac:    3f61c598    ..a?    DCD    1063372184
        0x00004bb0:    bef20c29    )...    DCD    3203533865
        0x00004bb4:    3f619622    ".a?    DCD    1063360034
        0x00004bb8:    bef2bd43    C...    DCD    3203579203
        0x00004bbc:    3f61668a    .fa?    DCD    1063347850
        0x00004bc0:    bef36e38    8n..    DCD    3203624504
        0x00004bc4:    3f6136d0    .6a?    DCD    1063335632
        0x00004bc8:    bef41f07    ....    DCD    3203669767
        0x00004bcc:    3f6106f2    ..a?    DCD    1063323378
        0x00004bd0:    bef4cfb1    ....    DCD    3203714993
        0x00004bd4:    3f60d6f2    ..`?    DCD    1063311090
        0x00004bd8:    bef58035    5...    DCD    3203760181
        0x00004bdc:    3f60a6cf    ..`?    DCD    1063298767
        0x00004be0:    bef63093    .0..    DCD    3203805331
        0x00004be4:    3f607689    .v`?    DCD    1063286409
        0x00004be8:    bef6e0cb    ....    DCD    3203850443
        0x00004bec:    3f604621    !F`?    DCD    1063274017
        0x00004bf0:    bef790dc    ....    DCD    3203895516
        0x00004bf4:    3f601596    ..`?    DCD    1063261590
        0x00004bf8:    bef840c8    .@..    DCD    3203940552
        0x00004bfc:    3f5fe4e9    .._?    DCD    1063249129
        0x00004c00:    bef8f08e    ....    DCD    3203985550
        0x00004c04:    3f5fb419    .._?    DCD    1063236633
        0x00004c08:    bef9a02d    -...    DCD    3204030509
        0x00004c0c:    3f5f8327    '._?    DCD    1063224103
        0x00004c10:    befa4fa5    .O..    DCD    3204075429
        0x00004c14:    3f5f5212    .R_?    DCD    1063211538
        0x00004c18:    befafef7    ....    DCD    3204120311
        0x00004c1c:    3f5f20db    . _?    DCD    1063198939
        0x00004c20:    befbae22    "...    DCD    3204165154
        0x00004c24:    3f5eef81    ..^?    DCD    1063186305
        0x00004c28:    befc5d27    ']..    DCD    3204209959
        0x00004c2c:    3f5ebe05    ..^?    DCD    1063173637
        0x00004c30:    befd0c04    ....    DCD    3204254724
        0x00004c34:    3f5e8c67    g.^?    DCD    1063160935
        0x00004c38:    befdbabb    ....    DCD    3204299451
        0x00004c3c:    3f5e5aa6    .Z^?    DCD    1063148198
        0x00004c40:    befe694a    Ji..    DCD    3204344138
        0x00004c44:    3f5e28c3    .(^?    DCD    1063135427
        0x00004c48:    beff17b2    ....    DCD    3204388786
        0x00004c4c:    3f5df6be    ..]?    DCD    1063122622
        0x00004c50:    beffc5f3    ....    DCD    3204433395
        0x00004c54:    3f5dc497    ..]?    DCD    1063109783
        0x00004c58:    bf003a06    .:..    DCD    3204463110
        0x00004c5c:    3f5d924d    M.]?    DCD    1063096909
        0x00004c60:    bf0090ff    ....    DCD    3204485375
        0x00004c64:    3f5d5fe1    ._]?    DCD    1063084001
        0x00004c68:    bf00e7e4    ....    DCD    3204507620
        0x00004c6c:    3f5d2d53    S-]?    DCD    1063071059
        0x00004c70:    bf013eb5    .>..    DCD    3204529845
        0x00004c74:    3f5cfaa3    ..\?    DCD    1063058083
        0x00004c78:    bf019573    s...    DCD    3204552051
        0x00004c7c:    3f5cc7d1    ..\?    DCD    1063045073
        0x00004c80:    bf01ec1c    ....    DCD    3204574236
        0x00004c84:    3f5c94dd    ..\?    DCD    1063032029
        0x00004c88:    bf0242b1    .B..    DCD    3204596401
        0x00004c8c:    3f5c61c7    .a\?    DCD    1063018951
        0x00004c90:    bf029932    2...    DCD    3204618546
        0x00004c94:    3f5c2e8e    ..\?    DCD    1063005838
        0x00004c98:    bf02ef9f    ....    DCD    3204640671
        0x00004c9c:    3f5bfb34    4.[?    DCD    1062992692
        0x00004ca0:    bf0345f8    .E..    DCD    3204662776
        0x00004ca4:    3f5bc7b8    ..[?    DCD    1062979512
        0x00004ca8:    bf039c3d    =...    DCD    3204684861
        0x00004cac:    3f5b941a    ..[?    DCD    1062966298
        0x00004cb0:    bf03f26d    m...    DCD    3204706925
        0x00004cb4:    3f5b605a    Z`[?    DCD    1062953050
        0x00004cb8:    bf044889    .H..    DCD    3204728969
        0x00004cbc:    3f5b2c79    y,[?    DCD    1062939769
        0x00004cc0:    bf049e91    ....    DCD    3204750993
        0x00004cc4:    3f5af875    u.Z?    DCD    1062926453
        0x00004cc8:    bf04f484    ....    DCD    3204772996
        0x00004ccc:    3f5ac450    P.Z?    DCD    1062913104
        0x00004cd0:    bf054a62    bJ..    DCD    3204794978
        0x00004cd4:    3f5a9009    ..Z?    DCD    1062899721
        0x00004cd8:    bf05a02c    ,...    DCD    3204816940
        0x00004cdc:    3f5a5ba0    .[Z?    DCD    1062886304
        0x00004ce0:    bf05f5e2    ....    DCD    3204838882
        0x00004ce4:    3f5a2716    .'Z?    DCD    1062872854
        0x00004ce8:    bf064b82    .K..    DCD    3204860802
        0x00004cec:    3f59f26a    j.Y?    DCD    1062859370
        0x00004cf0:    bf06a10e    ....    DCD    3204882702
        0x00004cf4:    3f59bd9c    ..Y?    DCD    1062845852
        0x00004cf8:    bf06f686    ....    DCD    3204904582
        0x00004cfc:    3f5988ad    ..Y?    DCD    1062832301
        0x00004d00:    bf074be8    .K..    DCD    3204926440
        0x00004d04:    3f59539c    .SY?    DCD    1062818716
        0x00004d08:    bf07a136    6...    DCD    3204948278
        0x00004d0c:    3f591e6a    j.Y?    DCD    1062805098
        0x00004d10:    bf07f66f    o...    DCD    3204970095
        0x00004d14:    3f58e917    ..X?    DCD    1062791447
        0x00004d18:    bf084b92    .K..    DCD    3204991890
        0x00004d1c:    3f58b3a1    ..X?    DCD    1062777761
        0x00004d20:    bf08a0a1    ....    DCD    3205013665
        0x00004d24:    3f587e0b    .~X?    DCD    1062764043
        0x00004d28:    bf08f59b    ....    DCD    3205035419
        0x00004d2c:    3f584853    SHX?    DCD    1062750291
        0x00004d30:    bf094a7f    .J..    DCD    3205057151
        0x00004d34:    3f581279    y.X?    DCD    1062736505
        0x00004d38:    bf099f4e    N...    DCD    3205078862
        0x00004d3c:    3f57dc7f    ..W?    DCD    1062722687
        0x00004d40:    bf09f409    ....    DCD    3205100553
        0x00004d44:    3f57a663    c.W?    DCD    1062708835
        0x00004d48:    bf0a48ad    .H..    DCD    3205122221
        0x00004d4c:    3f577026    &pW?    DCD    1062694950
        0x00004d50:    bf0a9d3d    =...    DCD    3205143869
        0x00004d54:    3f5739c7    .9W?    DCD    1062681031
        0x00004d58:    bf0af1b7    ....    DCD    3205165495
        0x00004d5c:    3f570348    H.W?    DCD    1062667080
        0x00004d60:    bf0b461c    .F..    DCD    3205187100
        0x00004d64:    3f56cca7    ..V?    DCD    1062653095
        0x00004d68:    bf0b9a6b    k...    DCD    3205208683
        0x00004d6c:    3f5695e5    ..V?    DCD    1062639077
        0x00004d70:    bf0beea5    ....    DCD    3205230245
        0x00004d74:    3f565f02    ._V?    DCD    1062625026
        0x00004d78:    bf0c42c9    .B..    DCD    3205251785
        0x00004d7c:    3f5627fe    .'V?    DCD    1062610942
        0x00004d80:    bf0c96d7    ....    DCD    3205273303
        0x00004d84:    3f55f0d9    ..U?    DCD    1062596825
        0x00004d88:    bf0cead0    ....    DCD    3205294800
        0x00004d8c:    3f55b993    ..U?    DCD    1062582675
        0x00004d90:    bf0d3eb3    .>..    DCD    3205316275
        0x00004d94:    3f55822c    ,.U?    DCD    1062568492
        0x00004d98:    bf0d9281    ....    DCD    3205337729
        0x00004d9c:    3f554aa4    .JU?    DCD    1062554276
        0x00004da0:    bf0de638    8...    DCD    3205359160
        0x00004da4:    3f5512fb    ..U?    DCD    1062540027
        0x00004da8:    bf0e39da    .9..    DCD    3205380570
        0x00004dac:    3f54db31    1.T?    DCD    1062525745
        0x00004db0:    bf0e8d65    e...    DCD    3205401957
        0x00004db4:    3f54a347    G.T?    DCD    1062511431
        0x00004db8:    bf0ee0db    ....    DCD    3205423323
        0x00004dbc:    3f546b3b    ;kT?    DCD    1062497083
        0x00004dc0:    bf0f343b    ;4..    DCD    3205444667
        0x00004dc4:    3f54330f    .3T?    DCD    1062482703
        0x00004dc8:    bf0f8784    ....    DCD    3205465988
        0x00004dcc:    3f53fac3    ..S?    DCD    1062468291
        0x00004dd0:    bf0fdab8    ....    DCD    3205487288
        0x00004dd4:    3f53c255    U.S?    DCD    1062453845
        0x00004dd8:    bf102dd5    .-..    DCD    3205508565
        0x00004ddc:    3f5389c7    ..S?    DCD    1062439367
        0x00004de0:    bf1080dc    ....    DCD    3205529820
        0x00004de4:    3f535118    .QS?    DCD    1062424856
        0x00004de8:    bf10d3cd    ....    DCD    3205551053
        0x00004dec:    3f531849    I.S?    DCD    1062410313
        0x00004df0:    bf1126a7    .&..    DCD    3205572263
        0x00004df4:    3f52df59    Y.R?    DCD    1062395737
        0x00004df8:    bf11796b    ky..    DCD    3205593451
        0x00004dfc:    3f52a649    I.R?    DCD    1062381129
        0x00004e00:    bf11cc19    ....    DCD    3205614617
        0x00004e04:    3f526d18    .mR?    DCD    1062366488
        0x00004e08:    bf121eb0    ....    DCD    3205635760
        0x00004e0c:    3f5233c6    .3R?    DCD    1062351814
        0x00004e10:    bf127130    0q..    DCD    3205656880
        0x00004e14:    3f51fa54    T.Q?    DCD    1062337108
        0x00004e18:    bf12c39a    ....    DCD    3205677978
        0x00004e1c:    3f51c0c2    ..Q?    DCD    1062322370
        0x00004e20:    bf1315ee    ....    DCD    3205699054
        0x00004e24:    3f518710    ..Q?    DCD    1062307600
        0x00004e28:    bf13682a    *h..    DCD    3205720106
        0x00004e2c:    3f514d3d    =MQ?    DCD    1062292797
        0x00004e30:    bf13ba50    P...    DCD    3205741136
        0x00004e34:    3f51134a    J.Q?    DCD    1062277962
        0x00004e38:    bf140c5f    _...    DCD    3205762143
        0x00004e3c:    3f50d937    7.P?    DCD    1062263095
        0x00004e40:    bf145e58    X^..    DCD    3205783128
        0x00004e44:    3f509f03    ..P?    DCD    1062248195
        0x00004e48:    bf14b039    9...    DCD    3205804089
        0x00004e4c:    3f5064af    .dP?    DCD    1062233263
        0x00004e50:    bf150204    ....    DCD    3205825028
        0x00004e54:    3f502a3b    ;*P?    DCD    1062218299
        0x00004e58:    bf1553b7    .S..    DCD    3205845943
        0x00004e5c:    3f4fefa8    ..O?    DCD    1062203304
        0x00004e60:    bf15a554    T...    DCD    3205866836
        0x00004e64:    3f4fb4f4    ..O?    DCD    1062188276
        0x00004e68:    bf15f6d9    ....    DCD    3205887705
        0x00004e6c:    3f4f7a1f    .zO?    DCD    1062173215
        0x00004e70:    bf164847    GH..    DCD    3205908551
        0x00004e74:    3f4f3f2b    +?O?    DCD    1062158123
        0x00004e78:    bf16999f    ....    DCD    3205929375
        0x00004e7c:    3f4f0417    ..O?    DCD    1062142999
        0x00004e80:    bf16eadf    ....    DCD    3205950175
        0x00004e84:    3f4ec8e4    ..N?    DCD    1062127844
        0x00004e88:    bf173c07    .<..    DCD    3205970951
        0x00004e8c:    3f4e8d90    ..N?    DCD    1062112656
        0x00004e90:    bf178d18    ....    DCD    3205991704
        0x00004e94:    3f4e521c    .RN?    DCD    1062097436
        0x00004e98:    bf17de12    ....    DCD    3206012434
        0x00004e9c:    3f4e1689    ..N?    DCD    1062082185
        0x00004ea0:    bf182ef5    ....    DCD    3206033141
        0x00004ea4:    3f4ddad5    ..M?    DCD    1062066901
        0x00004ea8:    bf187fc0    ....    DCD    3206053824
        0x00004eac:    3f4d9f02    ..M?    DCD    1062051586
        0x00004eb0:    bf18d073    s...    DCD    3206074483
        0x00004eb4:    3f4d6310    .cM?    DCD    1062036240
        0x00004eb8:    bf19210f    .!..    DCD    3206095119
        0x00004ebc:    3f4d26fd    .&M?    DCD    1062020861
        0x00004ec0:    bf197194    .q..    DCD    3206115732
        0x00004ec4:    3f4ceacb    ..L?    DCD    1062005451
        0x00004ec8:    bf19c200    ....    DCD    3206136320
        0x00004ecc:    3f4cae79    y.L?    DCD    1061990009
        0x00004ed0:    bf1a1255    U...    DCD    3206156885
        0x00004ed4:    3f4c7208    .rL?    DCD    1061974536
        0x00004ed8:    bf1a6293    .b..    DCD    3206177427
        0x00004edc:    3f4c3578    x5L?    DCD    1061959032
        0x00004ee0:    bf1ab2b8    ....    DCD    3206197944
        0x00004ee4:    3f4bf8c7    ..K?    DCD    1061943495
        0x00004ee8:    bf1b02c6    ....    DCD    3206218438
        0x00004eec:    3f4bbbf8    ..K?    DCD    1061927928
        0x00004ef0:    bf1b52bb    .R..    DCD    3206238907
        0x00004ef4:    3f4b7f09    ..K?    DCD    1061912329
        0x00004ef8:    bf1ba299    ....    DCD    3206259353
        0x00004efc:    3f4b41fa    .AK?    DCD    1061896698
        0x00004f00:    bf1bf25f    _...    DCD    3206279775
        0x00004f04:    3f4b04cc    ..K?    DCD    1061881036
        0x00004f08:    bf1c420c    .B..    DCD    3206300172
        0x00004f0c:    3f4ac77f    ..J?    DCD    1061865343
        0x00004f10:    bf1c91a2    ....    DCD    3206320546
        0x00004f14:    3f4a8a13    ..J?    DCD    1061849619
        0x00004f18:    bf1ce11f    ....    DCD    3206340895
        0x00004f1c:    3f4a4c87    .LJ?    DCD    1061833863
        0x00004f20:    bf1d3084    .0..    DCD    3206361220
        0x00004f24:    3f4a0edc    ..J?    DCD    1061818076
        0x00004f28:    bf1d7fd1    ....    DCD    3206381521
        0x00004f2c:    3f49d112    ..I?    DCD    1061802258
        0x00004f30:    bf1dcf06    ....    DCD    3206401798
        0x00004f34:    3f499329    ).I?    DCD    1061786409
        0x00004f38:    bf1e1e22    "...    DCD    3206422050
        0x00004f3c:    3f495521    !UI?    DCD    1061770529
        0x00004f40:    bf1e6d26    &m..    DCD    3206442278
        0x00004f44:    3f4916fa    ..I?    DCD    1061754618
        0x00004f48:    bf1ebc12    ....    DCD    3206462482
        0x00004f4c:    3f48d8b3    ..H?    DCD    1061738675
        0x00004f50:    bf1f0ae5    ....    DCD    3206482661
        0x00004f54:    3f489a4e    N.H?    DCD    1061722702
        0x00004f58:    bf1f599f    .Y..    DCD    3206502815
        0x00004f5c:    3f485bca    .[H?    DCD    1061706698
        0x00004f60:    bf1fa841    A...    DCD    3206522945
        0x00004f64:    3f481d27    '.H?    DCD    1061690663
        0x00004f68:    bf1ff6cb    ....    DCD    3206543051
        0x00004f6c:    3f47de65    e.G?    DCD    1061674597
        0x00004f70:    bf20453b    ;E .    DCD    3206563131
        0x00004f74:    3f479f84    ..G?    DCD    1061658500
        0x00004f78:    bf209393    .. .    DCD    3206583187
        0x00004f7c:    3f476085    .`G?    DCD    1061642373
        0x00004f80:    bf20e1d2    .. .    DCD    3206603218
        0x00004f84:    3f472167    g!G?    DCD    1061626215
        0x00004f88:    bf212ff9    ./!.    DCD    3206623225
        0x00004f8c:    3f46e22a    *.F?    DCD    1061610026
        0x00004f90:    bf217e06    .~!.    DCD    3206643206
        0x00004f94:    3f46a2ce    ..F?    DCD    1061593806
        0x00004f98:    bf21cbfb    ..!.    DCD    3206663163
        0x00004f9c:    3f466354    TcF?    DCD    1061577556
        0x00004fa0:    bf2219d7    ..".    DCD    3206683095
        0x00004fa4:    3f4623bb    .#F?    DCD    1061561275
        0x00004fa8:    bf226799    .g".    DCD    3206703001
        0x00004fac:    3f45e403    ..E?    DCD    1061544963
        0x00004fb0:    bf22b543    C.".    DCD    3206722883
        0x00004fb4:    3f45a42d    -.E?    DCD    1061528621
        0x00004fb8:    bf2302d3    ..#.    DCD    3206742739
        0x00004fbc:    3f456439    9dE?    DCD    1061512249
        0x00004fc0:    bf23504b    KP#.    DCD    3206762571
        0x00004fc4:    3f452426    &$E?    DCD    1061495846
        0x00004fc8:    bf239da9    ..#.    DCD    3206782377
        0x00004fcc:    3f44e3f5    ..D?    DCD    1061479413
        0x00004fd0:    bf23eaee    ..#.    DCD    3206802158
        0x00004fd4:    3f44a3a5    ..D?    DCD    1061462949
        0x00004fd8:    bf24381a    .8$.    DCD    3206821914
        0x00004fdc:    3f446337    7cD?    DCD    1061446455
        0x00004fe0:    bf24852c    ,.$.    DCD    3206841644
        0x00004fe4:    3f4422ab    ."D?    DCD    1061429931
        0x00004fe8:    bf24d225    %.$.    DCD    3206861349
        0x00004fec:    3f43e200    ..C?    DCD    1061413376
        0x00004ff0:    bf251f04    ..%.    DCD    3206881028
        0x00004ff4:    3f43a138    8.C?    DCD    1061396792
        0x00004ff8:    bf256bcb    .k%.    DCD    3206900683
        0x00004ffc:    3f436051    Q`C?    DCD    1061380177
        0x00005000:    bf25b877    w.%.    DCD    3206920311
        0x00005004:    3f431f4c    L.C?    DCD    1061363532
        0x00005008:    bf26050a    ..&.    DCD    3206939914
        0x0000500c:    3f42de29    ).B?    DCD    1061346857
        0x00005010:    bf265184    .Q&.    DCD    3206959492
        0x00005014:    3f429ce8    ..B?    DCD    1061330152
        0x00005018:    bf269de3    ..&.    DCD    3206979043
        0x0000501c:    3f425b89    .[B?    DCD    1061313417
        0x00005020:    bf26ea2a    *.&.    DCD    3206998570
        0x00005024:    3f421a0b    ..B?    DCD    1061296651
        0x00005028:    bf273656    V6'.    DCD    3207018070
        0x0000502c:    3f41d870    p.A?    DCD    1061279856
        0x00005030:    bf278268    h.'.    DCD    3207037544
        0x00005034:    3f4196b7    ..A?    DCD    1061263031
        0x00005038:    bf27ce61    a.'.    DCD    3207056993
        0x0000503c:    3f4154e1    .TA?    DCD    1061246177
        0x00005040:    bf281a40    @.(.    DCD    3207076416
        0x00005044:    3f4112ec    ..A?    DCD    1061229292
        0x00005048:    bf286605    .f(.    DCD    3207095813
        0x0000504c:    3f40d0da    ..@?    DCD    1061212378
        0x00005050:    bf28b1b0    ..(.    DCD    3207115184
        0x00005054:    3f408ea9    ..@?    DCD    1061195433
        0x00005058:    bf28fd41    A.(.    DCD    3207134529
        0x0000505c:    3f404c5c    \L@?    DCD    1061178460
        0x00005060:    bf2948b8    .H).    DCD    3207153848
        0x00005064:    3f4009f0    ..@?    DCD    1061161456
        0x00005068:    bf299415    ..).    DCD    3207173141
        0x0000506c:    3f3fc767    g.??    DCD    1061144423
        0x00005070:    bf29df57    W.).    DCD    3207192407
        0x00005074:    3f3f84c0    ..??    DCD    1061127360
        0x00005078:    bf2a2a80    .**.    DCD    3207211648
        0x0000507c:    3f3f41fc    .A??    DCD    1061110268
        0x00005080:    bf2a758e    .u*.    DCD    3207230862
        0x00005084:    3f3eff1b    ..>?    DCD    1061093147
        0x00005088:    bf2ac082    ..*.    DCD    3207250050
        0x0000508c:    3f3ebc1b    ..>?    DCD    1061075995
        0x00005090:    bf2b0b5b    [.+.    DCD    3207269211
        0x00005094:    3f3e78ff    .x>?    DCD    1061058815
        0x00005098:    bf2b561b    .V+.    DCD    3207288347
        0x0000509c:    3f3e35c5    .5>?    DCD    1061041605
        0x000050a0:    bf2ba0bf    ..+.    DCD    3207307455
        0x000050a4:    3f3df26e    n.=?    DCD    1061024366
        0x000050a8:    bf2beb4a    J.+.    DCD    3207326538
        0x000050ac:    3f3daef9    ..=?    DCD    1061007097
        0x000050b0:    bf2c35b9    .5,.    DCD    3207345593
        0x000050b4:    3f3d6b67    gk=?    DCD    1060989799
        0x000050b8:    bf2c800f    ..,.    DCD    3207364623
        0x000050bc:    3f3d27b8    .'=?    DCD    1060972472
        0x000050c0:    bf2cca49    I.,.    DCD    3207383625
        0x000050c4:    3f3ce3ec    ..<?    DCD    1060955116
        0x000050c8:    bf2d1469    i.-.    DCD    3207402601
        0x000050cc:    3f3ca003    ..<?    DCD    1060937731
        0x000050d0:    bf2d5e6f    o^-.    DCD    3207421551
        0x000050d4:    3f3c5bfc    .[<?    DCD    1060920316
        0x000050d8:    bf2da859    Y.-.    DCD    3207440473
        0x000050dc:    3f3c17d9    ..<?    DCD    1060902873
        0x000050e0:    bf2df229    ).-.    DCD    3207459369
        0x000050e4:    3f3bd398    ..;?    DCD    1060885400
        0x000050e8:    bf2e3bde    .;..    DCD    3207478238
        0x000050ec:    3f3b8f3b    ;.;?    DCD    1060867899
        0x000050f0:    bf2e8578    x...    DCD    3207497080
        0x000050f4:    3f3b4ac1    .J;?    DCD    1060850369
        0x000050f8:    bf2ecef7    ....    DCD    3207515895
        0x000050fc:    3f3b0629    ).;?    DCD    1060832809
        0x00005100:    bf2f185b    [./.    DCD    3207534683
        0x00005104:    3f3ac175    u.:?    DCD    1060815221
        0x00005108:    bf2f61a5    .a/.    DCD    3207553445
        0x0000510c:    3f3a7ca4    .|:?    DCD    1060797604
        0x00005110:    bf2faad3    ../.    DCD    3207572179
        0x00005114:    3f3a37b7    .7:?    DCD    1060779959
        0x00005118:    bf2ff3e6    ../.    DCD    3207590886
        0x0000511c:    3f39f2ac    ..9?    DCD    1060762284
        0x00005120:    bf303cde    .<0.    DCD    3207609566
        0x00005124:    3f39ad85    ..9?    DCD    1060744581
        0x00005128:    bf3085bb    ..0.    DCD    3207628219
        0x0000512c:    3f396842    Bh9?    DCD    1060726850
        0x00005130:    bf30ce7c    |.0.    DCD    3207646844
        0x00005134:    3f3922e1    ."9?    DCD    1060709089
        0x00005138:    bf311722    ".1.    DCD    3207665442
        0x0000513c:    3f38dd65    e.8?    DCD    1060691301
        0x00005140:    bf315fad    ._1.    DCD    3207684013
        0x00005144:    3f3897cb    ..8?    DCD    1060673483
        0x00005148:    bf31a81d    ..1.    DCD    3207702557
        0x0000514c:    3f385216    .R8?    DCD    1060655638
        0x00005150:    bf31f071    q.1.    DCD    3207721073
        0x00005154:    3f380c43    C.8?    DCD    1060637763
        0x00005158:    bf3238aa    .82.    DCD    3207739562
        0x0000515c:    3f37c655    U.7?    DCD    1060619861
        0x00005160:    bf3280c7    ..2.    DCD    3207758023
        0x00005164:    3f37804a    J.7?    DCD    1060601930
        0x00005168:    bf32c8c9    ..2.    DCD    3207776457
        0x0000516c:    3f373a23    #:7?    DCD    1060583971
        0x00005170:    bf3310af    ..3.    DCD    3207794863
        0x00005174:    3f36f3df    ..6?    DCD    1060565983
        0x00005178:    bf33587a    zX3.    DCD    3207813242
        0x0000517c:    3f36ad7f    ..6?    DCD    1060547967
        0x00005180:    bf33a029    ).3.    DCD    3207831593
        0x00005184:    3f366704    .g6?    DCD    1060529924
        0x00005188:    bf33e7bc    ..3.    DCD    3207849916
        0x0000518c:    3f36206c    l 6?    DCD    1060511852
        0x00005190:    bf342f34    4/4.    DCD    3207868212
        0x00005194:    3f35d9b8    ..5?    DCD    1060493752
        0x00005198:    bf34768f    .v4.    DCD    3207886479
        0x0000519c:    3f3592e7    ..5?    DCD    1060475623
        0x000051a0:    bf34bdcf    ..4.    DCD    3207904719
        0x000051a4:    3f354bfb    .K5?    DCD    1060457467
        0x000051a8:    bf3504f3    ..5.    DCD    3207922931
        0x000051ac:    3f3504f3    ..5?    DCD    1060439283
        0x000051b0:    bf354bfb    .K5.    DCD    3207941115
        0x000051b4:    3f34bdcf    ..4?    DCD    1060421071
        0x000051b8:    bf3592e7    ..5.    DCD    3207959271
        0x000051bc:    3f34768f    .v4?    DCD    1060402831
        0x000051c0:    bf35d9b8    ..5.    DCD    3207977400
        0x000051c4:    3f342f34    4/4?    DCD    1060384564
        0x000051c8:    bf36206c    l 6.    DCD    3207995500
        0x000051cc:    3f33e7bc    ..3?    DCD    1060366268
        0x000051d0:    bf366704    .g6.    DCD    3208013572
        0x000051d4:    3f33a029    ).3?    DCD    1060347945
        0x000051d8:    bf36ad7f    ..6.    DCD    3208031615
        0x000051dc:    3f33587a    zX3?    DCD    1060329594
        0x000051e0:    bf36f3df    ..6.    DCD    3208049631
        0x000051e4:    3f3310af    ..3?    DCD    1060311215
        0x000051e8:    bf373a23    #:7.    DCD    3208067619
        0x000051ec:    3f32c8c9    ..2?    DCD    1060292809
        0x000051f0:    bf37804a    J.7.    DCD    3208085578
        0x000051f4:    3f3280c7    ..2?    DCD    1060274375
        0x000051f8:    bf37c655    U.7.    DCD    3208103509
        0x000051fc:    3f3238aa    .82?    DCD    1060255914
        0x00005200:    bf380c43    C.8.    DCD    3208121411
        0x00005204:    3f31f071    q.1?    DCD    1060237425
        0x00005208:    bf385216    .R8.    DCD    3208139286
        0x0000520c:    3f31a81d    ..1?    DCD    1060218909
        0x00005210:    bf3897cb    ..8.    DCD    3208157131
        0x00005214:    3f315fad    ._1?    DCD    1060200365
        0x00005218:    bf38dd65    e.8.    DCD    3208174949
        0x0000521c:    3f311722    ".1?    DCD    1060181794
        0x00005220:    bf3922e1    ."9.    DCD    3208192737
        0x00005224:    3f30ce7c    |.0?    DCD    1060163196
        0x00005228:    bf396842    Bh9.    DCD    3208210498
        0x0000522c:    3f3085bb    ..0?    DCD    1060144571
        0x00005230:    bf39ad85    ..9.    DCD    3208228229
        0x00005234:    3f303cde    .<0?    DCD    1060125918
        0x00005238:    bf39f2ac    ..9.    DCD    3208245932
        0x0000523c:    3f2ff3e6    ../?    DCD    1060107238
        0x00005240:    bf3a37b7    .7:.    DCD    3208263607
        0x00005244:    3f2faad3    ../?    DCD    1060088531
        0x00005248:    bf3a7ca4    .|:.    DCD    3208281252
        0x0000524c:    3f2f61a5    .a/?    DCD    1060069797
        0x00005250:    bf3ac175    u.:.    DCD    3208298869
        0x00005254:    3f2f185b    [./?    DCD    1060051035
        0x00005258:    bf3b0629    ).;.    DCD    3208316457
        0x0000525c:    3f2ecef7    ...?    DCD    1060032247
        0x00005260:    bf3b4ac1    .J;.    DCD    3208334017
        0x00005264:    3f2e8578    x..?    DCD    1060013432
        0x00005268:    bf3b8f3b    ;.;.    DCD    3208351547
        0x0000526c:    3f2e3bde    .;.?    DCD    1059994590
        0x00005270:    bf3bd398    ..;.    DCD    3208369048
        0x00005274:    3f2df229    ).-?    DCD    1059975721
        0x00005278:    bf3c17d9    ..<.    DCD    3208386521
        0x0000527c:    3f2da859    Y.-?    DCD    1059956825
        0x00005280:    bf3c5bfc    .[<.    DCD    3208403964
        0x00005284:    3f2d5e6f    o^-?    DCD    1059937903
        0x00005288:    bf3ca003    ..<.    DCD    3208421379
        0x0000528c:    3f2d1469    i.-?    DCD    1059918953
        0x00005290:    bf3ce3ec    ..<.    DCD    3208438764
        0x00005294:    3f2cca49    I.,?    DCD    1059899977
        0x00005298:    bf3d27b8    .'=.    DCD    3208456120
        0x0000529c:    3f2c800f    ..,?    DCD    1059880975
        0x000052a0:    bf3d6b67    gk=.    DCD    3208473447
        0x000052a4:    3f2c35b9    .5,?    DCD    1059861945
        0x000052a8:    bf3daef9    ..=.    DCD    3208490745
        0x000052ac:    3f2beb4a    J.+?    DCD    1059842890
        0x000052b0:    bf3df26e    n.=.    DCD    3208508014
        0x000052b4:    3f2ba0bf    ..+?    DCD    1059823807
        0x000052b8:    bf3e35c5    .5>.    DCD    3208525253
        0x000052bc:    3f2b561b    .V+?    DCD    1059804699
        0x000052c0:    bf3e78ff    .x>.    DCD    3208542463
        0x000052c4:    3f2b0b5b    [.+?    DCD    1059785563
        0x000052c8:    bf3ebc1b    ..>.    DCD    3208559643
        0x000052cc:    3f2ac082    ..*?    DCD    1059766402
        0x000052d0:    bf3eff1b    ..>.    DCD    3208576795
        0x000052d4:    3f2a758e    .u*?    DCD    1059747214
        0x000052d8:    bf3f41fc    .A?.    DCD    3208593916
        0x000052dc:    3f2a2a80    .**?    DCD    1059728000
        0x000052e0:    bf3f84c0    ..?.    DCD    3208611008
        0x000052e4:    3f29df57    W.)?    DCD    1059708759
        0x000052e8:    bf3fc767    g.?.    DCD    3208628071
        0x000052ec:    3f299415    ..)?    DCD    1059689493
        0x000052f0:    bf4009f0    ..@.    DCD    3208645104
        0x000052f4:    3f2948b8    .H)?    DCD    1059670200
        0x000052f8:    bf404c5c    \L@.    DCD    3208662108
        0x000052fc:    3f28fd41    A.(?    DCD    1059650881
        0x00005300:    bf408ea9    ..@.    DCD    3208679081
        0x00005304:    3f28b1b0    ..(?    DCD    1059631536
        0x00005308:    bf40d0da    ..@.    DCD    3208696026
        0x0000530c:    3f286605    .f(?    DCD    1059612165
        0x00005310:    bf4112ec    ..A.    DCD    3208712940
        0x00005314:    3f281a40    @.(?    DCD    1059592768
        0x00005318:    bf4154e1    .TA.    DCD    3208729825
        0x0000531c:    3f27ce61    a.'?    DCD    1059573345
        0x00005320:    bf4196b7    ..A.    DCD    3208746679
        0x00005324:    3f278268    h.'?    DCD    1059553896
        0x00005328:    bf41d870    p.A.    DCD    3208763504
        0x0000532c:    3f273656    V6'?    DCD    1059534422
        0x00005330:    bf421a0b    ..B.    DCD    3208780299
        0x00005334:    3f26ea2a    *.&?    DCD    1059514922
        0x00005338:    bf425b89    .[B.    DCD    3208797065
        0x0000533c:    3f269de3    ..&?    DCD    1059495395
        0x00005340:    bf429ce8    ..B.    DCD    3208813800
        0x00005344:    3f265184    .Q&?    DCD    1059475844
        0x00005348:    bf42de29    ).B.    DCD    3208830505
        0x0000534c:    3f26050a    ..&?    DCD    1059456266
        0x00005350:    bf431f4c    L.C.    DCD    3208847180
        0x00005354:    3f25b877    w.%?    DCD    1059436663
        0x00005358:    bf436051    Q`C.    DCD    3208863825
        0x0000535c:    3f256bcb    .k%?    DCD    1059417035
        0x00005360:    bf43a138    8.C.    DCD    3208880440
        0x00005364:    3f251f04    ..%?    DCD    1059397380
        0x00005368:    bf43e200    ..C.    DCD    3208897024
        0x0000536c:    3f24d225    %.$?    DCD    1059377701
        0x00005370:    bf4422ab    ."D.    DCD    3208913579
        0x00005374:    3f24852c    ,.$?    DCD    1059357996
        0x00005378:    bf446337    7cD.    DCD    3208930103
        0x0000537c:    3f24381a    .8$?    DCD    1059338266
        0x00005380:    bf44a3a5    ..D.    DCD    3208946597
        0x00005384:    3f23eaee    ..#?    DCD    1059318510
        0x00005388:    bf44e3f5    ..D.    DCD    3208963061
        0x0000538c:    3f239da9    ..#?    DCD    1059298729
        0x00005390:    bf452426    &$E.    DCD    3208979494
        0x00005394:    3f23504b    KP#?    DCD    1059278923
        0x00005398:    bf456439    9dE.    DCD    3208995897
        0x0000539c:    3f2302d3    ..#?    DCD    1059259091
        0x000053a0:    bf45a42d    -.E.    DCD    3209012269
        0x000053a4:    3f22b543    C."?    DCD    1059239235
        0x000053a8:    bf45e403    ..E.    DCD    3209028611
        0x000053ac:    3f226799    .g"?    DCD    1059219353
        0x000053b0:    bf4623bb    .#F.    DCD    3209044923
        0x000053b4:    3f2219d7    .."?    DCD    1059199447
        0x000053b8:    bf466354    TcF.    DCD    3209061204
        0x000053bc:    3f21cbfb    ..!?    DCD    1059179515
        0x000053c0:    bf46a2ce    ..F.    DCD    3209077454
        0x000053c4:    3f217e06    .~!?    DCD    1059159558
        0x000053c8:    bf46e22a    *.F.    DCD    3209093674
        0x000053cc:    3f212ff9    ./!?    DCD    1059139577
        0x000053d0:    bf472167    g!G.    DCD    3209109863
        0x000053d4:    3f20e1d2    .. ?    DCD    1059119570
        0x000053d8:    bf476085    .`G.    DCD    3209126021
        0x000053dc:    3f209393    .. ?    DCD    1059099539
        0x000053e0:    bf479f84    ..G.    DCD    3209142148
        0x000053e4:    3f20453b    ;E ?    DCD    1059079483
        0x000053e8:    bf47de65    e.G.    DCD    3209158245
        0x000053ec:    3f1ff6cb    ...?    DCD    1059059403
        0x000053f0:    bf481d27    '.H.    DCD    3209174311
        0x000053f4:    3f1fa841    A..?    DCD    1059039297
        0x000053f8:    bf485bca    .[H.    DCD    3209190346
        0x000053fc:    3f1f599f    .Y.?    DCD    1059019167
        0x00005400:    bf489a4e    N.H.    DCD    3209206350
        0x00005404:    3f1f0ae5    ...?    DCD    1058999013
        0x00005408:    bf48d8b3    ..H.    DCD    3209222323
        0x0000540c:    3f1ebc12    ...?    DCD    1058978834
        0x00005410:    bf4916fa    ..I.    DCD    3209238266
        0x00005414:    3f1e6d26    &m.?    DCD    1058958630
        0x00005418:    bf495521    !UI.    DCD    3209254177
        0x0000541c:    3f1e1e22    "..?    DCD    1058938402
        0x00005420:    bf499329    ).I.    DCD    3209270057
        0x00005424:    3f1dcf06    ...?    DCD    1058918150
        0x00005428:    bf49d112    ..I.    DCD    3209285906
        0x0000542c:    3f1d7fd1    ...?    DCD    1058897873
        0x00005430:    bf4a0edc    ..J.    DCD    3209301724
        0x00005434:    3f1d3084    .0.?    DCD    1058877572
        0x00005438:    bf4a4c87    .LJ.    DCD    3209317511
        0x0000543c:    3f1ce11f    ...?    DCD    1058857247
        0x00005440:    bf4a8a13    ..J.    DCD    3209333267
        0x00005444:    3f1c91a2    ...?    DCD    1058836898
        0x00005448:    bf4ac77f    ..J.    DCD    3209348991
        0x0000544c:    3f1c420c    .B.?    DCD    1058816524
        0x00005450:    bf4b04cc    ..K.    DCD    3209364684
        0x00005454:    3f1bf25f    _..?    DCD    1058796127
        0x00005458:    bf4b41fa    .AK.    DCD    3209380346
        0x0000545c:    3f1ba299    ...?    DCD    1058775705
        0x00005460:    bf4b7f09    ..K.    DCD    3209395977
        0x00005464:    3f1b52bb    .R.?    DCD    1058755259
        0x00005468:    bf4bbbf8    ..K.    DCD    3209411576
        0x0000546c:    3f1b02c6    ...?    DCD    1058734790
        0x00005470:    bf4bf8c7    ..K.    DCD    3209427143
        0x00005474:    3f1ab2b8    ...?    DCD    1058714296
        0x00005478:    bf4c3578    x5L.    DCD    3209442680
        0x0000547c:    3f1a6293    .b.?    DCD    1058693779
        0x00005480:    bf4c7208    .rL.    DCD    3209458184
        0x00005484:    3f1a1255    U..?    DCD    1058673237
        0x00005488:    bf4cae79    y.L.    DCD    3209473657
        0x0000548c:    3f19c200    ...?    DCD    1058652672
        0x00005490:    bf4ceacb    ..L.    DCD    3209489099
        0x00005494:    3f197194    .q.?    DCD    1058632084
        0x00005498:    bf4d26fd    .&M.    DCD    3209504509
        0x0000549c:    3f19210f    .!.?    DCD    1058611471
        0x000054a0:    bf4d6310    .cM.    DCD    3209519888
        0x000054a4:    3f18d073    s..?    DCD    1058590835
        0x000054a8:    bf4d9f02    ..M.    DCD    3209535234
        0x000054ac:    3f187fc0    ...?    DCD    1058570176
        0x000054b0:    bf4ddad5    ..M.    DCD    3209550549
        0x000054b4:    3f182ef5    ...?    DCD    1058549493
        0x000054b8:    bf4e1689    ..N.    DCD    3209565833
        0x000054bc:    3f17de12    ...?    DCD    1058528786
        0x000054c0:    bf4e521c    .RN.    DCD    3209581084
        0x000054c4:    3f178d18    ...?    DCD    1058508056
        0x000054c8:    bf4e8d90    ..N.    DCD    3209596304
        0x000054cc:    3f173c07    .<.?    DCD    1058487303
        0x000054d0:    bf4ec8e4    ..N.    DCD    3209611492
        0x000054d4:    3f16eadf    ...?    DCD    1058466527
        0x000054d8:    bf4f0417    ..O.    DCD    3209626647
        0x000054dc:    3f16999f    ...?    DCD    1058445727
        0x000054e0:    bf4f3f2b    +?O.    DCD    3209641771
        0x000054e4:    3f164847    GH.?    DCD    1058424903
        0x000054e8:    bf4f7a1f    .zO.    DCD    3209656863
        0x000054ec:    3f15f6d9    ...?    DCD    1058404057
        0x000054f0:    bf4fb4f4    ..O.    DCD    3209671924
        0x000054f4:    3f15a554    T..?    DCD    1058383188
        0x000054f8:    bf4fefa8    ..O.    DCD    3209686952
        0x000054fc:    3f1553b7    .S.?    DCD    1058362295
        0x00005500:    bf502a3b    ;*P.    DCD    3209701947
        0x00005504:    3f150204    ...?    DCD    1058341380
        0x00005508:    bf5064af    .dP.    DCD    3209716911
        0x0000550c:    3f14b039    9..?    DCD    1058320441
        0x00005510:    bf509f03    ..P.    DCD    3209731843
        0x00005514:    3f145e58    X^.?    DCD    1058299480
        0x00005518:    bf50d937    7.P.    DCD    3209746743
        0x0000551c:    3f140c5f    _..?    DCD    1058278495
        0x00005520:    bf51134a    J.Q.    DCD    3209761610
        0x00005524:    3f13ba50    P..?    DCD    1058257488
        0x00005528:    bf514d3d    =MQ.    DCD    3209776445
        0x0000552c:    3f13682a    *h.?    DCD    1058236458
        0x00005530:    bf518710    ..Q.    DCD    3209791248
        0x00005534:    3f1315ee    ...?    DCD    1058215406
        0x00005538:    bf51c0c2    ..Q.    DCD    3209806018
        0x0000553c:    3f12c39a    ...?    DCD    1058194330
        0x00005540:    bf51fa54    T.Q.    DCD    3209820756
        0x00005544:    3f127130    0q.?    DCD    1058173232
        0x00005548:    bf5233c6    .3R.    DCD    3209835462
        0x0000554c:    3f121eb0    ...?    DCD    1058152112
        0x00005550:    bf526d18    .mR.    DCD    3209850136
        0x00005554:    3f11cc19    ...?    DCD    1058130969
        0x00005558:    bf52a649    I.R.    DCD    3209864777
        0x0000555c:    3f11796b    ky.?    DCD    1058109803
        0x00005560:    bf52df59    Y.R.    DCD    3209879385
        0x00005564:    3f1126a7    .&.?    DCD    1058088615
        0x00005568:    bf531849    I.S.    DCD    3209893961
        0x0000556c:    3f10d3cd    ...?    DCD    1058067405
        0x00005570:    bf535118    .QS.    DCD    3209908504
        0x00005574:    3f1080dc    ...?    DCD    1058046172
        0x00005578:    bf5389c7    ..S.    DCD    3209923015
        0x0000557c:    3f102dd5    .-.?    DCD    1058024917
        0x00005580:    bf53c255    U.S.    DCD    3209937493
        0x00005584:    3f0fdab8    ...?    DCD    1058003640
        0x00005588:    bf53fac3    ..S.    DCD    3209951939
        0x0000558c:    3f0f8784    ...?    DCD    1057982340
        0x00005590:    bf54330f    .3T.    DCD    3209966351
        0x00005594:    3f0f343b    ;4.?    DCD    1057961019
        0x00005598:    bf546b3b    ;kT.    DCD    3209980731
        0x0000559c:    3f0ee0db    ...?    DCD    1057939675
        0x000055a0:    bf54a347    G.T.    DCD    3209995079
        0x000055a4:    3f0e8d65    e..?    DCD    1057918309
        0x000055a8:    bf54db31    1.T.    DCD    3210009393
        0x000055ac:    3f0e39da    .9.?    DCD    1057896922
        0x000055b0:    bf5512fb    ..U.    DCD    3210023675
        0x000055b4:    3f0de638    8..?    DCD    1057875512
        0x000055b8:    bf554aa4    .JU.    DCD    3210037924
        0x000055bc:    3f0d9281    ...?    DCD    1057854081
        0x000055c0:    bf55822c    ,.U.    DCD    3210052140
        0x000055c4:    3f0d3eb3    .>.?    DCD    1057832627
        0x000055c8:    bf55b993    ..U.    DCD    3210066323
        0x000055cc:    3f0cead0    ...?    DCD    1057811152
        0x000055d0:    bf55f0d9    ..U.    DCD    3210080473
        0x000055d4:    3f0c96d7    ...?    DCD    1057789655
        0x000055d8:    bf5627fe    .'V.    DCD    3210094590
        0x000055dc:    3f0c42c9    .B.?    DCD    1057768137
        0x000055e0:    bf565f02    ._V.    DCD    3210108674
        0x000055e4:    3f0beea5    ...?    DCD    1057746597
        0x000055e8:    bf5695e5    ..V.    DCD    3210122725
        0x000055ec:    3f0b9a6b    k..?    DCD    1057725035
        0x000055f0:    bf56cca7    ..V.    DCD    3210136743
        0x000055f4:    3f0b461c    .F.?    DCD    1057703452
        0x000055f8:    bf570348    H.W.    DCD    3210150728
        0x000055fc:    3f0af1b7    ...?    DCD    1057681847
        0x00005600:    bf5739c7    .9W.    DCD    3210164679
        0x00005604:    3f0a9d3d    =..?    DCD    1057660221
        0x00005608:    bf577026    &pW.    DCD    3210178598
        0x0000560c:    3f0a48ad    .H.?    DCD    1057638573
        0x00005610:    bf57a663    c.W.    DCD    3210192483
        0x00005614:    3f09f409    ...?    DCD    1057616905
        0x00005618:    bf57dc7f    ..W.    DCD    3210206335
        0x0000561c:    3f099f4e    N..?    DCD    1057595214
        0x00005620:    bf581279    y.X.    DCD    3210220153
        0x00005624:    3f094a7f    .J.?    DCD    1057573503
        0x00005628:    bf584853    SHX.    DCD    3210233939
        0x0000562c:    3f08f59b    ...?    DCD    1057551771
        0x00005630:    bf587e0b    .~X.    DCD    3210247691
        0x00005634:    3f08a0a1    ...?    DCD    1057530017
        0x00005638:    bf58b3a1    ..X.    DCD    3210261409
        0x0000563c:    3f084b92    .K.?    DCD    1057508242
        0x00005640:    bf58e917    ..X.    DCD    3210275095
        0x00005644:    3f07f66f    o..?    DCD    1057486447
        0x00005648:    bf591e6a    j.Y.    DCD    3210288746
        0x0000564c:    3f07a136    6..?    DCD    1057464630
        0x00005650:    bf59539c    .SY.    DCD    3210302364
        0x00005654:    3f074be8    .K.?    DCD    1057442792
        0x00005658:    bf5988ad    ..Y.    DCD    3210315949
        0x0000565c:    3f06f686    ...?    DCD    1057420934
        0x00005660:    bf59bd9c    ..Y.    DCD    3210329500
        0x00005664:    3f06a10e    ...?    DCD    1057399054
        0x00005668:    bf59f26a    j.Y.    DCD    3210343018
        0x0000566c:    3f064b82    .K.?    DCD    1057377154
        0x00005670:    bf5a2716    .'Z.    DCD    3210356502
        0x00005674:    3f05f5e2    ...?    DCD    1057355234
        0x00005678:    bf5a5ba0    .[Z.    DCD    3210369952
        0x0000567c:    3f05a02c    ,..?    DCD    1057333292
        0x00005680:    bf5a9009    ..Z.    DCD    3210383369
        0x00005684:    3f054a62    bJ.?    DCD    1057311330
        0x00005688:    bf5ac450    P.Z.    DCD    3210396752
        0x0000568c:    3f04f484    ...?    DCD    1057289348
        0x00005690:    bf5af875    u.Z.    DCD    3210410101
        0x00005694:    3f049e91    ...?    DCD    1057267345
        0x00005698:    bf5b2c79    y,[.    DCD    3210423417
        0x0000569c:    3f044889    .H.?    DCD    1057245321
        0x000056a0:    bf5b605a    Z`[.    DCD    3210436698
        0x000056a4:    3f03f26d    m..?    DCD    1057223277
        0x000056a8:    bf5b941a    ..[.    DCD    3210449946
        0x000056ac:    3f039c3d    =..?    DCD    1057201213
        0x000056b0:    bf5bc7b8    ..[.    DCD    3210463160
        0x000056b4:    3f0345f8    .E.?    DCD    1057179128
        0x000056b8:    bf5bfb34    4.[.    DCD    3210476340
        0x000056bc:    3f02ef9f    ...?    DCD    1057157023
        0x000056c0:    bf5c2e8e    ..\.    DCD    3210489486
        0x000056c4:    3f029932    2..?    DCD    1057134898
        0x000056c8:    bf5c61c7    .a\.    DCD    3210502599
        0x000056cc:    3f0242b1    .B.?    DCD    1057112753
        0x000056d0:    bf5c94dd    ..\.    DCD    3210515677
        0x000056d4:    3f01ec1c    ...?    DCD    1057090588
        0x000056d8:    bf5cc7d1    ..\.    DCD    3210528721
        0x000056dc:    3f019573    s..?    DCD    1057068403
        0x000056e0:    bf5cfaa3    ..\.    DCD    3210541731
        0x000056e4:    3f013eb5    .>.?    DCD    1057046197
        0x000056e8:    bf5d2d53    S-].    DCD    3210554707
        0x000056ec:    3f00e7e4    ...?    DCD    1057023972
        0x000056f0:    bf5d5fe1    ._].    DCD    3210567649
        0x000056f4:    3f0090ff    ...?    DCD    1057001727
        0x000056f8:    bf5d924d    M.].    DCD    3210580557
        0x000056fc:    3f003a06    .:.?    DCD    1056979462
        0x00005700:    bf5dc497    ..].    DCD    3210593431
        0x00005704:    3effc5f3    ...>    DCD    1056949747
        0x00005708:    bf5df6be    ..].    DCD    3210606270
        0x0000570c:    3eff17b2    ...>    DCD    1056905138
        0x00005710:    bf5e28c3    .(^.    DCD    3210619075
        0x00005714:    3efe694a    Ji.>    DCD    1056860490
        0x00005718:    bf5e5aa6    .Z^.    DCD    3210631846
        0x0000571c:    3efdbabb    ...>    DCD    1056815803
        0x00005720:    bf5e8c67    g.^.    DCD    3210644583
        0x00005724:    3efd0c04    ...>    DCD    1056771076
        0x00005728:    bf5ebe05    ..^.    DCD    3210657285
        0x0000572c:    3efc5d27    '].>    DCD    1056726311
        0x00005730:    bf5eef81    ..^.    DCD    3210669953
        0x00005734:    3efbae22    "..>    DCD    1056681506
        0x00005738:    bf5f20db    . _.    DCD    3210682587
        0x0000573c:    3efafef7    ...>    DCD    1056636663
        0x00005740:    bf5f5212    .R_.    DCD    3210695186
        0x00005744:    3efa4fa5    .O.>    DCD    1056591781
        0x00005748:    bf5f8327    '._.    DCD    3210707751
        0x0000574c:    3ef9a02d    -..>    DCD    1056546861
        0x00005750:    bf5fb419    .._.    DCD    3210720281
        0x00005754:    3ef8f08e    ...>    DCD    1056501902
        0x00005758:    bf5fe4e9    .._.    DCD    3210732777
        0x0000575c:    3ef840c8    .@.>    DCD    1056456904
        0x00005760:    bf601596    ..`.    DCD    3210745238
        0x00005764:    3ef790dc    ...>    DCD    1056411868
        0x00005768:    bf604621    !F`.    DCD    3210757665
        0x0000576c:    3ef6e0cb    ...>    DCD    1056366795
        0x00005770:    bf607689    .v`.    DCD    3210770057
        0x00005774:    3ef63093    .0.>    DCD    1056321683
        0x00005778:    bf60a6cf    ..`.    DCD    3210782415
        0x0000577c:    3ef58035    5..>    DCD    1056276533
        0x00005780:    bf60d6f2    ..`.    DCD    3210794738
        0x00005784:    3ef4cfb1    ...>    DCD    1056231345
        0x00005788:    bf6106f2    ..a.    DCD    3210807026
        0x0000578c:    3ef41f07    ...>    DCD    1056186119
        0x00005790:    bf6136d0    .6a.    DCD    3210819280
        0x00005794:    3ef36e38    8n.>    DCD    1056140856
        0x00005798:    bf61668a    .fa.    DCD    3210831498
        0x0000579c:    3ef2bd43    C..>    DCD    1056095555
        0x000057a0:    bf619622    ".a.    DCD    3210843682
        0x000057a4:    3ef20c29    )..>    DCD    1056050217
        0x000057a8:    bf61c598    ..a.    DCD    3210855832
        0x000057ac:    3ef15aea    .Z.>    DCD    1056004842
        0x000057b0:    bf61f4ea    ..a.    DCD    3210867946
        0x000057b4:    3ef0a985    ...>    DCD    1055959429
        0x000057b8:    bf62241a    .$b.    DCD    3210880026
        0x000057bc:    3eeff7fb    ...>    DCD    1055913979
        0x000057c0:    bf625326    &Sb.    DCD    3210892070
        0x000057c4:    3eef464c    LF.>    DCD    1055868492
        0x000057c8:    bf628210    ..b.    DCD    3210904080
        0x000057cc:    3eee9479    y..>    DCD    1055822969
        0x000057d0:    bf62b0d7    ..b.    DCD    3210916055
        0x000057d4:    3eede280    ...>    DCD    1055777408
        0x000057d8:    bf62df7b    {.b.    DCD    3210927995
        0x000057dc:    3eed3063    c0.>    DCD    1055731811
        0x000057e0:    bf630dfc    ..c.    DCD    3210939900
        0x000057e4:    3eec7e21    !~.>    DCD    1055686177
        0x000057e8:    bf633c5a    Z<c.    DCD    3210951770
        0x000057ec:    3eebcbbb    ...>    DCD    1055640507
        0x000057f0:    bf636a95    .jc.    DCD    3210963605
        0x000057f4:    3eeb1930    0..>    DCD    1055594800
        0x000057f8:    bf6398ac    ..c.    DCD    3210975404
        0x000057fc:    3eea6681    .f.>    DCD    1055549057
        0x00005800:    bf63c6a1    ..c.    DCD    3210987169
        0x00005804:    3ee9b3ae    ...>    DCD    1055503278
        0x00005808:    bf63f473    s.c.    DCD    3210998899
        0x0000580c:    3ee900b7    ...>    DCD    1055457463
        0x00005810:    bf642221    !"d.    DCD    3211010593
        0x00005814:    3ee84d9c    .M.>    DCD    1055411612
        0x00005818:    bf644fac    .Od.    DCD    3211022252
        0x0000581c:    3ee79a5d    ]..>    DCD    1055365725
        0x00005820:    bf647d14    .}d.    DCD    3211033876
        0x00005824:    3ee6e6fb    ...>    DCD    1055319803
        0x00005828:    bf64aa59    Y.d.    DCD    3211045465
        0x0000582c:    3ee63375    u3.>    DCD    1055273845
        0x00005830:    bf64d77b    {.d.    DCD    3211057019
        0x00005834:    3ee57fcb    ...>    DCD    1055227851
        0x00005838:    bf650479    y.e.    DCD    3211068537
        0x0000583c:    3ee4cbfe    ...>    DCD    1055181822
        0x00005840:    bf653154    T1e.    DCD    3211080020
        0x00005844:    3ee4180e    ...>    DCD    1055135758
        0x00005848:    bf655e0b    .^e.    DCD    3211091467
        0x0000584c:    3ee363fa    .c.>    DCD    1055089658
        0x00005850:    bf658aa0    ..e.    DCD    3211102880
        0x00005854:    3ee2afc4    ...>    DCD    1055043524
        0x00005858:    bf65b710    ..e.    DCD    3211114256
        0x0000585c:    3ee1fb6a    j..>    DCD    1054997354
        0x00005860:    bf65e35e    ^.e.    DCD    3211125598
        0x00005864:    3ee146ee    .F.>    DCD    1054951150
        0x00005868:    bf660f88    ..f.    DCD    3211136904
        0x0000586c:    3ee0924f    O..>    DCD    1054904911
        0x00005870:    bf663b8e    .;f.    DCD    3211148174
        0x00005874:    3edfdd8d    ...>    DCD    1054858637
        0x00005878:    bf666771    qgf.    DCD    3211159409
        0x0000587c:    3edf28a9    .(.>    DCD    1054812329
        0x00005880:    bf669330    0.f.    DCD    3211170608
        0x00005884:    3ede73a2    .s.>    DCD    1054765986
        0x00005888:    bf66becc    ..f.    DCD    3211181772
        0x0000588c:    3eddbe79    y..>    DCD    1054719609
        0x00005890:    bf66ea45    E.f.    DCD    3211192901
        0x00005894:    3edd092e    ...>    DCD    1054673198
        0x00005898:    bf671599    ..g.    DCD    3211203993
        0x0000589c:    3edc53c1    .S.>    DCD    1054626753
        0x000058a0:    bf6740ca    .@g.    DCD    3211215050
        0x000058a4:    3edb9e31    1..>    DCD    1054580273
        0x000058a8:    bf676bd8    .kg.    DCD    3211226072
        0x000058ac:    3edae880    ...>    DCD    1054533760
        0x000058b0:    bf6796c1    ..g.    DCD    3211237057
        0x000058b4:    3eda32ad    .2.>    DCD    1054487213
        0x000058b8:    bf67c187    ..g.    DCD    3211248007
        0x000058bc:    3ed97cb9    .|.>    DCD    1054440633
        0x000058c0:    bf67ec2a    *.g.    DCD    3211258922
        0x000058c4:    3ed8c6a3    ...>    DCD    1054394019
        0x000058c8:    bf6816a8    ..h.    DCD    3211269800
        0x000058cc:    3ed8106b    k..>    DCD    1054347371
        0x000058d0:    bf684103    .Ah.    DCD    3211280643
        0x000058d4:    3ed75a13    .Z.>    DCD    1054300691
        0x000058d8:    bf686b39    9kh.    DCD    3211291449
        0x000058dc:    3ed6a399    ...>    DCD    1054253977
        0x000058e0:    bf68954c    L.h.    DCD    3211302220
        0x000058e4:    3ed5ecfd    ...>    DCD    1054207229
        0x000058e8:    bf68bf3c    <.h.    DCD    3211312956
        0x000058ec:    3ed53641    A6.>    DCD    1054160449
        0x000058f0:    bf68e907    ..h.    DCD    3211323655
        0x000058f4:    3ed47f64    d..>    DCD    1054113636
        0x000058f8:    bf6912ae    ..i.    DCD    3211334318
        0x000058fc:    3ed3c867    g..>    DCD    1054066791
        0x00005900:    bf693c32    2<i.    DCD    3211344946
        0x00005904:    3ed31148    H..>    DCD    1054019912
        0x00005908:    bf696591    .ei.    DCD    3211355537
        0x0000590c:    3ed25a09    .Z.>    DCD    1053973001
        0x00005910:    bf698ecc    ..i.    DCD    3211366092
        0x00005914:    3ed1a2aa    ...>    DCD    1053926058
        0x00005918:    bf69b7e4    ..i.    DCD    3211376612
        0x0000591c:    3ed0eb2a    *..>    DCD    1053879082
        0x00005920:    bf69e0d7    ..i.    DCD    3211387095
        0x00005924:    3ed0338a    .3.>    DCD    1053832074
        0x00005928:    bf6a09a7    ..j.    DCD    3211397543
        0x0000592c:    3ecf7bca    .{.>    DCD    1053785034
        0x00005930:    bf6a3252    R2j.    DCD    3211407954
        0x00005934:    3ecec3ea    ...>    DCD    1053737962
        0x00005938:    bf6a5ad9    .Zj.    DCD    3211418329
        0x0000593c:    3ece0bea    ...>    DCD    1053690858
        0x00005940:    bf6a833c    <.j.    DCD    3211428668
        0x00005944:    3ecd53ca    .S.>    DCD    1053643722
        0x00005948:    bf6aab7b    {.j.    DCD    3211438971
        0x0000594c:    3ecc9b8b    ...>    DCD    1053596555
        0x00005950:    bf6ad395    ..j.    DCD    3211449237
        0x00005954:    3ecbe32c    ,..>    DCD    1053549356
        0x00005958:    bf6afb8c    ..j.    DCD    3211459468
        0x0000595c:    3ecb2aae    .*.>    DCD    1053502126
        0x00005960:    bf6b235e    ^#k.    DCD    3211469662
        0x00005964:    3eca7210    .r.>    DCD    1053454864
        0x00005968:    bf6b4b0c    .Kk.    DCD    3211479820
        0x0000596c:    3ec9b953    S..>    DCD    1053407571
        0x00005970:    bf6b7295    .rk.    DCD    3211489941
        0x00005974:    3ec90077    w..>    DCD    1053360247
        0x00005978:    bf6b99fb    ..k.    DCD    3211500027
        0x0000597c:    3ec8477c    |G.>    DCD    1053312892
        0x00005980:    bf6bc13b    ;.k.    DCD    3211510075
        0x00005984:    3ec78e62    b..>    DCD    1053265506
        0x00005988:    bf6be858    X.k.    DCD    3211520088
        0x0000598c:    3ec6d529    )..>    DCD    1053218089
        0x00005990:    bf6c0f50    P.l.    DCD    3211530064
        0x00005994:    3ec61bd2    ...>    DCD    1053170642
        0x00005998:    bf6c3624    $6l.    DCD    3211540004
        0x0000599c:    3ec5625c    \b.>    DCD    1053123164
        0x000059a0:    bf6c5cd4    .\l.    DCD    3211549908
        0x000059a4:    3ec4a8c8    ...>    DCD    1053075656
        0x000059a8:    bf6c835e    ^.l.    DCD    3211559774
        0x000059ac:    3ec3ef15    ...>    DCD    1053028117
        0x000059b0:    bf6ca9c5    ..l.    DCD    3211569605
        0x000059b4:    3ec33544    D5.>    DCD    1052980548
        0x000059b8:    bf6cd007    ..l.    DCD    3211579399
        0x000059bc:    3ec27b55    U{.>    DCD    1052932949
        0x000059c0:    bf6cf624    $.l.    DCD    3211589156
        0x000059c4:    3ec1c148    H..>    DCD    1052885320
        0x000059c8:    bf6d1c1d    ..m.    DCD    3211598877
        0x000059cc:    3ec1071e    ...>    DCD    1052837662
        0x000059d0:    bf6d41f2    .Am.    DCD    3211608562
        0x000059d4:    3ec04cd5    .L.>    DCD    1052789973
        0x000059d8:    bf6d67a1    .gm.    DCD    3211618209
        0x000059dc:    3ebf926f    o..>    DCD    1052742255
        0x000059e0:    bf6d8d2d    -.m.    DCD    3211627821
        0x000059e4:    3ebed7eb    ...>    DCD    1052694507
        0x000059e8:    bf6db293    ..m.    DCD    3211637395
        0x000059ec:    3ebe1d4a    J..>    DCD    1052646730
        0x000059f0:    bf6dd7d5    ..m.    DCD    3211646933
        0x000059f4:    3ebd628b    .b.>    DCD    1052598923
        0x000059f8:    bf6dfcf2    ..m.    DCD    3211656434
        0x000059fc:    3ebca7af    ...>    DCD    1052551087
        0x00005a00:    bf6e21eb    .!n.    DCD    3211665899
        0x00005a04:    3ebbecb6    ...>    DCD    1052503222
        0x00005a08:    bf6e46be    .Fn.    DCD    3211675326
        0x00005a0c:    3ebb31a0    .1.>    DCD    1052455328
        0x00005a10:    bf6e6b6d    mkn.    DCD    3211684717
        0x00005a14:    3eba766e    nv.>    DCD    1052407406
        0x00005a18:    bf6e8ff8    ..n.    DCD    3211694072
        0x00005a1c:    3eb9bb1e    ...>    DCD    1052359454
        0x00005a20:    bf6eb45d    ].n.    DCD    3211703389
        0x00005a24:    3eb8ffb2    ...>    DCD    1052311474
        0x00005a28:    bf6ed89e    ..n.    DCD    3211712670
        0x00005a2c:    3eb8442a    *D.>    DCD    1052263466
        0x00005a30:    bf6efcba    ..n.    DCD    3211721914
        0x00005a34:    3eb78884    ...>    DCD    1052215428
        0x00005a38:    bf6f20b0    . o.    DCD    3211731120
        0x00005a3c:    3eb6ccc3    ...>    DCD    1052167363
        0x00005a40:    bf6f4483    .Do.    DCD    3211740291
        0x00005a44:    3eb610e6    ...>    DCD    1052119270
        0x00005a48:    bf6f6830    0ho.    DCD    3211749424
        0x00005a4c:    3eb554ec    .T.>    DCD    1052071148
        0x00005a50:    bf6f8bb8    ..o.    DCD    3211758520
        0x00005a54:    3eb498d6    ...>    DCD    1052022998
        0x00005a58:    bf6faf1b    ..o.    DCD    3211767579
        0x00005a5c:    3eb3dca5    ...>    DCD    1051974821
        0x00005a60:    bf6fd25a    Z.o.    DCD    3211776602
        0x00005a64:    3eb32058    X .>    DCD    1051926616
        0x00005a68:    bf6ff573    s.o.    DCD    3211785587
        0x00005a6c:    3eb263ef    .c.>    DCD    1051878383
        0x00005a70:    bf701867    g.p.    DCD    3211794535
        0x00005a74:    3eb1a76b    k..>    DCD    1051830123
        0x00005a78:    bf703b37    7;p.    DCD    3211803447
        0x00005a7c:    3eb0eacb    ...>    DCD    1051781835
        0x00005a80:    bf705de1    .]p.    DCD    3211812321
        0x00005a84:    3eb02e10    ...>    DCD    1051733520
        0x00005a88:    bf708066    f.p.    DCD    3211821158
        0x00005a8c:    3eaf713a    :q.>    DCD    1051685178
        0x00005a90:    bf70a2c6    ..p.    DCD    3211829958
        0x00005a94:    3eaeb449    I..>    DCD    1051636809
        0x00005a98:    bf70c502    ..p.    DCD    3211838722
        0x00005a9c:    3eadf73c    <..>    DCD    1051588412
        0x00005aa0:    bf70e717    ..p.    DCD    3211847447
        0x00005aa4:    3ead3a15    .:.>    DCD    1051539989
        0x00005aa8:    bf710908    ..q.    DCD    3211856136
        0x00005aac:    3eac7cd4    .|.>    DCD    1051491540
        0x00005ab0:    bf712ad4    .*q.    DCD    3211864788
        0x00005ab4:    3eabbf77    w..>    DCD    1051443063
        0x00005ab8:    bf714c7a    zLq.    DCD    3211873402
        0x00005abc:    3eab0201    ...>    DCD    1051394561
        0x00005ac0:    bf716dfb    .mq.    DCD    3211881979
        0x00005ac4:    3eaa446f    oD.>    DCD    1051346031
        0x00005ac8:    bf718f57    W.q.    DCD    3211890519
        0x00005acc:    3ea986c4    ...>    DCD    1051297476
        0x00005ad0:    bf71b08e    ..q.    DCD    3211899022
        0x00005ad4:    3ea8c8fe    ...>    DCD    1051248894
        0x00005ad8:    bf71d19f    ..q.    DCD    3211907487
        0x00005adc:    3ea80b1f    ...>    DCD    1051200287
        0x00005ae0:    bf71f28c    ..q.    DCD    3211915916
        0x00005ae4:    3ea74d25    %M.>    DCD    1051151653
        0x00005ae8:    bf721352    R.r.    DCD    3211924306
        0x00005aec:    3ea68f12    ...>    DCD    1051102994
        0x00005af0:    bf7233f4    .3r.    DCD    3211932660
        0x00005af4:    3ea5d0e5    ...>    DCD    1051054309
        0x00005af8:    bf725470    pTr.    DCD    3211940976
        0x00005afc:    3ea5129f    ...>    DCD    1051005599
        0x00005b00:    bf7274c7    .tr.    DCD    3211949255
        0x00005b04:    3ea4543f    ?T.>    DCD    1050956863
        0x00005b08:    bf7294f8    ..r.    DCD    3211957496
        0x00005b0c:    3ea395c5    ...>    DCD    1050908101
        0x00005b10:    bf72b504    ..r.    DCD    3211965700
        0x00005b14:    3ea2d733    3..>    DCD    1050859315
        0x00005b18:    bf72d4eb    ..r.    DCD    3211973867
        0x00005b1c:    3ea21887    ...>    DCD    1050810503
        0x00005b20:    bf72f4ac    ..r.    DCD    3211981996
        0x00005b24:    3ea159c2    .Y.>    DCD    1050761666
        0x00005b28:    bf731447    G.s.    DCD    3211990087
        0x00005b2c:    3ea09ae5    ...>    DCD    1050712805
        0x00005b30:    bf7333be    .3s.    DCD    3211998142
        0x00005b34:    3e9fdbee    ...>    DCD    1050663918
        0x00005b38:    bf73530e    .Ss.    DCD    3212006158
        0x00005b3c:    3e9f1cdf    ...>    DCD    1050615007
        0x00005b40:    bf737239    9rs.    DCD    3212014137
        0x00005b44:    3e9e5db8    .].>    DCD    1050566072
        0x00005b48:    bf73913f    ?.s.    DCD    3212022079
        0x00005b4c:    3e9d9e78    x..>    DCD    1050517112
        0x00005b50:    bf73b01f    ..s.    DCD    3212029983
        0x00005b54:    3e9cdf20     ..>    DCD    1050468128
        0x00005b58:    bf73ced9    ..s.    DCD    3212037849
        0x00005b5c:    3e9c1faf    ...>    DCD    1050419119
        0x00005b60:    bf73ed6e    n.s.    DCD    3212045678
        0x00005b64:    3e9b6027    '`.>    DCD    1050370087
        0x00005b68:    bf740bdd    ..t.    DCD    3212053469
        0x00005b6c:    3e9aa086    ...>    DCD    1050321030
        0x00005b70:    bf742a27    '*t.    DCD    3212061223
        0x00005b74:    3e99e0ce    ...>    DCD    1050271950
        0x00005b78:    bf74484b    KHt.    DCD    3212068939
        0x00005b7c:    3e9920fe    . .>    DCD    1050222846
        0x00005b80:    bf746649    Ift.    DCD    3212076617
        0x00005b84:    3e986116    .a.>    DCD    1050173718
        0x00005b88:    bf748422    ".t.    DCD    3212084258
        0x00005b8c:    3e97a117    ...>    DCD    1050124567
        0x00005b90:    bf74a1d5    ..t.    DCD    3212091861
        0x00005b94:    3e96e100    ...>    DCD    1050075392
        0x00005b98:    bf74bf62    b.t.    DCD    3212099426
        0x00005b9c:    3e9620d2    . .>    DCD    1050026194
        0x00005ba0:    bf74dcc9    ..t.    DCD    3212106953
        0x00005ba4:    3e95608d    .`.>    DCD    1049976973
        0x00005ba8:    bf74fa0b    ..t.    DCD    3212114443
        0x00005bac:    3e94a031    1..>    DCD    1049927729
        0x00005bb0:    bf751727    '.u.    DCD    3212121895
        0x00005bb4:    3e93dfbf    ...>    DCD    1049878463
        0x00005bb8:    bf75341d    .4u.    DCD    3212129309
        0x00005bbc:    3e931f35    5..>    DCD    1049829173
        0x00005bc0:    bf7550ed    .Pu.    DCD    3212136685
        0x00005bc4:    3e925e94    .^.>    DCD    1049779860
        0x00005bc8:    bf756d97    .mu.    DCD    3212144023
        0x00005bcc:    3e919ddd    ...>    DCD    1049730525
        0x00005bd0:    bf758a1c    ..u.    DCD    3212151324
        0x00005bd4:    3e90dd10    ...>    DCD    1049681168
        0x00005bd8:    bf75a67b    {.u.    DCD    3212158587
        0x00005bdc:    3e901c2c    ,..>    DCD    1049631788
        0x00005be0:    bf75c2b3    ..u.    DCD    3212165811
        0x00005be4:    3e8f5b32    2[.>    DCD    1049582386
        0x00005be8:    bf75dec6    ..u.    DCD    3212172998
        0x00005bec:    3e8e9a22    "..>    DCD    1049532962
        0x00005bf0:    bf75fab3    ..u.    DCD    3212180147
        0x00005bf4:    3e8dd8fc    ...>    DCD    1049483516
        0x00005bf8:    bf76167a    z.v.    DCD    3212187258
        0x00005bfc:    3e8d17c0    ...>    DCD    1049434048
        0x00005c00:    bf76321b    .2v.    DCD    3212194331
        0x00005c04:    3e8c566e    nV.>    DCD    1049384558
        0x00005c08:    bf764d97    .Mv.    DCD    3212201367
        0x00005c0c:    3e8b9507    ...>    DCD    1049335047
        0x00005c10:    bf7668ec    .hv.    DCD    3212208364
        0x00005c14:    3e8ad38a    ...>    DCD    1049285514
        0x00005c18:    bf76841b    ..v.    DCD    3212215323
        0x00005c1c:    3e8a11f8    ...>    DCD    1049235960
        0x00005c20:    bf769f24    $.v.    DCD    3212222244
        0x00005c24:    3e895050    PP.>    DCD    1049186384
        0x00005c28:    bf76ba07    ..v.    DCD    3212229127
        0x00005c2c:    3e888e93    ...>    DCD    1049136787
        0x00005c30:    bf76d4c4    ..v.    DCD    3212235972
        0x00005c34:    3e87ccc1    ...>    DCD    1049087169
        0x00005c38:    bf76ef5b    [.v.    DCD    3212242779
        0x00005c3c:    3e870ada    ...>    DCD    1049037530
        0x00005c40:    bf7709cc    ..w.    DCD    3212249548
        0x00005c44:    3e8648df    .H.>    DCD    1048987871
        0x00005c48:    bf772417    .$w.    DCD    3212256279
        0x00005c4c:    3e8586ce    ...>    DCD    1048938190
        0x00005c50:    bf773e3c    <>w.    DCD    3212262972
        0x00005c54:    3e84c4aa    ...>    DCD    1048888490
        0x00005c58:    bf77583a    :Xw.    DCD    3212269626
        0x00005c5c:    3e840270    p..>    DCD    1048838768
        0x00005c60:    bf777213    .rw.    DCD    3212276243
        0x00005c64:    3e834022    "@.>    DCD    1048789026
        0x00005c68:    bf778bc5    ..w.    DCD    3212282821
        0x00005c6c:    3e827dc0    .}.>    DCD    1048739264
        0x00005c70:    bf77a551    Q.w.    DCD    3212289361
        0x00005c74:    3e81bb4a    J..>    DCD    1048689482
        0x00005c78:    bf77beb7    ..w.    DCD    3212295863
        0x00005c7c:    3e80f8c0    ...>    DCD    1048639680
        0x00005c80:    bf77d7f7    ..w.    DCD    3212302327
        0x00005c84:    3e803622    "6.>    DCD    1048589858
        0x00005c88:    bf77f110    ..w.    DCD    3212308752
        0x00005c8c:    3e7ee6e1    ..~>    DCD    1048504033
        0x00005c90:    bf780a04    ..x.    DCD    3212315140
        0x00005c94:    3e7d6156    Va}>    DCD    1048404310
        0x00005c98:    bf7822d1    ."x.    DCD    3212321489
        0x00005c9c:    3e7bdba4    ..{>    DCD    1048304548
        0x00005ca0:    bf783b77    w;x.    DCD    3212327799
        0x00005ca4:    3e7a55cb    .Uz>    DCD    1048204747
        0x00005ca8:    bf7853f8    .Sx.    DCD    3212334072
        0x00005cac:    3e78cfcc    ..x>    DCD    1048104908
        0x00005cb0:    bf786c52    Rlx.    DCD    3212340306
        0x00005cb4:    3e7749a6    .Iw>    DCD    1048005030
        0x00005cb8:    bf788486    ..x.    DCD    3212346502
        0x00005cbc:    3e75c35a    Z.u>    DCD    1047905114
        0x00005cc0:    bf789c93    ..x.    DCD    3212352659
        0x00005cc4:    3e743ce8    .<t>    DCD    1047805160
        0x00005cc8:    bf78b47b    {.x.    DCD    3212358779
        0x00005ccc:    3e72b651    Q.r>    DCD    1047705169
        0x00005cd0:    bf78cc3b    ;.x.    DCD    3212364859
        0x00005cd4:    3e712f94    ./q>    DCD    1047605140
        0x00005cd8:    bf78e3d6    ..x.    DCD    3212370902
        0x00005cdc:    3e6fa8b2    ..o>    DCD    1047505074
        0x00005ce0:    bf78fb4a    J.x.    DCD    3212376906
        0x00005ce4:    3e6e21ab    .!n>    DCD    1047404971
        0x00005ce8:    bf791298    ..y.    DCD    3212382872
        0x00005cec:    3e6c9a7f    ..l>    DCD    1047304831
        0x00005cf0:    bf7929bf    .)y.    DCD    3212388799
        0x00005cf4:    3e6b132f    /.k>    DCD    1047204655
        0x00005cf8:    bf7940c0    .@y.    DCD    3212394688
        0x00005cfc:    3e698bba    ..i>    DCD    1047104442
        0x00005d00:    bf79579a    .Wy.    DCD    3212400538
        0x00005d04:    3e680422    ".h>    DCD    1047004194
        0x00005d08:    bf796e4e    Nny.    DCD    3212406350
        0x00005d0c:    3e667c66    f|f>    DCD    1046903910
        0x00005d10:    bf7984dc    ..y.    DCD    3212412124
        0x00005d14:    3e64f486    ..d>    DCD    1046803590
        0x00005d18:    bf799b43    C.y.    DCD    3212417859
        0x00005d1c:    3e636c83    .lc>    DCD    1046703235
        0x00005d20:    bf79b183    ..y.    DCD    3212423555
        0x00005d24:    3e61e45c    \.a>    DCD    1046602844
        0x00005d28:    bf79c79d    ..y.    DCD    3212429213
        0x00005d2c:    3e605c13    .\`>    DCD    1046502419
        0x00005d30:    bf79dd91    ..y.    DCD    3212434833
        0x00005d34:    3e5ed3a8    ..^>    DCD    1046401960
        0x00005d38:    bf79f35e    ^.y.    DCD    3212440414
        0x00005d3c:    3e5d4b1a    .K]>    DCD    1046301466
        0x00005d40:    bf7a0904    ..z.    DCD    3212445956
        0x00005d44:    3e5bc26a    j.[>    DCD    1046200938
        0x00005d48:    bf7a1e84    ..z.    DCD    3212451460
        0x00005d4c:    3e5a3997    .9Z>    DCD    1046100375
        0x00005d50:    bf7a33dd    .3z.    DCD    3212456925
        0x00005d54:    3e58b0a4    ..X>    DCD    1045999780
        0x00005d58:    bf7a4910    .Iz.    DCD    3212462352
        0x00005d5c:    3e57278f    .'W>    DCD    1045899151
        0x00005d60:    bf7a5e1c    .^z.    DCD    3212467740
        0x00005d64:    3e559e58    X.U>    DCD    1045798488
        0x00005d68:    bf7a7302    .sz.    DCD    3212473090
        0x00005d6c:    3e541501    ..T>    DCD    1045697793
        0x00005d70:    bf7a87c1    ..z.    DCD    3212478401
        0x00005d74:    3e528b89    ..R>    DCD    1045597065
        0x00005d78:    bf7a9c59    Y.z.    DCD    3212483673
        0x00005d7c:    3e5101f1    ..Q>    DCD    1045496305
        0x00005d80:    bf7ab0cb    ..z.    DCD    3212488907
        0x00005d84:    3e4f7838    8xO>    DCD    1045395512
        0x00005d88:    bf7ac516    ..z.    DCD    3212494102
        0x00005d8c:    3e4dee60    `.M>    DCD    1045294688
        0x00005d90:    bf7ad93a    :.z.    DCD    3212499258
        0x00005d94:    3e4c6467    gdL>    DCD    1045193831
        0x00005d98:    bf7aed37    7.z.    DCD    3212504375
        0x00005d9c:    3e4ada4f    O.J>    DCD    1045092943
        0x00005da0:    bf7b010e    ..{.    DCD    3212509454
        0x00005da4:    3e495018    .PI>    DCD    1044992024
        0x00005da8:    bf7b14be    ..{.    DCD    3212514494
        0x00005dac:    3e47c5c2    ..G>    DCD    1044891074
        0x00005db0:    bf7b2848    H({.    DCD    3212519496
        0x00005db4:    3e463b4d    M;F>    DCD    1044790093
        0x00005db8:    bf7b3bab    .;{.    DCD    3212524459
        0x00005dbc:    3e44b0b9    ..D>    DCD    1044689081
        0x00005dc0:    bf7b4ee7    .N{.    DCD    3212529383
        0x00005dc4:    3e432607    .&C>    DCD    1044588039
        0x00005dc8:    bf7b61fc    .a{.    DCD    3212534268
        0x00005dcc:    3e419b37    7.A>    DCD    1044486967
        0x00005dd0:    bf7b74ea    .t{.    DCD    3212539114
        0x00005dd4:    3e401049    I.@>    DCD    1044385865
        0x00005dd8:    bf7b87b2    ..{.    DCD    3212543922
        0x00005ddc:    3e3e853e    >.>>    DCD    1044284734
        0x00005de0:    bf7b9a53    S.{.    DCD    3212548691
        0x00005de4:    3e3cfa15    ..<>    DCD    1044183573
        0x00005de8:    bf7baccd    ..{.    DCD    3212553421
        0x00005dec:    3e3b6ecf    .n;>    DCD    1044082383
        0x00005df0:    bf7bbf20     .{.    DCD    3212558112
        0x00005df4:    3e39e36c    l.9>    DCD    1043981164
        0x00005df8:    bf7bd14d    M.{.    DCD    3212562765
        0x00005dfc:    3e3857ec    .W8>    DCD    1043879916
        0x00005e00:    bf7be353    S.{.    DCD    3212567379
        0x00005e04:    3e36cc50    P.6>    DCD    1043778640
        0x00005e08:    bf7bf531    1.{.    DCD    3212571953
        0x00005e0c:    3e354098    .@5>    DCD    1043677336
        0x00005e10:    bf7c06e9    ..|.    DCD    3212576489
        0x00005e14:    3e33b4c4    ..3>    DCD    1043576004
        0x00005e18:    bf7c187a    z.|.    DCD    3212580986
        0x00005e1c:    3e3228d4    .(2>    DCD    1043474644
        0x00005e20:    bf7c29e5    .)|.    DCD    3212585445
        0x00005e24:    3e309cc9    ..0>    DCD    1043373257
        0x00005e28:    bf7c3b28    (;|.    DCD    3212589864
        0x00005e2c:    3e2f10a2    ../>    DCD    1043271842
        0x00005e30:    bf7c4c44    DL|.    DCD    3212594244
        0x00005e34:    3e2d8461    a.->    DCD    1043170401
        0x00005e38:    bf7c5d3a    :]|.    DCD    3212598586
        0x00005e3c:    3e2bf804    ..+>    DCD    1043068932
        0x00005e40:    bf7c6e08    .n|.    DCD    3212602888
        0x00005e44:    3e2a6b8d    .k*>    DCD    1042967437
        0x00005e48:    bf7c7eb0    .~|.    DCD    3212607152
        0x00005e4c:    3e28defc    ..(>    DCD    1042865916
        0x00005e50:    bf7c8f31    1.|.    DCD    3212611377
        0x00005e54:    3e275251    QR'>    DCD    1042764369
        0x00005e58:    bf7c9f8a    ..|.    DCD    3212615562
        0x00005e5c:    3e25c58c    ..%>    DCD    1042662796
        0x00005e60:    bf7cafbd    ..|.    DCD    3212619709
        0x00005e64:    3e2438ad    .8$>    DCD    1042561197
        0x00005e68:    bf7cbfc9    ..|.    DCD    3212623817
        0x00005e6c:    3e22abb6    ..">    DCD    1042459574
        0x00005e70:    bf7ccfae    ..|.    DCD    3212627886
        0x00005e74:    3e211ea5    ..!>    DCD    1042357925
        0x00005e78:    bf7cdf6c    l.|.    DCD    3212631916
        0x00005e7c:    3e1f917b    {..>    DCD    1042256251
        0x00005e80:    bf7cef03    ..|.    DCD    3212635907
        0x00005e84:    3e1e0438    8..>    DCD    1042154552
        0x00005e88:    bf7cfe73    s.|.    DCD    3212639859
        0x00005e8c:    3e1c76de    .v.>    DCD    1042052830
        0x00005e90:    bf7d0dbc    ..}.    DCD    3212643772
        0x00005e94:    3e1ae96b    k..>    DCD    1041951083
        0x00005e98:    bf7d1cdd    ..}.    DCD    3212647645
        0x00005e9c:    3e195be0    .[.>    DCD    1041849312
        0x00005ea0:    bf7d2bd8    .+}.    DCD    3212651480
        0x00005ea4:    3e17ce3d    =..>    DCD    1041747517
        0x00005ea8:    bf7d3aac    .:}.    DCD    3212655276
        0x00005eac:    3e164083    .@.>    DCD    1041645699
        0x00005eb0:    bf7d4959    YI}.    DCD    3212659033
        0x00005eb4:    3e14b2b2    ...>    DCD    1041543858
        0x00005eb8:    bf7d57de    .W}.    DCD    3212662750
        0x00005ebc:    3e1324ca    .$.>    DCD    1041441994
        0x00005ec0:    bf7d663d    =f}.    DCD    3212666429
        0x00005ec4:    3e1196cc    ...>    DCD    1041340108
        0x00005ec8:    bf7d7474    tt}.    DCD    3212670068
        0x00005ecc:    3e1008b7    ...>    DCD    1041238199
        0x00005ed0:    bf7d8285    ..}.    DCD    3212673669
        0x00005ed4:    3e0e7a8b    .z.>    DCD    1041136267
        0x00005ed8:    bf7d906e    n.}.    DCD    3212677230
        0x00005edc:    3e0cec4a    J..>    DCD    1041034314
        0x00005ee0:    bf7d9e30    0.}.    DCD    3212680752
        0x00005ee4:    3e0b5df3    .].>    DCD    1040932339
        0x00005ee8:    bf7dabcc    ..}.    DCD    3212684236
        0x00005eec:    3e09cf86    ...>    DCD    1040830342
        0x00005ef0:    bf7db940    @.}.    DCD    3212687680
        0x00005ef4:    3e084105    .A.>    DCD    1040728325
        0x00005ef8:    bf7dc68c    ..}.    DCD    3212691084
        0x00005efc:    3e06b26e    n..>    DCD    1040626286
        0x00005f00:    bf7dd3b2    ..}.    DCD    3212694450
        0x00005f04:    3e0523c2    .#.>    DCD    1040524226
        0x00005f08:    bf7de0b1    ..}.    DCD    3212697777
        0x00005f0c:    3e039502    ...>    DCD    1040422146
        0x00005f10:    bf7ded88    ..}.    DCD    3212701064
        0x00005f14:    3e02062e    ...>    DCD    1040320046
        0x00005f18:    bf7dfa38    8.}.    DCD    3212704312
        0x00005f1c:    3e007745    Ew.>    DCD    1040217925
        0x00005f20:    bf7e06c2    ..~.    DCD    3212707522
        0x00005f24:    3dfdd092    ...=    DCD    1040044178
        0x00005f28:    bf7e1324    $.~.    DCD    3212710692
        0x00005f2c:    3dfab273    s..=    DCD    1039839859
        0x00005f30:    bf7e1f5e    ^.~.    DCD    3212713822
        0x00005f34:    3df7942c    ,..=    DCD    1039635500
        0x00005f38:    bf7e2b72    r+~.    DCD    3212716914
        0x00005f3c:    3df475c0    .u.=    DCD    1039431104
        0x00005f40:    bf7e375e    ^7~.    DCD    3212719966
        0x00005f44:    3df1572e    .W.=    DCD    1039226670
        0x00005f48:    bf7e4323    #C~.    DCD    3212722979
        0x00005f4c:    3dee3876    v8.=    DCD    1039022198
        0x00005f50:    bf7e4ec1    .N~.    DCD    3212725953
        0x00005f54:    3deb199a    ...=    DCD    1038817690
        0x00005f58:    bf7e5a38    8Z~.    DCD    3212728888
        0x00005f5c:    3de7fa9a    ...=    DCD    1038613146
        0x00005f60:    bf7e6588    .e~.    DCD    3212731784
        0x00005f64:    3de4db76    v..=    DCD    1038408566
        0x00005f68:    bf7e70b0    .p~.    DCD    3212734640
        0x00005f6c:    3de1bc2e    ...=    DCD    1038203950
        0x00005f70:    bf7e7bb1    .{~.    DCD    3212737457
        0x00005f74:    3dde9cc4    ...=    DCD    1037999300
        0x00005f78:    bf7e868b    ..~.    DCD    3212740235
        0x00005f7c:    3ddb7d37    7}.=    DCD    1037794615
        0x00005f80:    bf7e913d    =.~.    DCD    3212742973
        0x00005f84:    3dd85d89    .].=    DCD    1037589897
        0x00005f88:    bf7e9bc9    ..~.    DCD    3212745673
        0x00005f8c:    3dd53db9    .=.=    DCD    1037385145
        0x00005f90:    bf7ea62d    -.~.    DCD    3212748333
        0x00005f94:    3dd21dc8    ...=    DCD    1037180360
        0x00005f98:    bf7eb069    i.~.    DCD    3212750953
        0x00005f9c:    3dcefdb7    ...=    DCD    1036975543
        0x00005fa0:    bf7eba7f    ..~.    DCD    3212753535
        0x00005fa4:    3dcbdd86    ...=    DCD    1036770694
        0x00005fa8:    bf7ec46d    m.~.    DCD    3212756077
        0x00005fac:    3dc8bd36    6..=    DCD    1036565814
        0x00005fb0:    bf7ece34    4.~.    DCD    3212758580
        0x00005fb4:    3dc59cc6    ...=    DCD    1036360902
        0x00005fb8:    bf7ed7d4    ..~.    DCD    3212761044
        0x00005fbc:    3dc27c39    9|.=    DCD    1036155961
        0x00005fc0:    bf7ee14c    L.~.    DCD    3212763468
        0x00005fc4:    3dbf5b8d    .[.=    DCD    1035950989
        0x00005fc8:    bf7eea9d    ..~.    DCD    3212765853
        0x00005fcc:    3dbc3ac3    .:.=    DCD    1035745987
        0x00005fd0:    bf7ef3c7    ..~.    DCD    3212768199
        0x00005fd4:    3db919dd    ...=    DCD    1035540957
        0x00005fd8:    bf7efcc9    ..~.    DCD    3212770505
        0x00005fdc:    3db5f8da    ...=    DCD    1035335898
        0x00005fe0:    bf7f05a4    ....    DCD    3212772772
        0x00005fe4:    3db2d7bb    ...=    DCD    1035130811
        0x00005fe8:    bf7f0e58    X...    DCD    3212775000
        0x00005fec:    3dafb680    ...=    DCD    1034925696
        0x00005ff0:    bf7f16e4    ....    DCD    3212777188
        0x00005ff4:    3dac952b    +..=    DCD    1034720555
        0x00005ff8:    bf7f1f49    I...    DCD    3212779337
        0x00005ffc:    3da973ba    .s.=    DCD    1034515386
        0x00006000:    bf7f2787    .'..    DCD    3212781447
        0x00006004:    3da65230    0R.=    DCD    1034310192
        0x00006008:    bf7f2f9d    ./..    DCD    3212783517
        0x0000600c:    3da3308c    .0.=    DCD    1034104972
        0x00006010:    bf7f378d    .7..    DCD    3212785549
        0x00006014:    3da00ecf    ...=    DCD    1033899727
        0x00006018:    bf7f3f54    T?..    DCD    3212787540
        0x0000601c:    3d9cecf9    ...=    DCD    1033694457
        0x00006020:    bf7f46f4    .F..    DCD    3212789492
        0x00006024:    3d99cb0a    ...=    DCD    1033489162
        0x00006028:    bf7f4e6d    mN..    DCD    3212791405
        0x0000602c:    3d96a905    ...=    DCD    1033283845
        0x00006030:    bf7f55bf    .U..    DCD    3212793279
        0x00006034:    3d9386e7    ...=    DCD    1033078503
        0x00006038:    bf7f5ce9    .\..    DCD    3212795113
        0x0000603c:    3d9064b4    .d.=    DCD    1032873140
        0x00006040:    bf7f63ec    .c..    DCD    3212796908
        0x00006044:    3d8d426a    jB.=    DCD    1032667754
        0x00006048:    bf7f6ac7    .j..    DCD    3212798663
        0x0000604c:    3d8a200a    . .=    DCD    1032462346
        0x00006050:    bf7f717b    {q..    DCD    3212800379
        0x00006054:    3d86fd94    ...=    DCD    1032256916
        0x00006058:    bf7f7808    .x..    DCD    3212802056
        0x0000605c:    3d83db0a    ...=    DCD    1032051466
        0x00006060:    bf7f7e6d    m~..    DCD    3212803693
        0x00006064:    3d80b86c    l..=    DCD    1031845996
        0x00006068:    bf7f84ab    ....    DCD    3212805291
        0x0000606c:    3d7b2b74    t+{=    DCD    1031482228
        0x00006070:    bf7f8ac2    ....    DCD    3212806850
        0x00006074:    3d74e5e9    ..t=    DCD    1031071209
        0x00006078:    bf7f90b1    ....    DCD    3212808369
        0x0000607c:    3d6ea038    8.n=    DCD    1030660152
        0x00006080:    bf7f9678    x...    DCD    3212809848
        0x00006084:    3d685a62    bZh=    DCD    1030249058
        0x00006088:    bf7f9c18    ....    DCD    3212811288
        0x0000608c:    3d621468    h.b=    DCD    1029837928
        0x00006090:    bf7fa191    ....    DCD    3212812689
        0x00006094:    3d5bce4c    L.[=    DCD    1029426764
        0x00006098:    bf7fa6e3    ....    DCD    3212814051
        0x0000609c:    3d55880e    ..U=    DCD    1029015566
        0x000060a0:    bf7fac0d    ....    DCD    3212815373
        0x000060a4:    3d4f41af    .AO=    DCD    1028604335
        0x000060a8:    bf7fb10f    ....    DCD    3212816655
        0x000060ac:    3d48fb2f    /.H=    DCD    1028193071
        0x000060b0:    bf7fb5ea    ....    DCD    3212817898
        0x000060b4:    3d42b491    ..B=    DCD    1027781777
        0x000060b8:    bf7fba9e    ....    DCD    3212819102
        0x000060bc:    3d3c6dd5    .m<=    DCD    1027370453
        0x000060c0:    bf7fbf2a    *...    DCD    3212820266
        0x000060c4:    3d3626fc    .&6=    DCD    1026959100
        0x000060c8:    bf7fc38f    ....    DCD    3212821391
        0x000060cc:    3d2fe007    ../=    DCD    1026547719
        0x000060d0:    bf7fc7cc    ....    DCD    3212822476
        0x000060d4:    3d2998f6    ..)=    DCD    1026136310
        0x000060d8:    bf7fcbe2    ....    DCD    3212823522
        0x000060dc:    3d2351cc    .Q#=    DCD    1025724876
        0x000060e0:    bf7fcfd1    ....    DCD    3212824529
        0x000060e4:    3d1d0a88    ...=    DCD    1025313416
        0x000060e8:    bf7fd398    ....    DCD    3212825496
        0x000060ec:    3d16c32c    ,..=    DCD    1024901932
        0x000060f0:    bf7fd737    7...    DCD    3212826423
        0x000060f4:    3d107bb8    .{.=    DCD    1024490424
        0x000060f8:    bf7fdaaf    ....    DCD    3212827311
        0x000060fc:    3d0a342f    /4.=    DCD    1024078895
        0x00006100:    bf7fde00    ....    DCD    3212828160
        0x00006104:    3d03ec90    ...=    DCD    1023667344
        0x00006108:    bf7fe129    )...    DCD    3212828969
        0x0000610c:    3cfb49b9    .I.<    DCD    1023101369
        0x00006110:    bf7fe42b    +...    DCD    3212829739
        0x00006114:    3ceeba2d    -..<    DCD    1022278189
        0x00006118:    bf7fe705    ....    DCD    3212830469
        0x0000611c:    3ce22a7b    {*.<    DCD    1021454971
        0x00006120:    bf7fe9b8    ....    DCD    3212831160
        0x00006124:    3cd59aa6    ...<    DCD    1020631718
        0x00006128:    bf7fec43    C...    DCD    3212831811
        0x0000612c:    3cc90ab0    ...<    DCD    1019808432
        0x00006130:    bf7feea7    ....    DCD    3212832423
        0x00006134:    3cbc7a9b    .z.<    DCD    1018985115
        0x00006138:    bf7ff0e3    ....    DCD    3212832995
        0x0000613c:    3cafea69    i..<    DCD    1018161769
        0x00006140:    bf7ff2f8    ....    DCD    3212833528
        0x00006144:    3ca35a1c    .Z.<    DCD    1017338396
        0x00006148:    bf7ff4e6    ....    DCD    3212834022
        0x0000614c:    3c96c9b6    ...<    DCD    1016514998
        0x00006150:    bf7ff6ac    ....    DCD    3212834476
        0x00006154:    3c8a3938    89.<    DCD    1015691576
        0x00006158:    bf7ff84a    J...    DCD    3212834890
        0x0000615c:    3c7b514b    KQ{<    DCD    1014714699
        0x00006160:    bf7ff9c1    ....    DCD    3212835265
        0x00006164:    3c623000    .0b<    DCD    1013067776
        0x00006168:    bf7ffb11    ....    DCD    3212835601
        0x0000616c:    3c490e90    ..I<    DCD    1011420816
        0x00006170:    bf7ffc39    9...    DCD    3212835897
        0x00006174:    3c2fed02    ../<    DCD    1009773826
        0x00006178:    bf7ffd39    9...    DCD    3212836153
        0x0000617c:    3c16cb59    Y..<    DCD    1008126809
        0x00006180:    bf7ffe13    ....    DCD    3212836371
        0x00006184:    3bfb5330    0S.;    DCD    1006326576
        0x00006188:    bf7ffec4    ....    DCD    3212836548
        0x0000618c:    3bc90f89    ...;    DCD    1003032457
        0x00006190:    bf7fff4e    N...    DCD    3212836686
        0x00006194:    3b96cbc1    ...;    DCD    999738305
        0x00006198:    bf7fffb1    ....    DCD    3212836785
        0x0000619c:    3b490fc7    ..I;    DCD    994643911
        0x000061a0:    bf7fffec    ....    DCD    3212836844
        0x000061a4:    3ac90fd4    ...:    DCD    986255316
        0x000061a8:    bf800000    ....    DCD    3212836864
        0x000061ac:    00000000    ....    DCD    0
        0x000061b0:    bf7fffec    ....    DCD    3212836844
        0x000061b4:    bac90fd4    ....    DCD    3133738964
        0x000061b8:    bf7fffb1    ....    DCD    3212836785
        0x000061bc:    bb490fc7    ..I.    DCD    3142127559
        0x000061c0:    bf7fff4e    N...    DCD    3212836686
        0x000061c4:    bb96cbc1    ....    DCD    3147221953
        0x000061c8:    bf7ffec4    ....    DCD    3212836548
        0x000061cc:    bbc90f89    ....    DCD    3150516105
        0x000061d0:    bf7ffe13    ....    DCD    3212836371
        0x000061d4:    bbfb5330    0S..    DCD    3153810224
        0x000061d8:    bf7ffd39    9...    DCD    3212836153
        0x000061dc:    bc16cb59    Y...    DCD    3155610457
        0x000061e0:    bf7ffc39    9...    DCD    3212835897
        0x000061e4:    bc2fed02    ../.    DCD    3157257474
        0x000061e8:    bf7ffb11    ....    DCD    3212835601
        0x000061ec:    bc490e90    ..I.    DCD    3158904464
        0x000061f0:    bf7ff9c1    ....    DCD    3212835265
        0x000061f4:    bc623000    .0b.    DCD    3160551424
        0x000061f8:    bf7ff84a    J...    DCD    3212834890
        0x000061fc:    bc7b514b    KQ{.    DCD    3162198347
        0x00006200:    bf7ff6ac    ....    DCD    3212834476
        0x00006204:    bc8a3938    89..    DCD    3163175224
        0x00006208:    bf7ff4e6    ....    DCD    3212834022
        0x0000620c:    bc96c9b6    ....    DCD    3163998646
        0x00006210:    bf7ff2f8    ....    DCD    3212833528
        0x00006214:    bca35a1c    .Z..    DCD    3164822044
        0x00006218:    bf7ff0e3    ....    DCD    3212832995
        0x0000621c:    bcafea69    i...    DCD    3165645417
        0x00006220:    bf7feea7    ....    DCD    3212832423
        0x00006224:    bcbc7a9b    .z..    DCD    3166468763
        0x00006228:    bf7fec43    C...    DCD    3212831811
        0x0000622c:    bcc90ab0    ....    DCD    3167292080
        0x00006230:    bf7fe9b8    ....    DCD    3212831160
        0x00006234:    bcd59aa6    ....    DCD    3168115366
        0x00006238:    bf7fe705    ....    DCD    3212830469
        0x0000623c:    bce22a7b    {*..    DCD    3168938619
        0x00006240:    bf7fe42b    +...    DCD    3212829739
        0x00006244:    bceeba2d    -...    DCD    3169761837
        0x00006248:    bf7fe129    )...    DCD    3212828969
        0x0000624c:    bcfb49b9    .I..    DCD    3170585017
        0x00006250:    bf7fde00    ....    DCD    3212828160
        0x00006254:    bd03ec90    ....    DCD    3171150992
        0x00006258:    bf7fdaaf    ....    DCD    3212827311
        0x0000625c:    bd0a342f    /4..    DCD    3171562543
        0x00006260:    bf7fd737    7...    DCD    3212826423
        0x00006264:    bd107bb8    .{..    DCD    3171974072
        0x00006268:    bf7fd398    ....    DCD    3212825496
        0x0000626c:    bd16c32c    ,...    DCD    3172385580
        0x00006270:    bf7fcfd1    ....    DCD    3212824529
        0x00006274:    bd1d0a88    ....    DCD    3172797064
        0x00006278:    bf7fcbe2    ....    DCD    3212823522
        0x0000627c:    bd2351cc    .Q#.    DCD    3173208524
        0x00006280:    bf7fc7cc    ....    DCD    3212822476
        0x00006284:    bd2998f6    ..).    DCD    3173619958
        0x00006288:    bf7fc38f    ....    DCD    3212821391
        0x0000628c:    bd2fe007    ../.    DCD    3174031367
        0x00006290:    bf7fbf2a    *...    DCD    3212820266
        0x00006294:    bd3626fc    .&6.    DCD    3174442748
        0x00006298:    bf7fba9e    ....    DCD    3212819102
        0x0000629c:    bd3c6dd5    .m<.    DCD    3174854101
        0x000062a0:    bf7fb5ea    ....    DCD    3212817898
        0x000062a4:    bd42b491    ..B.    DCD    3175265425
        0x000062a8:    bf7fb10f    ....    DCD    3212816655
        0x000062ac:    bd48fb2f    /.H.    DCD    3175676719
        0x000062b0:    bf7fac0d    ....    DCD    3212815373
        0x000062b4:    bd4f41af    .AO.    DCD    3176087983
        0x000062b8:    bf7fa6e3    ....    DCD    3212814051
        0x000062bc:    bd55880e    ..U.    DCD    3176499214
        0x000062c0:    bf7fa191    ....    DCD    3212812689
        0x000062c4:    bd5bce4c    L.[.    DCD    3176910412
        0x000062c8:    bf7f9c18    ....    DCD    3212811288
        0x000062cc:    bd621468    h.b.    DCD    3177321576
        0x000062d0:    bf7f9678    x...    DCD    3212809848
        0x000062d4:    bd685a62    bZh.    DCD    3177732706
        0x000062d8:    bf7f90b1    ....    DCD    3212808369
        0x000062dc:    bd6ea038    8.n.    DCD    3178143800
        0x000062e0:    bf7f8ac2    ....    DCD    3212806850
        0x000062e4:    bd74e5e9    ..t.    DCD    3178554857
        0x000062e8:    bf7f84ab    ....    DCD    3212805291
        0x000062ec:    bd7b2b74    t+{.    DCD    3178965876
        0x000062f0:    bf7f7e6d    m~..    DCD    3212803693
        0x000062f4:    bd80b86c    l...    DCD    3179329644
        0x000062f8:    bf7f7808    .x..    DCD    3212802056
        0x000062fc:    bd83db0a    ....    DCD    3179535114
        0x00006300:    bf7f717b    {q..    DCD    3212800379
        0x00006304:    bd86fd94    ....    DCD    3179740564
        0x00006308:    bf7f6ac7    .j..    DCD    3212798663
        0x0000630c:    bd8a200a    . ..    DCD    3179945994
        0x00006310:    bf7f63ec    .c..    DCD    3212796908
        0x00006314:    bd8d426a    jB..    DCD    3180151402
        0x00006318:    bf7f5ce9    .\..    DCD    3212795113
        0x0000631c:    bd9064b4    .d..    DCD    3180356788
        0x00006320:    bf7f55bf    .U..    DCD    3212793279
        0x00006324:    bd9386e7    ....    DCD    3180562151
        0x00006328:    bf7f4e6d    mN..    DCD    3212791405
        0x0000632c:    bd96a905    ....    DCD    3180767493
        0x00006330:    bf7f46f4    .F..    DCD    3212789492
        0x00006334:    bd99cb0a    ....    DCD    3180972810
        0x00006338:    bf7f3f54    T?..    DCD    3212787540
        0x0000633c:    bd9cecf9    ....    DCD    3181178105
        0x00006340:    bf7f378d    .7..    DCD    3212785549
        0x00006344:    bda00ecf    ....    DCD    3181383375
        0x00006348:    bf7f2f9d    ./..    DCD    3212783517
        0x0000634c:    bda3308c    .0..    DCD    3181588620
        0x00006350:    bf7f2787    .'..    DCD    3212781447
        0x00006354:    bda65230    0R..    DCD    3181793840
        0x00006358:    bf7f1f49    I...    DCD    3212779337
        0x0000635c:    bda973ba    .s..    DCD    3181999034
        0x00006360:    bf7f16e4    ....    DCD    3212777188
        0x00006364:    bdac952b    +...    DCD    3182204203
        0x00006368:    bf7f0e58    X...    DCD    3212775000
        0x0000636c:    bdafb680    ....    DCD    3182409344
        0x00006370:    bf7f05a4    ....    DCD    3212772772
        0x00006374:    bdb2d7bb    ....    DCD    3182614459
        0x00006378:    bf7efcc9    ..~.    DCD    3212770505
        0x0000637c:    bdb5f8da    ....    DCD    3182819546
        0x00006380:    bf7ef3c7    ..~.    DCD    3212768199
        0x00006384:    bdb919dd    ....    DCD    3183024605
        0x00006388:    bf7eea9d    ..~.    DCD    3212765853
        0x0000638c:    bdbc3ac3    .:..    DCD    3183229635
        0x00006390:    bf7ee14c    L.~.    DCD    3212763468
        0x00006394:    bdbf5b8d    .[..    DCD    3183434637
        0x00006398:    bf7ed7d4    ..~.    DCD    3212761044
        0x0000639c:    bdc27c39    9|..    DCD    3183639609
        0x000063a0:    bf7ece34    4.~.    DCD    3212758580
        0x000063a4:    bdc59cc6    ....    DCD    3183844550
        0x000063a8:    bf7ec46d    m.~.    DCD    3212756077
        0x000063ac:    bdc8bd36    6...    DCD    3184049462
        0x000063b0:    bf7eba7f    ..~.    DCD    3212753535
        0x000063b4:    bdcbdd86    ....    DCD    3184254342
        0x000063b8:    bf7eb069    i.~.    DCD    3212750953
        0x000063bc:    bdcefdb7    ....    DCD    3184459191
        0x000063c0:    bf7ea62d    -.~.    DCD    3212748333
        0x000063c4:    bdd21dc8    ....    DCD    3184664008
        0x000063c8:    bf7e9bc9    ..~.    DCD    3212745673
        0x000063cc:    bdd53db9    .=..    DCD    3184868793
        0x000063d0:    bf7e913d    =.~.    DCD    3212742973
        0x000063d4:    bdd85d89    .]..    DCD    3185073545
        0x000063d8:    bf7e868b    ..~.    DCD    3212740235
        0x000063dc:    bddb7d37    7}..    DCD    3185278263
        0x000063e0:    bf7e7bb1    .{~.    DCD    3212737457
        0x000063e4:    bdde9cc4    ....    DCD    3185482948
        0x000063e8:    bf7e70b0    .p~.    DCD    3212734640
        0x000063ec:    bde1bc2e    ....    DCD    3185687598
        0x000063f0:    bf7e6588    .e~.    DCD    3212731784
        0x000063f4:    bde4db76    v...    DCD    3185892214
        0x000063f8:    bf7e5a38    8Z~.    DCD    3212728888
        0x000063fc:    bde7fa9a    ....    DCD    3186096794
        0x00006400:    bf7e4ec1    .N~.    DCD    3212725953
        0x00006404:    bdeb199a    ....    DCD    3186301338
        0x00006408:    bf7e4323    #C~.    DCD    3212722979
        0x0000640c:    bdee3876    v8..    DCD    3186505846
        0x00006410:    bf7e375e    ^7~.    DCD    3212719966
        0x00006414:    bdf1572e    .W..    DCD    3186710318
        0x00006418:    bf7e2b72    r+~.    DCD    3212716914
        0x0000641c:    bdf475c0    .u..    DCD    3186914752
        0x00006420:    bf7e1f5e    ^.~.    DCD    3212713822
        0x00006424:    bdf7942c    ,...    DCD    3187119148
        0x00006428:    bf7e1324    $.~.    DCD    3212710692
        0x0000642c:    bdfab273    s...    DCD    3187323507
        0x00006430:    bf7e06c2    ..~.    DCD    3212707522
        0x00006434:    bdfdd092    ....    DCD    3187527826
        0x00006438:    bf7dfa38    8.}.    DCD    3212704312
        0x0000643c:    be007745    Ew..    DCD    3187701573
        0x00006440:    bf7ded88    ..}.    DCD    3212701064
        0x00006444:    be02062e    ....    DCD    3187803694
        0x00006448:    bf7de0b1    ..}.    DCD    3212697777
        0x0000644c:    be039502    ....    DCD    3187905794
        0x00006450:    bf7dd3b2    ..}.    DCD    3212694450
        0x00006454:    be0523c2    .#..    DCD    3188007874
        0x00006458:    bf7dc68c    ..}.    DCD    3212691084
        0x0000645c:    be06b26e    n...    DCD    3188109934
        0x00006460:    bf7db940    @.}.    DCD    3212687680
        0x00006464:    be084105    .A..    DCD    3188211973
        0x00006468:    bf7dabcc    ..}.    DCD    3212684236
        0x0000646c:    be09cf86    ....    DCD    3188313990
        0x00006470:    bf7d9e30    0.}.    DCD    3212680752
        0x00006474:    be0b5df3    .]..    DCD    3188415987
        0x00006478:    bf7d906e    n.}.    DCD    3212677230
        0x0000647c:    be0cec4a    J...    DCD    3188517962
        0x00006480:    bf7d8285    ..}.    DCD    3212673669
        0x00006484:    be0e7a8b    .z..    DCD    3188619915
        0x00006488:    bf7d7474    tt}.    DCD    3212670068
        0x0000648c:    be1008b7    ....    DCD    3188721847
        0x00006490:    bf7d663d    =f}.    DCD    3212666429
        0x00006494:    be1196cc    ....    DCD    3188823756
        0x00006498:    bf7d57de    .W}.    DCD    3212662750
        0x0000649c:    be1324ca    .$..    DCD    3188925642
        0x000064a0:    bf7d4959    YI}.    DCD    3212659033
        0x000064a4:    be14b2b2    ....    DCD    3189027506
        0x000064a8:    bf7d3aac    .:}.    DCD    3212655276
        0x000064ac:    be164083    .@..    DCD    3189129347
        0x000064b0:    bf7d2bd8    .+}.    DCD    3212651480
        0x000064b4:    be17ce3d    =...    DCD    3189231165
        0x000064b8:    bf7d1cdd    ..}.    DCD    3212647645
        0x000064bc:    be195be0    .[..    DCD    3189332960
        0x000064c0:    bf7d0dbc    ..}.    DCD    3212643772
        0x000064c4:    be1ae96b    k...    DCD    3189434731
        0x000064c8:    bf7cfe73    s.|.    DCD    3212639859
        0x000064cc:    be1c76de    .v..    DCD    3189536478
        0x000064d0:    bf7cef03    ..|.    DCD    3212635907
        0x000064d4:    be1e0438    8...    DCD    3189638200
        0x000064d8:    bf7cdf6c    l.|.    DCD    3212631916
        0x000064dc:    be1f917b    {...    DCD    3189739899
        0x000064e0:    bf7ccfae    ..|.    DCD    3212627886
        0x000064e4:    be211ea5    ..!.    DCD    3189841573
        0x000064e8:    bf7cbfc9    ..|.    DCD    3212623817
        0x000064ec:    be22abb6    ..".    DCD    3189943222
        0x000064f0:    bf7cafbd    ..|.    DCD    3212619709
        0x000064f4:    be2438ad    .8$.    DCD    3190044845
        0x000064f8:    bf7c9f8a    ..|.    DCD    3212615562
        0x000064fc:    be25c58c    ..%.    DCD    3190146444
        0x00006500:    bf7c8f31    1.|.    DCD    3212611377
        0x00006504:    be275251    QR'.    DCD    3190248017
        0x00006508:    bf7c7eb0    .~|.    DCD    3212607152
        0x0000650c:    be28defc    ..(.    DCD    3190349564
        0x00006510:    bf7c6e08    .n|.    DCD    3212602888
        0x00006514:    be2a6b8d    .k*.    DCD    3190451085
        0x00006518:    bf7c5d3a    :]|.    DCD    3212598586
        0x0000651c:    be2bf804    ..+.    DCD    3190552580
        0x00006520:    bf7c4c44    DL|.    DCD    3212594244
        0x00006524:    be2d8461    a.-.    DCD    3190654049
        0x00006528:    bf7c3b28    (;|.    DCD    3212589864
        0x0000652c:    be2f10a2    ../.    DCD    3190755490
        0x00006530:    bf7c29e5    .)|.    DCD    3212585445
        0x00006534:    be309cc9    ..0.    DCD    3190856905
        0x00006538:    bf7c187a    z.|.    DCD    3212580986
        0x0000653c:    be3228d4    .(2.    DCD    3190958292
        0x00006540:    bf7c06e9    ..|.    DCD    3212576489
        0x00006544:    be33b4c4    ..3.    DCD    3191059652
        0x00006548:    bf7bf531    1.{.    DCD    3212571953
        0x0000654c:    be354098    .@5.    DCD    3191160984
        0x00006550:    bf7be353    S.{.    DCD    3212567379
        0x00006554:    be36cc50    P.6.    DCD    3191262288
        0x00006558:    bf7bd14d    M.{.    DCD    3212562765
        0x0000655c:    be3857ec    .W8.    DCD    3191363564
        0x00006560:    bf7bbf20     .{.    DCD    3212558112
        0x00006564:    be39e36c    l.9.    DCD    3191464812
        0x00006568:    bf7baccd    ..{.    DCD    3212553421
        0x0000656c:    be3b6ecf    .n;.    DCD    3191566031
        0x00006570:    bf7b9a53    S.{.    DCD    3212548691
        0x00006574:    be3cfa15    ..<.    DCD    3191667221
        0x00006578:    bf7b87b2    ..{.    DCD    3212543922
        0x0000657c:    be3e853e    >.>.    DCD    3191768382
        0x00006580:    bf7b74ea    .t{.    DCD    3212539114
        0x00006584:    be401049    I.@.    DCD    3191869513
        0x00006588:    bf7b61fc    .a{.    DCD    3212534268
        0x0000658c:    be419b37    7.A.    DCD    3191970615
        0x00006590:    bf7b4ee7    .N{.    DCD    3212529383
        0x00006594:    be432607    .&C.    DCD    3192071687
        0x00006598:    bf7b3bab    .;{.    DCD    3212524459
        0x0000659c:    be44b0b9    ..D.    DCD    3192172729
        0x000065a0:    bf7b2848    H({.    DCD    3212519496
        0x000065a4:    be463b4d    M;F.    DCD    3192273741
        0x000065a8:    bf7b14be    ..{.    DCD    3212514494
        0x000065ac:    be47c5c2    ..G.    DCD    3192374722
        0x000065b0:    bf7b010e    ..{.    DCD    3212509454
        0x000065b4:    be495018    .PI.    DCD    3192475672
        0x000065b8:    bf7aed37    7.z.    DCD    3212504375
        0x000065bc:    be4ada4f    O.J.    DCD    3192576591
        0x000065c0:    bf7ad93a    :.z.    DCD    3212499258
        0x000065c4:    be4c6467    gdL.    DCD    3192677479
        0x000065c8:    bf7ac516    ..z.    DCD    3212494102
        0x000065cc:    be4dee60    `.M.    DCD    3192778336
        0x000065d0:    bf7ab0cb    ..z.    DCD    3212488907
        0x000065d4:    be4f7838    8xO.    DCD    3192879160
        0x000065d8:    bf7a9c59    Y.z.    DCD    3212483673
        0x000065dc:    be5101f1    ..Q.    DCD    3192979953
        0x000065e0:    bf7a87c1    ..z.    DCD    3212478401
        0x000065e4:    be528b89    ..R.    DCD    3193080713
        0x000065e8:    bf7a7302    .sz.    DCD    3212473090
        0x000065ec:    be541501    ..T.    DCD    3193181441
        0x000065f0:    bf7a5e1c    .^z.    DCD    3212467740
        0x000065f4:    be559e58    X.U.    DCD    3193282136
        0x000065f8:    bf7a4910    .Iz.    DCD    3212462352
        0x000065fc:    be57278f    .'W.    DCD    3193382799
        0x00006600:    bf7a33dd    .3z.    DCD    3212456925
        0x00006604:    be58b0a4    ..X.    DCD    3193483428
        0x00006608:    bf7a1e84    ..z.    DCD    3212451460
        0x0000660c:    be5a3997    .9Z.    DCD    3193584023
        0x00006610:    bf7a0904    ..z.    DCD    3212445956
        0x00006614:    be5bc26a    j.[.    DCD    3193684586
        0x00006618:    bf79f35e    ^.y.    DCD    3212440414
        0x0000661c:    be5d4b1a    .K].    DCD    3193785114
        0x00006620:    bf79dd91    ..y.    DCD    3212434833
        0x00006624:    be5ed3a8    ..^.    DCD    3193885608
        0x00006628:    bf79c79d    ..y.    DCD    3212429213
        0x0000662c:    be605c13    .\`.    DCD    3193986067
        0x00006630:    bf79b183    ..y.    DCD    3212423555
        0x00006634:    be61e45c    \.a.    DCD    3194086492
        0x00006638:    bf799b43    C.y.    DCD    3212417859
        0x0000663c:    be636c83    .lc.    DCD    3194186883
        0x00006640:    bf7984dc    ..y.    DCD    3212412124
        0x00006644:    be64f486    ..d.    DCD    3194287238
        0x00006648:    bf796e4e    Nny.    DCD    3212406350
        0x0000664c:    be667c66    f|f.    DCD    3194387558
        0x00006650:    bf79579a    .Wy.    DCD    3212400538
        0x00006654:    be680422    ".h.    DCD    3194487842
        0x00006658:    bf7940c0    .@y.    DCD    3212394688
        0x0000665c:    be698bba    ..i.    DCD    3194588090
        0x00006660:    bf7929bf    .)y.    DCD    3212388799
        0x00006664:    be6b132f    /.k.    DCD    3194688303
        0x00006668:    bf791298    ..y.    DCD    3212382872
        0x0000666c:    be6c9a7f    ..l.    DCD    3194788479
        0x00006670:    bf78fb4a    J.x.    DCD    3212376906
        0x00006674:    be6e21ab    .!n.    DCD    3194888619
        0x00006678:    bf78e3d6    ..x.    DCD    3212370902
        0x0000667c:    be6fa8b2    ..o.    DCD    3194988722
        0x00006680:    bf78cc3b    ;.x.    DCD    3212364859
        0x00006684:    be712f94    ./q.    DCD    3195088788
        0x00006688:    bf78b47b    {.x.    DCD    3212358779
        0x0000668c:    be72b651    Q.r.    DCD    3195188817
        0x00006690:    bf789c93    ..x.    DCD    3212352659
        0x00006694:    be743ce8    .<t.    DCD    3195288808
        0x00006698:    bf788486    ..x.    DCD    3212346502
        0x0000669c:    be75c35a    Z.u.    DCD    3195388762
        0x000066a0:    bf786c52    Rlx.    DCD    3212340306
        0x000066a4:    be7749a6    .Iw.    DCD    3195488678
        0x000066a8:    bf7853f8    .Sx.    DCD    3212334072
        0x000066ac:    be78cfcc    ..x.    DCD    3195588556
        0x000066b0:    bf783b77    w;x.    DCD    3212327799
        0x000066b4:    be7a55cb    .Uz.    DCD    3195688395
        0x000066b8:    bf7822d1    ."x.    DCD    3212321489
        0x000066bc:    be7bdba4    ..{.    DCD    3195788196
        0x000066c0:    bf780a04    ..x.    DCD    3212315140
        0x000066c4:    be7d6156    Va}.    DCD    3195887958
        0x000066c8:    bf77f110    ..w.    DCD    3212308752
        0x000066cc:    be7ee6e1    ..~.    DCD    3195987681
        0x000066d0:    bf77d7f7    ..w.    DCD    3212302327
        0x000066d4:    be803622    "6..    DCD    3196073506
        0x000066d8:    bf77beb7    ..w.    DCD    3212295863
        0x000066dc:    be80f8c0    ....    DCD    3196123328
        0x000066e0:    bf77a551    Q.w.    DCD    3212289361
        0x000066e4:    be81bb4a    J...    DCD    3196173130
        0x000066e8:    bf778bc5    ..w.    DCD    3212282821
        0x000066ec:    be827dc0    .}..    DCD    3196222912
        0x000066f0:    bf777213    .rw.    DCD    3212276243
        0x000066f4:    be834022    "@..    DCD    3196272674
        0x000066f8:    bf77583a    :Xw.    DCD    3212269626
        0x000066fc:    be840270    p...    DCD    3196322416
        0x00006700:    bf773e3c    <>w.    DCD    3212262972
        0x00006704:    be84c4aa    ....    DCD    3196372138
        0x00006708:    bf772417    .$w.    DCD    3212256279
        0x0000670c:    be8586ce    ....    DCD    3196421838
        0x00006710:    bf7709cc    ..w.    DCD    3212249548
        0x00006714:    be8648df    .H..    DCD    3196471519
        0x00006718:    bf76ef5b    [.v.    DCD    3212242779
        0x0000671c:    be870ada    ....    DCD    3196521178
        0x00006720:    bf76d4c4    ..v.    DCD    3212235972
        0x00006724:    be87ccc1    ....    DCD    3196570817
        0x00006728:    bf76ba07    ..v.    DCD    3212229127
        0x0000672c:    be888e93    ....    DCD    3196620435
        0x00006730:    bf769f24    $.v.    DCD    3212222244
        0x00006734:    be895050    PP..    DCD    3196670032
        0x00006738:    bf76841b    ..v.    DCD    3212215323
        0x0000673c:    be8a11f8    ....    DCD    3196719608
        0x00006740:    bf7668ec    .hv.    DCD    3212208364
        0x00006744:    be8ad38a    ....    DCD    3196769162
        0x00006748:    bf764d97    .Mv.    DCD    3212201367
        0x0000674c:    be8b9507    ....    DCD    3196818695
        0x00006750:    bf76321b    .2v.    DCD    3212194331
        0x00006754:    be8c566e    nV..    DCD    3196868206
        0x00006758:    bf76167a    z.v.    DCD    3212187258
        0x0000675c:    be8d17c0    ....    DCD    3196917696
        0x00006760:    bf75fab3    ..u.    DCD    3212180147
        0x00006764:    be8dd8fc    ....    DCD    3196967164
        0x00006768:    bf75dec6    ..u.    DCD    3212172998
        0x0000676c:    be8e9a22    "...    DCD    3197016610
        0x00006770:    bf75c2b3    ..u.    DCD    3212165811
        0x00006774:    be8f5b32    2[..    DCD    3197066034
        0x00006778:    bf75a67b    {.u.    DCD    3212158587
        0x0000677c:    be901c2c    ,...    DCD    3197115436
        0x00006780:    bf758a1c    ..u.    DCD    3212151324
        0x00006784:    be90dd10    ....    DCD    3197164816
        0x00006788:    bf756d97    .mu.    DCD    3212144023
        0x0000678c:    be919ddd    ....    DCD    3197214173
        0x00006790:    bf7550ed    .Pu.    DCD    3212136685
        0x00006794:    be925e94    .^..    DCD    3197263508
        0x00006798:    bf75341d    .4u.    DCD    3212129309
        0x0000679c:    be931f35    5...    DCD    3197312821
        0x000067a0:    bf751727    '.u.    DCD    3212121895
        0x000067a4:    be93dfbf    ....    DCD    3197362111
        0x000067a8:    bf74fa0b    ..t.    DCD    3212114443
        0x000067ac:    be94a031    1...    DCD    3197411377
        0x000067b0:    bf74dcc9    ..t.    DCD    3212106953
        0x000067b4:    be95608d    .`..    DCD    3197460621
        0x000067b8:    bf74bf62    b.t.    DCD    3212099426
        0x000067bc:    be9620d2    . ..    DCD    3197509842
        0x000067c0:    bf74a1d5    ..t.    DCD    3212091861
        0x000067c4:    be96e100    ....    DCD    3197559040
        0x000067c8:    bf748422    ".t.    DCD    3212084258
        0x000067cc:    be97a117    ....    DCD    3197608215
        0x000067d0:    bf746649    Ift.    DCD    3212076617
        0x000067d4:    be986116    .a..    DCD    3197657366
        0x000067d8:    bf74484b    KHt.    DCD    3212068939
        0x000067dc:    be9920fe    . ..    DCD    3197706494
        0x000067e0:    bf742a27    '*t.    DCD    3212061223
        0x000067e4:    be99e0ce    ....    DCD    3197755598
        0x000067e8:    bf740bdd    ..t.    DCD    3212053469
        0x000067ec:    be9aa086    ....    DCD    3197804678
        0x000067f0:    bf73ed6e    n.s.    DCD    3212045678
        0x000067f4:    be9b6027    '`..    DCD    3197853735
        0x000067f8:    bf73ced9    ..s.    DCD    3212037849
        0x000067fc:    be9c1faf    ....    DCD    3197902767
        0x00006800:    bf73b01f    ..s.    DCD    3212029983
        0x00006804:    be9cdf20     ...    DCD    3197951776
        0x00006808:    bf73913f    ?.s.    DCD    3212022079
        0x0000680c:    be9d9e78    x...    DCD    3198000760
        0x00006810:    bf737239    9rs.    DCD    3212014137
        0x00006814:    be9e5db8    .]..    DCD    3198049720
        0x00006818:    bf73530e    .Ss.    DCD    3212006158
        0x0000681c:    be9f1cdf    ....    DCD    3198098655
        0x00006820:    bf7333be    .3s.    DCD    3211998142
        0x00006824:    be9fdbee    ....    DCD    3198147566
        0x00006828:    bf731447    G.s.    DCD    3211990087
        0x0000682c:    bea09ae5    ....    DCD    3198196453
        0x00006830:    bf72f4ac    ..r.    DCD    3211981996
        0x00006834:    bea159c2    .Y..    DCD    3198245314
        0x00006838:    bf72d4eb    ..r.    DCD    3211973867
        0x0000683c:    bea21887    ....    DCD    3198294151
        0x00006840:    bf72b504    ..r.    DCD    3211965700
        0x00006844:    bea2d733    3...    DCD    3198342963
        0x00006848:    bf7294f8    ..r.    DCD    3211957496
        0x0000684c:    bea395c5    ....    DCD    3198391749
        0x00006850:    bf7274c7    .tr.    DCD    3211949255
        0x00006854:    bea4543f    ?T..    DCD    3198440511
        0x00006858:    bf725470    pTr.    DCD    3211940976
        0x0000685c:    bea5129f    ....    DCD    3198489247
        0x00006860:    bf7233f4    .3r.    DCD    3211932660
        0x00006864:    bea5d0e5    ....    DCD    3198537957
        0x00006868:    bf721352    R.r.    DCD    3211924306
        0x0000686c:    bea68f12    ....    DCD    3198586642
        0x00006870:    bf71f28c    ..q.    DCD    3211915916
        0x00006874:    bea74d25    %M..    DCD    3198635301
        0x00006878:    bf71d19f    ..q.    DCD    3211907487
        0x0000687c:    bea80b1f    ....    DCD    3198683935
        0x00006880:    bf71b08e    ..q.    DCD    3211899022
        0x00006884:    bea8c8fe    ....    DCD    3198732542
        0x00006888:    bf718f57    W.q.    DCD    3211890519
        0x0000688c:    bea986c4    ....    DCD    3198781124
        0x00006890:    bf716dfb    .mq.    DCD    3211881979
        0x00006894:    beaa446f    oD..    DCD    3198829679
        0x00006898:    bf714c7a    zLq.    DCD    3211873402
        0x0000689c:    beab0201    ....    DCD    3198878209
        0x000068a0:    bf712ad4    .*q.    DCD    3211864788
        0x000068a4:    beabbf77    w...    DCD    3198926711
        0x000068a8:    bf710908    ..q.    DCD    3211856136
        0x000068ac:    beac7cd4    .|..    DCD    3198975188
        0x000068b0:    bf70e717    ..p.    DCD    3211847447
        0x000068b4:    bead3a15    .:..    DCD    3199023637
        0x000068b8:    bf70c502    ..p.    DCD    3211838722
        0x000068bc:    beadf73c    <...    DCD    3199072060
        0x000068c0:    bf70a2c6    ..p.    DCD    3211829958
        0x000068c4:    beaeb449    I...    DCD    3199120457
        0x000068c8:    bf708066    f.p.    DCD    3211821158
        0x000068cc:    beaf713a    :q..    DCD    3199168826
        0x000068d0:    bf705de1    .]p.    DCD    3211812321
        0x000068d4:    beb02e10    ....    DCD    3199217168
        0x000068d8:    bf703b37    7;p.    DCD    3211803447
        0x000068dc:    beb0eacb    ....    DCD    3199265483
        0x000068e0:    bf701867    g.p.    DCD    3211794535
        0x000068e4:    beb1a76b    k...    DCD    3199313771
        0x000068e8:    bf6ff573    s.o.    DCD    3211785587
        0x000068ec:    beb263ef    .c..    DCD    3199362031
        0x000068f0:    bf6fd25a    Z.o.    DCD    3211776602
        0x000068f4:    beb32058    X ..    DCD    3199410264
        0x000068f8:    bf6faf1b    ..o.    DCD    3211767579
        0x000068fc:    beb3dca5    ....    DCD    3199458469
        0x00006900:    bf6f8bb8    ..o.    DCD    3211758520
        0x00006904:    beb498d6    ....    DCD    3199506646
        0x00006908:    bf6f6830    0ho.    DCD    3211749424
        0x0000690c:    beb554ec    .T..    DCD    3199554796
        0x00006910:    bf6f4483    .Do.    DCD    3211740291
        0x00006914:    beb610e6    ....    DCD    3199602918
        0x00006918:    bf6f20b0    . o.    DCD    3211731120
        0x0000691c:    beb6ccc3    ....    DCD    3199651011
        0x00006920:    bf6efcba    ..n.    DCD    3211721914
        0x00006924:    beb78884    ....    DCD    3199699076
        0x00006928:    bf6ed89e    ..n.    DCD    3211712670
        0x0000692c:    beb8442a    *D..    DCD    3199747114
        0x00006930:    bf6eb45d    ].n.    DCD    3211703389
        0x00006934:    beb8ffb2    ....    DCD    3199795122
        0x00006938:    bf6e8ff8    ..n.    DCD    3211694072
        0x0000693c:    beb9bb1e    ....    DCD    3199843102
        0x00006940:    bf6e6b6d    mkn.    DCD    3211684717
        0x00006944:    beba766e    nv..    DCD    3199891054
        0x00006948:    bf6e46be    .Fn.    DCD    3211675326
        0x0000694c:    bebb31a0    .1..    DCD    3199938976
        0x00006950:    bf6e21eb    .!n.    DCD    3211665899
        0x00006954:    bebbecb6    ....    DCD    3199986870
        0x00006958:    bf6dfcf2    ..m.    DCD    3211656434
        0x0000695c:    bebca7af    ....    DCD    3200034735
        0x00006960:    bf6dd7d5    ..m.    DCD    3211646933
        0x00006964:    bebd628b    .b..    DCD    3200082571
        0x00006968:    bf6db293    ..m.    DCD    3211637395
        0x0000696c:    bebe1d4a    J...    DCD    3200130378
        0x00006970:    bf6d8d2d    -.m.    DCD    3211627821
        0x00006974:    bebed7eb    ....    DCD    3200178155
        0x00006978:    bf6d67a1    .gm.    DCD    3211618209
        0x0000697c:    bebf926f    o...    DCD    3200225903
        0x00006980:    bf6d41f2    .Am.    DCD    3211608562
        0x00006984:    bec04cd5    .L..    DCD    3200273621
        0x00006988:    bf6d1c1d    ..m.    DCD    3211598877
        0x0000698c:    bec1071e    ....    DCD    3200321310
        0x00006990:    bf6cf624    $.l.    DCD    3211589156
        0x00006994:    bec1c148    H...    DCD    3200368968
        0x00006998:    bf6cd007    ..l.    DCD    3211579399
        0x0000699c:    bec27b55    U{..    DCD    3200416597
        0x000069a0:    bf6ca9c5    ..l.    DCD    3211569605
        0x000069a4:    bec33544    D5..    DCD    3200464196
        0x000069a8:    bf6c835e    ^.l.    DCD    3211559774
        0x000069ac:    bec3ef15    ....    DCD    3200511765
        0x000069b0:    bf6c5cd4    .\l.    DCD    3211549908
        0x000069b4:    bec4a8c8    ....    DCD    3200559304
        0x000069b8:    bf6c3624    $6l.    DCD    3211540004
        0x000069bc:    bec5625c    \b..    DCD    3200606812
        0x000069c0:    bf6c0f50    P.l.    DCD    3211530064
        0x000069c4:    bec61bd2    ....    DCD    3200654290
        0x000069c8:    bf6be858    X.k.    DCD    3211520088
        0x000069cc:    bec6d529    )...    DCD    3200701737
        0x000069d0:    bf6bc13b    ;.k.    DCD    3211510075
        0x000069d4:    bec78e62    b...    DCD    3200749154
        0x000069d8:    bf6b99fb    ..k.    DCD    3211500027
        0x000069dc:    bec8477c    |G..    DCD    3200796540
        0x000069e0:    bf6b7295    .rk.    DCD    3211489941
        0x000069e4:    bec90077    w...    DCD    3200843895
        0x000069e8:    bf6b4b0c    .Kk.    DCD    3211479820
        0x000069ec:    bec9b953    S...    DCD    3200891219
        0x000069f0:    bf6b235e    ^#k.    DCD    3211469662
        0x000069f4:    beca7210    .r..    DCD    3200938512
        0x000069f8:    bf6afb8c    ..j.    DCD    3211459468
        0x000069fc:    becb2aae    .*..    DCD    3200985774
        0x00006a00:    bf6ad395    ..j.    DCD    3211449237
        0x00006a04:    becbe32c    ,...    DCD    3201033004
        0x00006a08:    bf6aab7b    {.j.    DCD    3211438971
        0x00006a0c:    becc9b8b    ....    DCD    3201080203
        0x00006a10:    bf6a833c    <.j.    DCD    3211428668
        0x00006a14:    becd53ca    .S..    DCD    3201127370
        0x00006a18:    bf6a5ad9    .Zj.    DCD    3211418329
        0x00006a1c:    bece0bea    ....    DCD    3201174506
        0x00006a20:    bf6a3252    R2j.    DCD    3211407954
        0x00006a24:    becec3ea    ....    DCD    3201221610
        0x00006a28:    bf6a09a7    ..j.    DCD    3211397543
        0x00006a2c:    becf7bca    .{..    DCD    3201268682
        0x00006a30:    bf69e0d7    ..i.    DCD    3211387095
        0x00006a34:    bed0338a    .3..    DCD    3201315722
        0x00006a38:    bf69b7e4    ..i.    DCD    3211376612
        0x00006a3c:    bed0eb2a    *...    DCD    3201362730
        0x00006a40:    bf698ecc    ..i.    DCD    3211366092
        0x00006a44:    bed1a2aa    ....    DCD    3201409706
        0x00006a48:    bf696591    .ei.    DCD    3211355537
        0x00006a4c:    bed25a09    .Z..    DCD    3201456649
        0x00006a50:    bf693c32    2<i.    DCD    3211344946
        0x00006a54:    bed31148    H...    DCD    3201503560
        0x00006a58:    bf6912ae    ..i.    DCD    3211334318
        0x00006a5c:    bed3c867    g...    DCD    3201550439
        0x00006a60:    bf68e907    ..h.    DCD    3211323655
        0x00006a64:    bed47f64    d...    DCD    3201597284
        0x00006a68:    bf68bf3c    <.h.    DCD    3211312956
        0x00006a6c:    bed53641    A6..    DCD    3201644097
        0x00006a70:    bf68954c    L.h.    DCD    3211302220
        0x00006a74:    bed5ecfd    ....    DCD    3201690877
        0x00006a78:    bf686b39    9kh.    DCD    3211291449
        0x00006a7c:    bed6a399    ....    DCD    3201737625
        0x00006a80:    bf684103    .Ah.    DCD    3211280643
        0x00006a84:    bed75a13    .Z..    DCD    3201784339
        0x00006a88:    bf6816a8    ..h.    DCD    3211269800
        0x00006a8c:    bed8106b    k...    DCD    3201831019
        0x00006a90:    bf67ec2a    *.g.    DCD    3211258922
        0x00006a94:    bed8c6a3    ....    DCD    3201877667
        0x00006a98:    bf67c187    ..g.    DCD    3211248007
        0x00006a9c:    bed97cb9    .|..    DCD    3201924281
        0x00006aa0:    bf6796c1    ..g.    DCD    3211237057
        0x00006aa4:    beda32ad    .2..    DCD    3201970861
        0x00006aa8:    bf676bd8    .kg.    DCD    3211226072
        0x00006aac:    bedae880    ....    DCD    3202017408
        0x00006ab0:    bf6740ca    .@g.    DCD    3211215050
        0x00006ab4:    bedb9e31    1...    DCD    3202063921
        0x00006ab8:    bf671599    ..g.    DCD    3211203993
        0x00006abc:    bedc53c1    .S..    DCD    3202110401
        0x00006ac0:    bf66ea45    E.f.    DCD    3211192901
        0x00006ac4:    bedd092e    ....    DCD    3202156846
        0x00006ac8:    bf66becc    ..f.    DCD    3211181772
        0x00006acc:    beddbe79    y...    DCD    3202203257
        0x00006ad0:    bf669330    0.f.    DCD    3211170608
        0x00006ad4:    bede73a2    .s..    DCD    3202249634
        0x00006ad8:    bf666771    qgf.    DCD    3211159409
        0x00006adc:    bedf28a9    .(..    DCD    3202295977
        0x00006ae0:    bf663b8e    .;f.    DCD    3211148174
        0x00006ae4:    bedfdd8d    ....    DCD    3202342285
        0x00006ae8:    bf660f88    ..f.    DCD    3211136904
        0x00006aec:    bee0924f    O...    DCD    3202388559
        0x00006af0:    bf65e35e    ^.e.    DCD    3211125598
        0x00006af4:    bee146ee    .F..    DCD    3202434798
        0x00006af8:    bf65b710    ..e.    DCD    3211114256
        0x00006afc:    bee1fb6a    j...    DCD    3202481002
        0x00006b00:    bf658aa0    ..e.    DCD    3211102880
        0x00006b04:    bee2afc4    ....    DCD    3202527172
        0x00006b08:    bf655e0b    .^e.    DCD    3211091467
        0x00006b0c:    bee363fa    .c..    DCD    3202573306
        0x00006b10:    bf653154    T1e.    DCD    3211080020
        0x00006b14:    bee4180e    ....    DCD    3202619406
        0x00006b18:    bf650479    y.e.    DCD    3211068537
        0x00006b1c:    bee4cbfe    ....    DCD    3202665470
        0x00006b20:    bf64d77b    {.d.    DCD    3211057019
        0x00006b24:    bee57fcb    ....    DCD    3202711499
        0x00006b28:    bf64aa59    Y.d.    DCD    3211045465
        0x00006b2c:    bee63375    u3..    DCD    3202757493
        0x00006b30:    bf647d14    .}d.    DCD    3211033876
        0x00006b34:    bee6e6fb    ....    DCD    3202803451
        0x00006b38:    bf644fac    .Od.    DCD    3211022252
        0x00006b3c:    bee79a5d    ]...    DCD    3202849373
        0x00006b40:    bf642221    !"d.    DCD    3211010593
        0x00006b44:    bee84d9c    .M..    DCD    3202895260
        0x00006b48:    bf63f473    s.c.    DCD    3210998899
        0x00006b4c:    bee900b7    ....    DCD    3202941111
        0x00006b50:    bf63c6a1    ..c.    DCD    3210987169
        0x00006b54:    bee9b3ae    ....    DCD    3202986926
        0x00006b58:    bf6398ac    ..c.    DCD    3210975404
        0x00006b5c:    beea6681    .f..    DCD    3203032705
        0x00006b60:    bf636a95    .jc.    DCD    3210963605
        0x00006b64:    beeb1930    0...    DCD    3203078448
        0x00006b68:    bf633c5a    Z<c.    DCD    3210951770
        0x00006b6c:    beebcbbb    ....    DCD    3203124155
        0x00006b70:    bf630dfc    ..c.    DCD    3210939900
        0x00006b74:    beec7e21    !~..    DCD    3203169825
        0x00006b78:    bf62df7b    {.b.    DCD    3210927995
        0x00006b7c:    beed3063    c0..    DCD    3203215459
        0x00006b80:    bf62b0d7    ..b.    DCD    3210916055
        0x00006b84:    beede280    ....    DCD    3203261056
        0x00006b88:    bf628210    ..b.    DCD    3210904080
        0x00006b8c:    beee9479    y...    DCD    3203306617
        0x00006b90:    bf625326    &Sb.    DCD    3210892070
        0x00006b94:    beef464c    LF..    DCD    3203352140
        0x00006b98:    bf62241a    .$b.    DCD    3210880026
        0x00006b9c:    beeff7fb    ....    DCD    3203397627
        0x00006ba0:    bf61f4ea    ..a.    DCD    3210867946
        0x00006ba4:    bef0a985    ....    DCD    3203443077
        0x00006ba8:    bf61c598    ..a.    DCD    3210855832
        0x00006bac:    bef15aea    .Z..    DCD    3203488490
        0x00006bb0:    bf619622    ".a.    DCD    3210843682
        0x00006bb4:    bef20c29    )...    DCD    3203533865
        0x00006bb8:    bf61668a    .fa.    DCD    3210831498
        0x00006bbc:    bef2bd43    C...    DCD    3203579203
        0x00006bc0:    bf6136d0    .6a.    DCD    3210819280
        0x00006bc4:    bef36e38    8n..    DCD    3203624504
        0x00006bc8:    bf6106f2    ..a.    DCD    3210807026
        0x00006bcc:    bef41f07    ....    DCD    3203669767
        0x00006bd0:    bf60d6f2    ..`.    DCD    3210794738
        0x00006bd4:    bef4cfb1    ....    DCD    3203714993
        0x00006bd8:    bf60a6cf    ..`.    DCD    3210782415
        0x00006bdc:    bef58035    5...    DCD    3203760181
        0x00006be0:    bf607689    .v`.    DCD    3210770057
        0x00006be4:    bef63093    .0..    DCD    3203805331
        0x00006be8:    bf604621    !F`.    DCD    3210757665
        0x00006bec:    bef6e0cb    ....    DCD    3203850443
        0x00006bf0:    bf601596    ..`.    DCD    3210745238
        0x00006bf4:    bef790dc    ....    DCD    3203895516
        0x00006bf8:    bf5fe4e9    .._.    DCD    3210732777
        0x00006bfc:    bef840c8    .@..    DCD    3203940552
        0x00006c00:    bf5fb419    .._.    DCD    3210720281
        0x00006c04:    bef8f08e    ....    DCD    3203985550
        0x00006c08:    bf5f8327    '._.    DCD    3210707751
        0x00006c0c:    bef9a02d    -...    DCD    3204030509
        0x00006c10:    bf5f5212    .R_.    DCD    3210695186
        0x00006c14:    befa4fa5    .O..    DCD    3204075429
        0x00006c18:    bf5f20db    . _.    DCD    3210682587
        0x00006c1c:    befafef7    ....    DCD    3204120311
        0x00006c20:    bf5eef81    ..^.    DCD    3210669953
        0x00006c24:    befbae22    "...    DCD    3204165154
        0x00006c28:    bf5ebe05    ..^.    DCD    3210657285
        0x00006c2c:    befc5d27    ']..    DCD    3204209959
        0x00006c30:    bf5e8c67    g.^.    DCD    3210644583
        0x00006c34:    befd0c04    ....    DCD    3204254724
        0x00006c38:    bf5e5aa6    .Z^.    DCD    3210631846
        0x00006c3c:    befdbabb    ....    DCD    3204299451
        0x00006c40:    bf5e28c3    .(^.    DCD    3210619075
        0x00006c44:    befe694a    Ji..    DCD    3204344138
        0x00006c48:    bf5df6be    ..].    DCD    3210606270
        0x00006c4c:    beff17b2    ....    DCD    3204388786
        0x00006c50:    bf5dc497    ..].    DCD    3210593431
        0x00006c54:    beffc5f3    ....    DCD    3204433395
        0x00006c58:    bf5d924d    M.].    DCD    3210580557
        0x00006c5c:    bf003a06    .:..    DCD    3204463110
        0x00006c60:    bf5d5fe1    ._].    DCD    3210567649
        0x00006c64:    bf0090ff    ....    DCD    3204485375
        0x00006c68:    bf5d2d53    S-].    DCD    3210554707
        0x00006c6c:    bf00e7e4    ....    DCD    3204507620
        0x00006c70:    bf5cfaa3    ..\.    DCD    3210541731
        0x00006c74:    bf013eb5    .>..    DCD    3204529845
        0x00006c78:    bf5cc7d1    ..\.    DCD    3210528721
        0x00006c7c:    bf019573    s...    DCD    3204552051
        0x00006c80:    bf5c94dd    ..\.    DCD    3210515677
        0x00006c84:    bf01ec1c    ....    DCD    3204574236
        0x00006c88:    bf5c61c7    .a\.    DCD    3210502599
        0x00006c8c:    bf0242b1    .B..    DCD    3204596401
        0x00006c90:    bf5c2e8e    ..\.    DCD    3210489486
        0x00006c94:    bf029932    2...    DCD    3204618546
        0x00006c98:    bf5bfb34    4.[.    DCD    3210476340
        0x00006c9c:    bf02ef9f    ....    DCD    3204640671
        0x00006ca0:    bf5bc7b8    ..[.    DCD    3210463160
        0x00006ca4:    bf0345f8    .E..    DCD    3204662776
        0x00006ca8:    bf5b941a    ..[.    DCD    3210449946
        0x00006cac:    bf039c3d    =...    DCD    3204684861
        0x00006cb0:    bf5b605a    Z`[.    DCD    3210436698
        0x00006cb4:    bf03f26d    m...    DCD    3204706925
        0x00006cb8:    bf5b2c79    y,[.    DCD    3210423417
        0x00006cbc:    bf044889    .H..    DCD    3204728969
        0x00006cc0:    bf5af875    u.Z.    DCD    3210410101
        0x00006cc4:    bf049e91    ....    DCD    3204750993
        0x00006cc8:    bf5ac450    P.Z.    DCD    3210396752
        0x00006ccc:    bf04f484    ....    DCD    3204772996
        0x00006cd0:    bf5a9009    ..Z.    DCD    3210383369
        0x00006cd4:    bf054a62    bJ..    DCD    3204794978
        0x00006cd8:    bf5a5ba0    .[Z.    DCD    3210369952
        0x00006cdc:    bf05a02c    ,...    DCD    3204816940
        0x00006ce0:    bf5a2716    .'Z.    DCD    3210356502
        0x00006ce4:    bf05f5e2    ....    DCD    3204838882
        0x00006ce8:    bf59f26a    j.Y.    DCD    3210343018
        0x00006cec:    bf064b82    .K..    DCD    3204860802
        0x00006cf0:    bf59bd9c    ..Y.    DCD    3210329500
        0x00006cf4:    bf06a10e    ....    DCD    3204882702
        0x00006cf8:    bf5988ad    ..Y.    DCD    3210315949
        0x00006cfc:    bf06f686    ....    DCD    3204904582
        0x00006d00:    bf59539c    .SY.    DCD    3210302364
        0x00006d04:    bf074be8    .K..    DCD    3204926440
        0x00006d08:    bf591e6a    j.Y.    DCD    3210288746
        0x00006d0c:    bf07a136    6...    DCD    3204948278
        0x00006d10:    bf58e917    ..X.    DCD    3210275095
        0x00006d14:    bf07f66f    o...    DCD    3204970095
        0x00006d18:    bf58b3a1    ..X.    DCD    3210261409
        0x00006d1c:    bf084b92    .K..    DCD    3204991890
        0x00006d20:    bf587e0b    .~X.    DCD    3210247691
        0x00006d24:    bf08a0a1    ....    DCD    3205013665
        0x00006d28:    bf584853    SHX.    DCD    3210233939
        0x00006d2c:    bf08f59b    ....    DCD    3205035419
        0x00006d30:    bf581279    y.X.    DCD    3210220153
        0x00006d34:    bf094a7f    .J..    DCD    3205057151
        0x00006d38:    bf57dc7f    ..W.    DCD    3210206335
        0x00006d3c:    bf099f4e    N...    DCD    3205078862
        0x00006d40:    bf57a663    c.W.    DCD    3210192483
        0x00006d44:    bf09f409    ....    DCD    3205100553
        0x00006d48:    bf577026    &pW.    DCD    3210178598
        0x00006d4c:    bf0a48ad    .H..    DCD    3205122221
        0x00006d50:    bf5739c7    .9W.    DCD    3210164679
        0x00006d54:    bf0a9d3d    =...    DCD    3205143869
        0x00006d58:    bf570348    H.W.    DCD    3210150728
        0x00006d5c:    bf0af1b7    ....    DCD    3205165495
        0x00006d60:    bf56cca7    ..V.    DCD    3210136743
        0x00006d64:    bf0b461c    .F..    DCD    3205187100
        0x00006d68:    bf5695e5    ..V.    DCD    3210122725
        0x00006d6c:    bf0b9a6b    k...    DCD    3205208683
        0x00006d70:    bf565f02    ._V.    DCD    3210108674
        0x00006d74:    bf0beea5    ....    DCD    3205230245
        0x00006d78:    bf5627fe    .'V.    DCD    3210094590
        0x00006d7c:    bf0c42c9    .B..    DCD    3205251785
        0x00006d80:    bf55f0d9    ..U.    DCD    3210080473
        0x00006d84:    bf0c96d7    ....    DCD    3205273303
        0x00006d88:    bf55b993    ..U.    DCD    3210066323
        0x00006d8c:    bf0cead0    ....    DCD    3205294800
        0x00006d90:    bf55822c    ,.U.    DCD    3210052140
        0x00006d94:    bf0d3eb3    .>..    DCD    3205316275
        0x00006d98:    bf554aa4    .JU.    DCD    3210037924
        0x00006d9c:    bf0d9281    ....    DCD    3205337729
        0x00006da0:    bf5512fb    ..U.    DCD    3210023675
        0x00006da4:    bf0de638    8...    DCD    3205359160
        0x00006da8:    bf54db31    1.T.    DCD    3210009393
        0x00006dac:    bf0e39da    .9..    DCD    3205380570
        0x00006db0:    bf54a347    G.T.    DCD    3209995079
        0x00006db4:    bf0e8d65    e...    DCD    3205401957
        0x00006db8:    bf546b3b    ;kT.    DCD    3209980731
        0x00006dbc:    bf0ee0db    ....    DCD    3205423323
        0x00006dc0:    bf54330f    .3T.    DCD    3209966351
        0x00006dc4:    bf0f343b    ;4..    DCD    3205444667
        0x00006dc8:    bf53fac3    ..S.    DCD    3209951939
        0x00006dcc:    bf0f8784    ....    DCD    3205465988
        0x00006dd0:    bf53c255    U.S.    DCD    3209937493
        0x00006dd4:    bf0fdab8    ....    DCD    3205487288
        0x00006dd8:    bf5389c7    ..S.    DCD    3209923015
        0x00006ddc:    bf102dd5    .-..    DCD    3205508565
        0x00006de0:    bf535118    .QS.    DCD    3209908504
        0x00006de4:    bf1080dc    ....    DCD    3205529820
        0x00006de8:    bf531849    I.S.    DCD    3209893961
        0x00006dec:    bf10d3cd    ....    DCD    3205551053
        0x00006df0:    bf52df59    Y.R.    DCD    3209879385
        0x00006df4:    bf1126a7    .&..    DCD    3205572263
        0x00006df8:    bf52a649    I.R.    DCD    3209864777
        0x00006dfc:    bf11796b    ky..    DCD    3205593451
        0x00006e00:    bf526d18    .mR.    DCD    3209850136
        0x00006e04:    bf11cc19    ....    DCD    3205614617
        0x00006e08:    bf5233c6    .3R.    DCD    3209835462
        0x00006e0c:    bf121eb0    ....    DCD    3205635760
        0x00006e10:    bf51fa54    T.Q.    DCD    3209820756
        0x00006e14:    bf127130    0q..    DCD    3205656880
        0x00006e18:    bf51c0c2    ..Q.    DCD    3209806018
        0x00006e1c:    bf12c39a    ....    DCD    3205677978
        0x00006e20:    bf518710    ..Q.    DCD    3209791248
        0x00006e24:    bf1315ee    ....    DCD    3205699054
        0x00006e28:    bf514d3d    =MQ.    DCD    3209776445
        0x00006e2c:    bf13682a    *h..    DCD    3205720106
        0x00006e30:    bf51134a    J.Q.    DCD    3209761610
        0x00006e34:    bf13ba50    P...    DCD    3205741136
        0x00006e38:    bf50d937    7.P.    DCD    3209746743
        0x00006e3c:    bf140c5f    _...    DCD    3205762143
        0x00006e40:    bf509f03    ..P.    DCD    3209731843
        0x00006e44:    bf145e58    X^..    DCD    3205783128
        0x00006e48:    bf5064af    .dP.    DCD    3209716911
        0x00006e4c:    bf14b039    9...    DCD    3205804089
        0x00006e50:    bf502a3b    ;*P.    DCD    3209701947
        0x00006e54:    bf150204    ....    DCD    3205825028
        0x00006e58:    bf4fefa8    ..O.    DCD    3209686952
        0x00006e5c:    bf1553b7    .S..    DCD    3205845943
        0x00006e60:    bf4fb4f4    ..O.    DCD    3209671924
        0x00006e64:    bf15a554    T...    DCD    3205866836
        0x00006e68:    bf4f7a1f    .zO.    DCD    3209656863
        0x00006e6c:    bf15f6d9    ....    DCD    3205887705
        0x00006e70:    bf4f3f2b    +?O.    DCD    3209641771
        0x00006e74:    bf164847    GH..    DCD    3205908551
        0x00006e78:    bf4f0417    ..O.    DCD    3209626647
        0x00006e7c:    bf16999f    ....    DCD    3205929375
        0x00006e80:    bf4ec8e4    ..N.    DCD    3209611492
        0x00006e84:    bf16eadf    ....    DCD    3205950175
        0x00006e88:    bf4e8d90    ..N.    DCD    3209596304
        0x00006e8c:    bf173c07    .<..    DCD    3205970951
        0x00006e90:    bf4e521c    .RN.    DCD    3209581084
        0x00006e94:    bf178d18    ....    DCD    3205991704
        0x00006e98:    bf4e1689    ..N.    DCD    3209565833
        0x00006e9c:    bf17de12    ....    DCD    3206012434
        0x00006ea0:    bf4ddad5    ..M.    DCD    3209550549
        0x00006ea4:    bf182ef5    ....    DCD    3206033141
        0x00006ea8:    bf4d9f02    ..M.    DCD    3209535234
        0x00006eac:    bf187fc0    ....    DCD    3206053824
        0x00006eb0:    bf4d6310    .cM.    DCD    3209519888
        0x00006eb4:    bf18d073    s...    DCD    3206074483
        0x00006eb8:    bf4d26fd    .&M.    DCD    3209504509
        0x00006ebc:    bf19210f    .!..    DCD    3206095119
        0x00006ec0:    bf4ceacb    ..L.    DCD    3209489099
        0x00006ec4:    bf197194    .q..    DCD    3206115732
        0x00006ec8:    bf4cae79    y.L.    DCD    3209473657
        0x00006ecc:    bf19c200    ....    DCD    3206136320
        0x00006ed0:    bf4c7208    .rL.    DCD    3209458184
        0x00006ed4:    bf1a1255    U...    DCD    3206156885
        0x00006ed8:    bf4c3578    x5L.    DCD    3209442680
        0x00006edc:    bf1a6293    .b..    DCD    3206177427
        0x00006ee0:    bf4bf8c7    ..K.    DCD    3209427143
        0x00006ee4:    bf1ab2b8    ....    DCD    3206197944
        0x00006ee8:    bf4bbbf8    ..K.    DCD    3209411576
        0x00006eec:    bf1b02c6    ....    DCD    3206218438
        0x00006ef0:    bf4b7f09    ..K.    DCD    3209395977
        0x00006ef4:    bf1b52bb    .R..    DCD    3206238907
        0x00006ef8:    bf4b41fa    .AK.    DCD    3209380346
        0x00006efc:    bf1ba299    ....    DCD    3206259353
        0x00006f00:    bf4b04cc    ..K.    DCD    3209364684
        0x00006f04:    bf1bf25f    _...    DCD    3206279775
        0x00006f08:    bf4ac77f    ..J.    DCD    3209348991
        0x00006f0c:    bf1c420c    .B..    DCD    3206300172
        0x00006f10:    bf4a8a13    ..J.    DCD    3209333267
        0x00006f14:    bf1c91a2    ....    DCD    3206320546
        0x00006f18:    bf4a4c87    .LJ.    DCD    3209317511
        0x00006f1c:    bf1ce11f    ....    DCD    3206340895
        0x00006f20:    bf4a0edc    ..J.    DCD    3209301724
        0x00006f24:    bf1d3084    .0..    DCD    3206361220
        0x00006f28:    bf49d112    ..I.    DCD    3209285906
        0x00006f2c:    bf1d7fd1    ....    DCD    3206381521
        0x00006f30:    bf499329    ).I.    DCD    3209270057
        0x00006f34:    bf1dcf06    ....    DCD    3206401798
        0x00006f38:    bf495521    !UI.    DCD    3209254177
        0x00006f3c:    bf1e1e22    "...    DCD    3206422050
        0x00006f40:    bf4916fa    ..I.    DCD    3209238266
        0x00006f44:    bf1e6d26    &m..    DCD    3206442278
        0x00006f48:    bf48d8b3    ..H.    DCD    3209222323
        0x00006f4c:    bf1ebc12    ....    DCD    3206462482
        0x00006f50:    bf489a4e    N.H.    DCD    3209206350
        0x00006f54:    bf1f0ae5    ....    DCD    3206482661
        0x00006f58:    bf485bca    .[H.    DCD    3209190346
        0x00006f5c:    bf1f599f    .Y..    DCD    3206502815
        0x00006f60:    bf481d27    '.H.    DCD    3209174311
        0x00006f64:    bf1fa841    A...    DCD    3206522945
        0x00006f68:    bf47de65    e.G.    DCD    3209158245
        0x00006f6c:    bf1ff6cb    ....    DCD    3206543051
        0x00006f70:    bf479f84    ..G.    DCD    3209142148
        0x00006f74:    bf20453b    ;E .    DCD    3206563131
        0x00006f78:    bf476085    .`G.    DCD    3209126021
        0x00006f7c:    bf209393    .. .    DCD    3206583187
        0x00006f80:    bf472167    g!G.    DCD    3209109863
        0x00006f84:    bf20e1d2    .. .    DCD    3206603218
        0x00006f88:    bf46e22a    *.F.    DCD    3209093674
        0x00006f8c:    bf212ff9    ./!.    DCD    3206623225
        0x00006f90:    bf46a2ce    ..F.    DCD    3209077454
        0x00006f94:    bf217e06    .~!.    DCD    3206643206
        0x00006f98:    bf466354    TcF.    DCD    3209061204
        0x00006f9c:    bf21cbfb    ..!.    DCD    3206663163
        0x00006fa0:    bf4623bb    .#F.    DCD    3209044923
        0x00006fa4:    bf2219d7    ..".    DCD    3206683095
        0x00006fa8:    bf45e403    ..E.    DCD    3209028611
        0x00006fac:    bf226799    .g".    DCD    3206703001
        0x00006fb0:    bf45a42d    -.E.    DCD    3209012269
        0x00006fb4:    bf22b543    C.".    DCD    3206722883
        0x00006fb8:    bf456439    9dE.    DCD    3208995897
        0x00006fbc:    bf2302d3    ..#.    DCD    3206742739
        0x00006fc0:    bf452426    &$E.    DCD    3208979494
        0x00006fc4:    bf23504b    KP#.    DCD    3206762571
        0x00006fc8:    bf44e3f5    ..D.    DCD    3208963061
        0x00006fcc:    bf239da9    ..#.    DCD    3206782377
        0x00006fd0:    bf44a3a5    ..D.    DCD    3208946597
        0x00006fd4:    bf23eaee    ..#.    DCD    3206802158
        0x00006fd8:    bf446337    7cD.    DCD    3208930103
        0x00006fdc:    bf24381a    .8$.    DCD    3206821914
        0x00006fe0:    bf4422ab    ."D.    DCD    3208913579
        0x00006fe4:    bf24852c    ,.$.    DCD    3206841644
        0x00006fe8:    bf43e200    ..C.    DCD    3208897024
        0x00006fec:    bf24d225    %.$.    DCD    3206861349
        0x00006ff0:    bf43a138    8.C.    DCD    3208880440
        0x00006ff4:    bf251f04    ..%.    DCD    3206881028
        0x00006ff8:    bf436051    Q`C.    DCD    3208863825
        0x00006ffc:    bf256bcb    .k%.    DCD    3206900683
        0x00007000:    bf431f4c    L.C.    DCD    3208847180
        0x00007004:    bf25b877    w.%.    DCD    3206920311
        0x00007008:    bf42de29    ).B.    DCD    3208830505
        0x0000700c:    bf26050a    ..&.    DCD    3206939914
        0x00007010:    bf429ce8    ..B.    DCD    3208813800
        0x00007014:    bf265184    .Q&.    DCD    3206959492
        0x00007018:    bf425b89    .[B.    DCD    3208797065
        0x0000701c:    bf269de3    ..&.    DCD    3206979043
        0x00007020:    bf421a0b    ..B.    DCD    3208780299
        0x00007024:    bf26ea2a    *.&.    DCD    3206998570
        0x00007028:    bf41d870    p.A.    DCD    3208763504
        0x0000702c:    bf273656    V6'.    DCD    3207018070
        0x00007030:    bf4196b7    ..A.    DCD    3208746679
        0x00007034:    bf278268    h.'.    DCD    3207037544
        0x00007038:    bf4154e1    .TA.    DCD    3208729825
        0x0000703c:    bf27ce61    a.'.    DCD    3207056993
        0x00007040:    bf4112ec    ..A.    DCD    3208712940
        0x00007044:    bf281a40    @.(.    DCD    3207076416
        0x00007048:    bf40d0da    ..@.    DCD    3208696026
        0x0000704c:    bf286605    .f(.    DCD    3207095813
        0x00007050:    bf408ea9    ..@.    DCD    3208679081
        0x00007054:    bf28b1b0    ..(.    DCD    3207115184
        0x00007058:    bf404c5c    \L@.    DCD    3208662108
        0x0000705c:    bf28fd41    A.(.    DCD    3207134529
        0x00007060:    bf4009f0    ..@.    DCD    3208645104
        0x00007064:    bf2948b8    .H).    DCD    3207153848
        0x00007068:    bf3fc767    g.?.    DCD    3208628071
        0x0000706c:    bf299415    ..).    DCD    3207173141
        0x00007070:    bf3f84c0    ..?.    DCD    3208611008
        0x00007074:    bf29df57    W.).    DCD    3207192407
        0x00007078:    bf3f41fc    .A?.    DCD    3208593916
        0x0000707c:    bf2a2a80    .**.    DCD    3207211648
        0x00007080:    bf3eff1b    ..>.    DCD    3208576795
        0x00007084:    bf2a758e    .u*.    DCD    3207230862
        0x00007088:    bf3ebc1b    ..>.    DCD    3208559643
        0x0000708c:    bf2ac082    ..*.    DCD    3207250050
        0x00007090:    bf3e78ff    .x>.    DCD    3208542463
        0x00007094:    bf2b0b5b    [.+.    DCD    3207269211
        0x00007098:    bf3e35c5    .5>.    DCD    3208525253
        0x0000709c:    bf2b561b    .V+.    DCD    3207288347
        0x000070a0:    bf3df26e    n.=.    DCD    3208508014
        0x000070a4:    bf2ba0bf    ..+.    DCD    3207307455
        0x000070a8:    bf3daef9    ..=.    DCD    3208490745
        0x000070ac:    bf2beb4a    J.+.    DCD    3207326538
        0x000070b0:    bf3d6b67    gk=.    DCD    3208473447
        0x000070b4:    bf2c35b9    .5,.    DCD    3207345593
        0x000070b8:    bf3d27b8    .'=.    DCD    3208456120
        0x000070bc:    bf2c800f    ..,.    DCD    3207364623
        0x000070c0:    bf3ce3ec    ..<.    DCD    3208438764
        0x000070c4:    bf2cca49    I.,.    DCD    3207383625
        0x000070c8:    bf3ca003    ..<.    DCD    3208421379
        0x000070cc:    bf2d1469    i.-.    DCD    3207402601
        0x000070d0:    bf3c5bfc    .[<.    DCD    3208403964
        0x000070d4:    bf2d5e6f    o^-.    DCD    3207421551
        0x000070d8:    bf3c17d9    ..<.    DCD    3208386521
        0x000070dc:    bf2da859    Y.-.    DCD    3207440473
        0x000070e0:    bf3bd398    ..;.    DCD    3208369048
        0x000070e4:    bf2df229    ).-.    DCD    3207459369
        0x000070e8:    bf3b8f3b    ;.;.    DCD    3208351547
        0x000070ec:    bf2e3bde    .;..    DCD    3207478238
        0x000070f0:    bf3b4ac1    .J;.    DCD    3208334017
        0x000070f4:    bf2e8578    x...    DCD    3207497080
        0x000070f8:    bf3b0629    ).;.    DCD    3208316457
        0x000070fc:    bf2ecef7    ....    DCD    3207515895
        0x00007100:    bf3ac175    u.:.    DCD    3208298869
        0x00007104:    bf2f185b    [./.    DCD    3207534683
        0x00007108:    bf3a7ca4    .|:.    DCD    3208281252
        0x0000710c:    bf2f61a5    .a/.    DCD    3207553445
        0x00007110:    bf3a37b7    .7:.    DCD    3208263607
        0x00007114:    bf2faad3    ../.    DCD    3207572179
        0x00007118:    bf39f2ac    ..9.    DCD    3208245932
        0x0000711c:    bf2ff3e6    ../.    DCD    3207590886
        0x00007120:    bf39ad85    ..9.    DCD    3208228229
        0x00007124:    bf303cde    .<0.    DCD    3207609566
        0x00007128:    bf396842    Bh9.    DCD    3208210498
        0x0000712c:    bf3085bb    ..0.    DCD    3207628219
        0x00007130:    bf3922e1    ."9.    DCD    3208192737
        0x00007134:    bf30ce7c    |.0.    DCD    3207646844
        0x00007138:    bf38dd65    e.8.    DCD    3208174949
        0x0000713c:    bf311722    ".1.    DCD    3207665442
        0x00007140:    bf3897cb    ..8.    DCD    3208157131
        0x00007144:    bf315fad    ._1.    DCD    3207684013
        0x00007148:    bf385216    .R8.    DCD    3208139286
        0x0000714c:    bf31a81d    ..1.    DCD    3207702557
        0x00007150:    bf380c43    C.8.    DCD    3208121411
        0x00007154:    bf31f071    q.1.    DCD    3207721073
        0x00007158:    bf37c655    U.7.    DCD    3208103509
        0x0000715c:    bf3238aa    .82.    DCD    3207739562
        0x00007160:    bf37804a    J.7.    DCD    3208085578
        0x00007164:    bf3280c7    ..2.    DCD    3207758023
        0x00007168:    bf373a23    #:7.    DCD    3208067619
        0x0000716c:    bf32c8c9    ..2.    DCD    3207776457
        0x00007170:    bf36f3df    ..6.    DCD    3208049631
        0x00007174:    bf3310af    ..3.    DCD    3207794863
        0x00007178:    bf36ad7f    ..6.    DCD    3208031615
        0x0000717c:    bf33587a    zX3.    DCD    3207813242
        0x00007180:    bf366704    .g6.    DCD    3208013572
        0x00007184:    bf33a029    ).3.    DCD    3207831593
        0x00007188:    bf36206c    l 6.    DCD    3207995500
        0x0000718c:    bf33e7bc    ..3.    DCD    3207849916
        0x00007190:    bf35d9b8    ..5.    DCD    3207977400
        0x00007194:    bf342f34    4/4.    DCD    3207868212
        0x00007198:    bf3592e7    ..5.    DCD    3207959271
        0x0000719c:    bf34768f    .v4.    DCD    3207886479
        0x000071a0:    bf354bfb    .K5.    DCD    3207941115
        0x000071a4:    bf34bdcf    ..4.    DCD    3207904719
        0x000071a8:    bf3504f3    ..5.    DCD    3207922931
        0x000071ac:    bf3504f3    ..5.    DCD    3207922931
        0x000071b0:    bf34bdcf    ..4.    DCD    3207904719
        0x000071b4:    bf354bfb    .K5.    DCD    3207941115
        0x000071b8:    bf34768f    .v4.    DCD    3207886479
        0x000071bc:    bf3592e7    ..5.    DCD    3207959271
        0x000071c0:    bf342f34    4/4.    DCD    3207868212
        0x000071c4:    bf35d9b8    ..5.    DCD    3207977400
        0x000071c8:    bf33e7bc    ..3.    DCD    3207849916
        0x000071cc:    bf36206c    l 6.    DCD    3207995500
        0x000071d0:    bf33a029    ).3.    DCD    3207831593
        0x000071d4:    bf366704    .g6.    DCD    3208013572
        0x000071d8:    bf33587a    zX3.    DCD    3207813242
        0x000071dc:    bf36ad7f    ..6.    DCD    3208031615
        0x000071e0:    bf3310af    ..3.    DCD    3207794863
        0x000071e4:    bf36f3df    ..6.    DCD    3208049631
        0x000071e8:    bf32c8c9    ..2.    DCD    3207776457
        0x000071ec:    bf373a23    #:7.    DCD    3208067619
        0x000071f0:    bf3280c7    ..2.    DCD    3207758023
        0x000071f4:    bf37804a    J.7.    DCD    3208085578
        0x000071f8:    bf3238aa    .82.    DCD    3207739562
        0x000071fc:    bf37c655    U.7.    DCD    3208103509
        0x00007200:    bf31f071    q.1.    DCD    3207721073
        0x00007204:    bf380c43    C.8.    DCD    3208121411
        0x00007208:    bf31a81d    ..1.    DCD    3207702557
        0x0000720c:    bf385216    .R8.    DCD    3208139286
        0x00007210:    bf315fad    ._1.    DCD    3207684013
        0x00007214:    bf3897cb    ..8.    DCD    3208157131
        0x00007218:    bf311722    ".1.    DCD    3207665442
        0x0000721c:    bf38dd65    e.8.    DCD    3208174949
        0x00007220:    bf30ce7c    |.0.    DCD    3207646844
        0x00007224:    bf3922e1    ."9.    DCD    3208192737
        0x00007228:    bf3085bb    ..0.    DCD    3207628219
        0x0000722c:    bf396842    Bh9.    DCD    3208210498
        0x00007230:    bf303cde    .<0.    DCD    3207609566
        0x00007234:    bf39ad85    ..9.    DCD    3208228229
        0x00007238:    bf2ff3e6    ../.    DCD    3207590886
        0x0000723c:    bf39f2ac    ..9.    DCD    3208245932
        0x00007240:    bf2faad3    ../.    DCD    3207572179
        0x00007244:    bf3a37b7    .7:.    DCD    3208263607
        0x00007248:    bf2f61a5    .a/.    DCD    3207553445
        0x0000724c:    bf3a7ca4    .|:.    DCD    3208281252
        0x00007250:    bf2f185b    [./.    DCD    3207534683
        0x00007254:    bf3ac175    u.:.    DCD    3208298869
        0x00007258:    bf2ecef7    ....    DCD    3207515895
        0x0000725c:    bf3b0629    ).;.    DCD    3208316457
        0x00007260:    bf2e8578    x...    DCD    3207497080
        0x00007264:    bf3b4ac1    .J;.    DCD    3208334017
        0x00007268:    bf2e3bde    .;..    DCD    3207478238
        0x0000726c:    bf3b8f3b    ;.;.    DCD    3208351547
        0x00007270:    bf2df229    ).-.    DCD    3207459369
        0x00007274:    bf3bd398    ..;.    DCD    3208369048
        0x00007278:    bf2da859    Y.-.    DCD    3207440473
        0x0000727c:    bf3c17d9    ..<.    DCD    3208386521
        0x00007280:    bf2d5e6f    o^-.    DCD    3207421551
        0x00007284:    bf3c5bfc    .[<.    DCD    3208403964
        0x00007288:    bf2d1469    i.-.    DCD    3207402601
        0x0000728c:    bf3ca003    ..<.    DCD    3208421379
        0x00007290:    bf2cca49    I.,.    DCD    3207383625
        0x00007294:    bf3ce3ec    ..<.    DCD    3208438764
        0x00007298:    bf2c800f    ..,.    DCD    3207364623
        0x0000729c:    bf3d27b8    .'=.    DCD    3208456120
        0x000072a0:    bf2c35b9    .5,.    DCD    3207345593
        0x000072a4:    bf3d6b67    gk=.    DCD    3208473447
        0x000072a8:    bf2beb4a    J.+.    DCD    3207326538
        0x000072ac:    bf3daef9    ..=.    DCD    3208490745
        0x000072b0:    bf2ba0bf    ..+.    DCD    3207307455
        0x000072b4:    bf3df26e    n.=.    DCD    3208508014
        0x000072b8:    bf2b561b    .V+.    DCD    3207288347
        0x000072bc:    bf3e35c5    .5>.    DCD    3208525253
        0x000072c0:    bf2b0b5b    [.+.    DCD    3207269211
        0x000072c4:    bf3e78ff    .x>.    DCD    3208542463
        0x000072c8:    bf2ac082    ..*.    DCD    3207250050
        0x000072cc:    bf3ebc1b    ..>.    DCD    3208559643
        0x000072d0:    bf2a758e    .u*.    DCD    3207230862
        0x000072d4:    bf3eff1b    ..>.    DCD    3208576795
        0x000072d8:    bf2a2a80    .**.    DCD    3207211648
        0x000072dc:    bf3f41fc    .A?.    DCD    3208593916
        0x000072e0:    bf29df57    W.).    DCD    3207192407
        0x000072e4:    bf3f84c0    ..?.    DCD    3208611008
        0x000072e8:    bf299415    ..).    DCD    3207173141
        0x000072ec:    bf3fc767    g.?.    DCD    3208628071
        0x000072f0:    bf2948b8    .H).    DCD    3207153848
        0x000072f4:    bf4009f0    ..@.    DCD    3208645104
        0x000072f8:    bf28fd41    A.(.    DCD    3207134529
        0x000072fc:    bf404c5c    \L@.    DCD    3208662108
        0x00007300:    bf28b1b0    ..(.    DCD    3207115184
        0x00007304:    bf408ea9    ..@.    DCD    3208679081
        0x00007308:    bf286605    .f(.    DCD    3207095813
        0x0000730c:    bf40d0da    ..@.    DCD    3208696026
        0x00007310:    bf281a40    @.(.    DCD    3207076416
        0x00007314:    bf4112ec    ..A.    DCD    3208712940
        0x00007318:    bf27ce61    a.'.    DCD    3207056993
        0x0000731c:    bf4154e1    .TA.    DCD    3208729825
        0x00007320:    bf278268    h.'.    DCD    3207037544
        0x00007324:    bf4196b7    ..A.    DCD    3208746679
        0x00007328:    bf273656    V6'.    DCD    3207018070
        0x0000732c:    bf41d870    p.A.    DCD    3208763504
        0x00007330:    bf26ea2a    *.&.    DCD    3206998570
        0x00007334:    bf421a0b    ..B.    DCD    3208780299
        0x00007338:    bf269de3    ..&.    DCD    3206979043
        0x0000733c:    bf425b89    .[B.    DCD    3208797065
        0x00007340:    bf265184    .Q&.    DCD    3206959492
        0x00007344:    bf429ce8    ..B.    DCD    3208813800
        0x00007348:    bf26050a    ..&.    DCD    3206939914
        0x0000734c:    bf42de29    ).B.    DCD    3208830505
        0x00007350:    bf25b877    w.%.    DCD    3206920311
        0x00007354:    bf431f4c    L.C.    DCD    3208847180
        0x00007358:    bf256bcb    .k%.    DCD    3206900683
        0x0000735c:    bf436051    Q`C.    DCD    3208863825
        0x00007360:    bf251f04    ..%.    DCD    3206881028
        0x00007364:    bf43a138    8.C.    DCD    3208880440
        0x00007368:    bf24d225    %.$.    DCD    3206861349
        0x0000736c:    bf43e200    ..C.    DCD    3208897024
        0x00007370:    bf24852c    ,.$.    DCD    3206841644
        0x00007374:    bf4422ab    ."D.    DCD    3208913579
        0x00007378:    bf24381a    .8$.    DCD    3206821914
        0x0000737c:    bf446337    7cD.    DCD    3208930103
        0x00007380:    bf23eaee    ..#.    DCD    3206802158
        0x00007384:    bf44a3a5    ..D.    DCD    3208946597
        0x00007388:    bf239da9    ..#.    DCD    3206782377
        0x0000738c:    bf44e3f5    ..D.    DCD    3208963061
        0x00007390:    bf23504b    KP#.    DCD    3206762571
        0x00007394:    bf452426    &$E.    DCD    3208979494
        0x00007398:    bf2302d3    ..#.    DCD    3206742739
        0x0000739c:    bf456439    9dE.    DCD    3208995897
        0x000073a0:    bf22b543    C.".    DCD    3206722883
        0x000073a4:    bf45a42d    -.E.    DCD    3209012269
        0x000073a8:    bf226799    .g".    DCD    3206703001
        0x000073ac:    bf45e403    ..E.    DCD    3209028611
        0x000073b0:    bf2219d7    ..".    DCD    3206683095
        0x000073b4:    bf4623bb    .#F.    DCD    3209044923
        0x000073b8:    bf21cbfb    ..!.    DCD    3206663163
        0x000073bc:    bf466354    TcF.    DCD    3209061204
        0x000073c0:    bf217e06    .~!.    DCD    3206643206
        0x000073c4:    bf46a2ce    ..F.    DCD    3209077454
        0x000073c8:    bf212ff9    ./!.    DCD    3206623225
        0x000073cc:    bf46e22a    *.F.    DCD    3209093674
        0x000073d0:    bf20e1d2    .. .    DCD    3206603218
        0x000073d4:    bf472167    g!G.    DCD    3209109863
        0x000073d8:    bf209393    .. .    DCD    3206583187
        0x000073dc:    bf476085    .`G.    DCD    3209126021
        0x000073e0:    bf20453b    ;E .    DCD    3206563131
        0x000073e4:    bf479f84    ..G.    DCD    3209142148
        0x000073e8:    bf1ff6cb    ....    DCD    3206543051
        0x000073ec:    bf47de65    e.G.    DCD    3209158245
        0x000073f0:    bf1fa841    A...    DCD    3206522945
        0x000073f4:    bf481d27    '.H.    DCD    3209174311
        0x000073f8:    bf1f599f    .Y..    DCD    3206502815
        0x000073fc:    bf485bca    .[H.    DCD    3209190346
        0x00007400:    bf1f0ae5    ....    DCD    3206482661
        0x00007404:    bf489a4e    N.H.    DCD    3209206350
        0x00007408:    bf1ebc12    ....    DCD    3206462482
        0x0000740c:    bf48d8b3    ..H.    DCD    3209222323
        0x00007410:    bf1e6d26    &m..    DCD    3206442278
        0x00007414:    bf4916fa    ..I.    DCD    3209238266
        0x00007418:    bf1e1e22    "...    DCD    3206422050
        0x0000741c:    bf495521    !UI.    DCD    3209254177
        0x00007420:    bf1dcf06    ....    DCD    3206401798
        0x00007424:    bf499329    ).I.    DCD    3209270057
        0x00007428:    bf1d7fd1    ....    DCD    3206381521
        0x0000742c:    bf49d112    ..I.    DCD    3209285906
        0x00007430:    bf1d3084    .0..    DCD    3206361220
        0x00007434:    bf4a0edc    ..J.    DCD    3209301724
        0x00007438:    bf1ce11f    ....    DCD    3206340895
        0x0000743c:    bf4a4c87    .LJ.    DCD    3209317511
        0x00007440:    bf1c91a2    ....    DCD    3206320546
        0x00007444:    bf4a8a13    ..J.    DCD    3209333267
        0x00007448:    bf1c420c    .B..    DCD    3206300172
        0x0000744c:    bf4ac77f    ..J.    DCD    3209348991
        0x00007450:    bf1bf25f    _...    DCD    3206279775
        0x00007454:    bf4b04cc    ..K.    DCD    3209364684
        0x00007458:    bf1ba299    ....    DCD    3206259353
        0x0000745c:    bf4b41fa    .AK.    DCD    3209380346
        0x00007460:    bf1b52bb    .R..    DCD    3206238907
        0x00007464:    bf4b7f09    ..K.    DCD    3209395977
        0x00007468:    bf1b02c6    ....    DCD    3206218438
        0x0000746c:    bf4bbbf8    ..K.    DCD    3209411576
        0x00007470:    bf1ab2b8    ....    DCD    3206197944
        0x00007474:    bf4bf8c7    ..K.    DCD    3209427143
        0x00007478:    bf1a6293    .b..    DCD    3206177427
        0x0000747c:    bf4c3578    x5L.    DCD    3209442680
        0x00007480:    bf1a1255    U...    DCD    3206156885
        0x00007484:    bf4c7208    .rL.    DCD    3209458184
        0x00007488:    bf19c200    ....    DCD    3206136320
        0x0000748c:    bf4cae79    y.L.    DCD    3209473657
        0x00007490:    bf197194    .q..    DCD    3206115732
        0x00007494:    bf4ceacb    ..L.    DCD    3209489099
        0x00007498:    bf19210f    .!..    DCD    3206095119
        0x0000749c:    bf4d26fd    .&M.    DCD    3209504509
        0x000074a0:    bf18d073    s...    DCD    3206074483
        0x000074a4:    bf4d6310    .cM.    DCD    3209519888
        0x000074a8:    bf187fc0    ....    DCD    3206053824
        0x000074ac:    bf4d9f02    ..M.    DCD    3209535234
        0x000074b0:    bf182ef5    ....    DCD    3206033141
        0x000074b4:    bf4ddad5    ..M.    DCD    3209550549
        0x000074b8:    bf17de12    ....    DCD    3206012434
        0x000074bc:    bf4e1689    ..N.    DCD    3209565833
        0x000074c0:    bf178d18    ....    DCD    3205991704
        0x000074c4:    bf4e521c    .RN.    DCD    3209581084
        0x000074c8:    bf173c07    .<..    DCD    3205970951
        0x000074cc:    bf4e8d90    ..N.    DCD    3209596304
        0x000074d0:    bf16eadf    ....    DCD    3205950175
        0x000074d4:    bf4ec8e4    ..N.    DCD    3209611492
        0x000074d8:    bf16999f    ....    DCD    3205929375
        0x000074dc:    bf4f0417    ..O.    DCD    3209626647
        0x000074e0:    bf164847    GH..    DCD    3205908551
        0x000074e4:    bf4f3f2b    +?O.    DCD    3209641771
        0x000074e8:    bf15f6d9    ....    DCD    3205887705
        0x000074ec:    bf4f7a1f    .zO.    DCD    3209656863
        0x000074f0:    bf15a554    T...    DCD    3205866836
        0x000074f4:    bf4fb4f4    ..O.    DCD    3209671924
        0x000074f8:    bf1553b7    .S..    DCD    3205845943
        0x000074fc:    bf4fefa8    ..O.    DCD    3209686952
        0x00007500:    bf150204    ....    DCD    3205825028
        0x00007504:    bf502a3b    ;*P.    DCD    3209701947
        0x00007508:    bf14b039    9...    DCD    3205804089
        0x0000750c:    bf5064af    .dP.    DCD    3209716911
        0x00007510:    bf145e58    X^..    DCD    3205783128
        0x00007514:    bf509f03    ..P.    DCD    3209731843
        0x00007518:    bf140c5f    _...    DCD    3205762143
        0x0000751c:    bf50d937    7.P.    DCD    3209746743
        0x00007520:    bf13ba50    P...    DCD    3205741136
        0x00007524:    bf51134a    J.Q.    DCD    3209761610
        0x00007528:    bf13682a    *h..    DCD    3205720106
        0x0000752c:    bf514d3d    =MQ.    DCD    3209776445
        0x00007530:    bf1315ee    ....    DCD    3205699054
        0x00007534:    bf518710    ..Q.    DCD    3209791248
        0x00007538:    bf12c39a    ....    DCD    3205677978
        0x0000753c:    bf51c0c2    ..Q.    DCD    3209806018
        0x00007540:    bf127130    0q..    DCD    3205656880
        0x00007544:    bf51fa54    T.Q.    DCD    3209820756
        0x00007548:    bf121eb0    ....    DCD    3205635760
        0x0000754c:    bf5233c6    .3R.    DCD    3209835462
        0x00007550:    bf11cc19    ....    DCD    3205614617
        0x00007554:    bf526d18    .mR.    DCD    3209850136
        0x00007558:    bf11796b    ky..    DCD    3205593451
        0x0000755c:    bf52a649    I.R.    DCD    3209864777
        0x00007560:    bf1126a7    .&..    DCD    3205572263
        0x00007564:    bf52df59    Y.R.    DCD    3209879385
        0x00007568:    bf10d3cd    ....    DCD    3205551053
        0x0000756c:    bf531849    I.S.    DCD    3209893961
        0x00007570:    bf1080dc    ....    DCD    3205529820
        0x00007574:    bf535118    .QS.    DCD    3209908504
        0x00007578:    bf102dd5    .-..    DCD    3205508565
        0x0000757c:    bf5389c7    ..S.    DCD    3209923015
        0x00007580:    bf0fdab8    ....    DCD    3205487288
        0x00007584:    bf53c255    U.S.    DCD    3209937493
        0x00007588:    bf0f8784    ....    DCD    3205465988
        0x0000758c:    bf53fac3    ..S.    DCD    3209951939
        0x00007590:    bf0f343b    ;4..    DCD    3205444667
        0x00007594:    bf54330f    .3T.    DCD    3209966351
        0x00007598:    bf0ee0db    ....    DCD    3205423323
        0x0000759c:    bf546b3b    ;kT.    DCD    3209980731
        0x000075a0:    bf0e8d65    e...    DCD    3205401957
        0x000075a4:    bf54a347    G.T.    DCD    3209995079
        0x000075a8:    bf0e39da    .9..    DCD    3205380570
        0x000075ac:    bf54db31    1.T.    DCD    3210009393
        0x000075b0:    bf0de638    8...    DCD    3205359160
        0x000075b4:    bf5512fb    ..U.    DCD    3210023675
        0x000075b8:    bf0d9281    ....    DCD    3205337729
        0x000075bc:    bf554aa4    .JU.    DCD    3210037924
        0x000075c0:    bf0d3eb3    .>..    DCD    3205316275
        0x000075c4:    bf55822c    ,.U.    DCD    3210052140
        0x000075c8:    bf0cead0    ....    DCD    3205294800
        0x000075cc:    bf55b993    ..U.    DCD    3210066323
        0x000075d0:    bf0c96d7    ....    DCD    3205273303
        0x000075d4:    bf55f0d9    ..U.    DCD    3210080473
        0x000075d8:    bf0c42c9    .B..    DCD    3205251785
        0x000075dc:    bf5627fe    .'V.    DCD    3210094590
        0x000075e0:    bf0beea5    ....    DCD    3205230245
        0x000075e4:    bf565f02    ._V.    DCD    3210108674
        0x000075e8:    bf0b9a6b    k...    DCD    3205208683
        0x000075ec:    bf5695e5    ..V.    DCD    3210122725
        0x000075f0:    bf0b461c    .F..    DCD    3205187100
        0x000075f4:    bf56cca7    ..V.    DCD    3210136743
        0x000075f8:    bf0af1b7    ....    DCD    3205165495
        0x000075fc:    bf570348    H.W.    DCD    3210150728
        0x00007600:    bf0a9d3d    =...    DCD    3205143869
        0x00007604:    bf5739c7    .9W.    DCD    3210164679
        0x00007608:    bf0a48ad    .H..    DCD    3205122221
        0x0000760c:    bf577026    &pW.    DCD    3210178598
        0x00007610:    bf09f409    ....    DCD    3205100553
        0x00007614:    bf57a663    c.W.    DCD    3210192483
        0x00007618:    bf099f4e    N...    DCD    3205078862
        0x0000761c:    bf57dc7f    ..W.    DCD    3210206335
        0x00007620:    bf094a7f    .J..    DCD    3205057151
        0x00007624:    bf581279    y.X.    DCD    3210220153
        0x00007628:    bf08f59b    ....    DCD    3205035419
        0x0000762c:    bf584853    SHX.    DCD    3210233939
        0x00007630:    bf08a0a1    ....    DCD    3205013665
        0x00007634:    bf587e0b    .~X.    DCD    3210247691
        0x00007638:    bf084b92    .K..    DCD    3204991890
        0x0000763c:    bf58b3a1    ..X.    DCD    3210261409
        0x00007640:    bf07f66f    o...    DCD    3204970095
        0x00007644:    bf58e917    ..X.    DCD    3210275095
        0x00007648:    bf07a136    6...    DCD    3204948278
        0x0000764c:    bf591e6a    j.Y.    DCD    3210288746
        0x00007650:    bf074be8    .K..    DCD    3204926440
        0x00007654:    bf59539c    .SY.    DCD    3210302364
        0x00007658:    bf06f686    ....    DCD    3204904582
        0x0000765c:    bf5988ad    ..Y.    DCD    3210315949
        0x00007660:    bf06a10e    ....    DCD    3204882702
        0x00007664:    bf59bd9c    ..Y.    DCD    3210329500
        0x00007668:    bf064b82    .K..    DCD    3204860802
        0x0000766c:    bf59f26a    j.Y.    DCD    3210343018
        0x00007670:    bf05f5e2    ....    DCD    3204838882
        0x00007674:    bf5a2716    .'Z.    DCD    3210356502
        0x00007678:    bf05a02c    ,...    DCD    3204816940
        0x0000767c:    bf5a5ba0    .[Z.    DCD    3210369952
        0x00007680:    bf054a62    bJ..    DCD    3204794978
        0x00007684:    bf5a9009    ..Z.    DCD    3210383369
        0x00007688:    bf04f484    ....    DCD    3204772996
        0x0000768c:    bf5ac450    P.Z.    DCD    3210396752
        0x00007690:    bf049e91    ....    DCD    3204750993
        0x00007694:    bf5af875    u.Z.    DCD    3210410101
        0x00007698:    bf044889    .H..    DCD    3204728969
        0x0000769c:    bf5b2c79    y,[.    DCD    3210423417
        0x000076a0:    bf03f26d    m...    DCD    3204706925
        0x000076a4:    bf5b605a    Z`[.    DCD    3210436698
        0x000076a8:    bf039c3d    =...    DCD    3204684861
        0x000076ac:    bf5b941a    ..[.    DCD    3210449946
        0x000076b0:    bf0345f8    .E..    DCD    3204662776
        0x000076b4:    bf5bc7b8    ..[.    DCD    3210463160
        0x000076b8:    bf02ef9f    ....    DCD    3204640671
        0x000076bc:    bf5bfb34    4.[.    DCD    3210476340
        0x000076c0:    bf029932    2...    DCD    3204618546
        0x000076c4:    bf5c2e8e    ..\.    DCD    3210489486
        0x000076c8:    bf0242b1    .B..    DCD    3204596401
        0x000076cc:    bf5c61c7    .a\.    DCD    3210502599
        0x000076d0:    bf01ec1c    ....    DCD    3204574236
        0x000076d4:    bf5c94dd    ..\.    DCD    3210515677
        0x000076d8:    bf019573    s...    DCD    3204552051
        0x000076dc:    bf5cc7d1    ..\.    DCD    3210528721
        0x000076e0:    bf013eb5    .>..    DCD    3204529845
        0x000076e4:    bf5cfaa3    ..\.    DCD    3210541731
        0x000076e8:    bf00e7e4    ....    DCD    3204507620
        0x000076ec:    bf5d2d53    S-].    DCD    3210554707
        0x000076f0:    bf0090ff    ....    DCD    3204485375
        0x000076f4:    bf5d5fe1    ._].    DCD    3210567649
        0x000076f8:    bf003a06    .:..    DCD    3204463110
        0x000076fc:    bf5d924d    M.].    DCD    3210580557
        0x00007700:    beffc5f3    ....    DCD    3204433395
        0x00007704:    bf5dc497    ..].    DCD    3210593431
        0x00007708:    beff17b2    ....    DCD    3204388786
        0x0000770c:    bf5df6be    ..].    DCD    3210606270
        0x00007710:    befe694a    Ji..    DCD    3204344138
        0x00007714:    bf5e28c3    .(^.    DCD    3210619075
        0x00007718:    befdbabb    ....    DCD    3204299451
        0x0000771c:    bf5e5aa6    .Z^.    DCD    3210631846
        0x00007720:    befd0c04    ....    DCD    3204254724
        0x00007724:    bf5e8c67    g.^.    DCD    3210644583
        0x00007728:    befc5d27    ']..    DCD    3204209959
        0x0000772c:    bf5ebe05    ..^.    DCD    3210657285
        0x00007730:    befbae22    "...    DCD    3204165154
        0x00007734:    bf5eef81    ..^.    DCD    3210669953
        0x00007738:    befafef7    ....    DCD    3204120311
        0x0000773c:    bf5f20db    . _.    DCD    3210682587
        0x00007740:    befa4fa5    .O..    DCD    3204075429
        0x00007744:    bf5f5212    .R_.    DCD    3210695186
        0x00007748:    bef9a02d    -...    DCD    3204030509
        0x0000774c:    bf5f8327    '._.    DCD    3210707751
        0x00007750:    bef8f08e    ....    DCD    3203985550
        0x00007754:    bf5fb419    .._.    DCD    3210720281
        0x00007758:    bef840c8    .@..    DCD    3203940552
        0x0000775c:    bf5fe4e9    .._.    DCD    3210732777
        0x00007760:    bef790dc    ....    DCD    3203895516
        0x00007764:    bf601596    ..`.    DCD    3210745238
        0x00007768:    bef6e0cb    ....    DCD    3203850443
        0x0000776c:    bf604621    !F`.    DCD    3210757665
        0x00007770:    bef63093    .0..    DCD    3203805331
        0x00007774:    bf607689    .v`.    DCD    3210770057
        0x00007778:    bef58035    5...    DCD    3203760181
        0x0000777c:    bf60a6cf    ..`.    DCD    3210782415
        0x00007780:    bef4cfb1    ....    DCD    3203714993
        0x00007784:    bf60d6f2    ..`.    DCD    3210794738
        0x00007788:    bef41f07    ....    DCD    3203669767
        0x0000778c:    bf6106f2    ..a.    DCD    3210807026
        0x00007790:    bef36e38    8n..    DCD    3203624504
        0x00007794:    bf6136d0    .6a.    DCD    3210819280
        0x00007798:    bef2bd43    C...    DCD    3203579203
        0x0000779c:    bf61668a    .fa.    DCD    3210831498
        0x000077a0:    bef20c29    )...    DCD    3203533865
        0x000077a4:    bf619622    ".a.    DCD    3210843682
        0x000077a8:    bef15aea    .Z..    DCD    3203488490
        0x000077ac:    bf61c598    ..a.    DCD    3210855832
        0x000077b0:    bef0a985    ....    DCD    3203443077
        0x000077b4:    bf61f4ea    ..a.    DCD    3210867946
        0x000077b8:    beeff7fb    ....    DCD    3203397627
        0x000077bc:    bf62241a    .$b.    DCD    3210880026
        0x000077c0:    beef464c    LF..    DCD    3203352140
        0x000077c4:    bf625326    &Sb.    DCD    3210892070
        0x000077c8:    beee9479    y...    DCD    3203306617
        0x000077cc:    bf628210    ..b.    DCD    3210904080
        0x000077d0:    beede280    ....    DCD    3203261056
        0x000077d4:    bf62b0d7    ..b.    DCD    3210916055
        0x000077d8:    beed3063    c0..    DCD    3203215459
        0x000077dc:    bf62df7b    {.b.    DCD    3210927995
        0x000077e0:    beec7e21    !~..    DCD    3203169825
        0x000077e4:    bf630dfc    ..c.    DCD    3210939900
        0x000077e8:    beebcbbb    ....    DCD    3203124155
        0x000077ec:    bf633c5a    Z<c.    DCD    3210951770
        0x000077f0:    beeb1930    0...    DCD    3203078448
        0x000077f4:    bf636a95    .jc.    DCD    3210963605
        0x000077f8:    beea6681    .f..    DCD    3203032705
        0x000077fc:    bf6398ac    ..c.    DCD    3210975404
        0x00007800:    bee9b3ae    ....    DCD    3202986926
        0x00007804:    bf63c6a1    ..c.    DCD    3210987169
        0x00007808:    bee900b7    ....    DCD    3202941111
        0x0000780c:    bf63f473    s.c.    DCD    3210998899
        0x00007810:    bee84d9c    .M..    DCD    3202895260
        0x00007814:    bf642221    !"d.    DCD    3211010593
        0x00007818:    bee79a5d    ]...    DCD    3202849373
        0x0000781c:    bf644fac    .Od.    DCD    3211022252
        0x00007820:    bee6e6fb    ....    DCD    3202803451
        0x00007824:    bf647d14    .}d.    DCD    3211033876
        0x00007828:    bee63375    u3..    DCD    3202757493
        0x0000782c:    bf64aa59    Y.d.    DCD    3211045465
        0x00007830:    bee57fcb    ....    DCD    3202711499
        0x00007834:    bf64d77b    {.d.    DCD    3211057019
        0x00007838:    bee4cbfe    ....    DCD    3202665470
        0x0000783c:    bf650479    y.e.    DCD    3211068537
        0x00007840:    bee4180e    ....    DCD    3202619406
        0x00007844:    bf653154    T1e.    DCD    3211080020
        0x00007848:    bee363fa    .c..    DCD    3202573306
        0x0000784c:    bf655e0b    .^e.    DCD    3211091467
        0x00007850:    bee2afc4    ....    DCD    3202527172
        0x00007854:    bf658aa0    ..e.    DCD    3211102880
        0x00007858:    bee1fb6a    j...    DCD    3202481002
        0x0000785c:    bf65b710    ..e.    DCD    3211114256
        0x00007860:    bee146ee    .F..    DCD    3202434798
        0x00007864:    bf65e35e    ^.e.    DCD    3211125598
        0x00007868:    bee0924f    O...    DCD    3202388559
        0x0000786c:    bf660f88    ..f.    DCD    3211136904
        0x00007870:    bedfdd8d    ....    DCD    3202342285
        0x00007874:    bf663b8e    .;f.    DCD    3211148174
        0x00007878:    bedf28a9    .(..    DCD    3202295977
        0x0000787c:    bf666771    qgf.    DCD    3211159409
        0x00007880:    bede73a2    .s..    DCD    3202249634
        0x00007884:    bf669330    0.f.    DCD    3211170608
        0x00007888:    beddbe79    y...    DCD    3202203257
        0x0000788c:    bf66becc    ..f.    DCD    3211181772
        0x00007890:    bedd092e    ....    DCD    3202156846
        0x00007894:    bf66ea45    E.f.    DCD    3211192901
        0x00007898:    bedc53c1    .S..    DCD    3202110401
        0x0000789c:    bf671599    ..g.    DCD    3211203993
        0x000078a0:    bedb9e31    1...    DCD    3202063921
        0x000078a4:    bf6740ca    .@g.    DCD    3211215050
        0x000078a8:    bedae880    ....    DCD    3202017408
        0x000078ac:    bf676bd8    .kg.    DCD    3211226072
        0x000078b0:    beda32ad    .2..    DCD    3201970861
        0x000078b4:    bf6796c1    ..g.    DCD    3211237057
        0x000078b8:    bed97cb9    .|..    DCD    3201924281
        0x000078bc:    bf67c187    ..g.    DCD    3211248007
        0x000078c0:    bed8c6a3    ....    DCD    3201877667
        0x000078c4:    bf67ec2a    *.g.    DCD    3211258922
        0x000078c8:    bed8106b    k...    DCD    3201831019
        0x000078cc:    bf6816a8    ..h.    DCD    3211269800
        0x000078d0:    bed75a13    .Z..    DCD    3201784339
        0x000078d4:    bf684103    .Ah.    DCD    3211280643
        0x000078d8:    bed6a399    ....    DCD    3201737625
        0x000078dc:    bf686b39    9kh.    DCD    3211291449
        0x000078e0:    bed5ecfd    ....    DCD    3201690877
        0x000078e4:    bf68954c    L.h.    DCD    3211302220
        0x000078e8:    bed53641    A6..    DCD    3201644097
        0x000078ec:    bf68bf3c    <.h.    DCD    3211312956
        0x000078f0:    bed47f64    d...    DCD    3201597284
        0x000078f4:    bf68e907    ..h.    DCD    3211323655
        0x000078f8:    bed3c867    g...    DCD    3201550439
        0x000078fc:    bf6912ae    ..i.    DCD    3211334318
        0x00007900:    bed31148    H...    DCD    3201503560
        0x00007904:    bf693c32    2<i.    DCD    3211344946
        0x00007908:    bed25a09    .Z..    DCD    3201456649
        0x0000790c:    bf696591    .ei.    DCD    3211355537
        0x00007910:    bed1a2aa    ....    DCD    3201409706
        0x00007914:    bf698ecc    ..i.    DCD    3211366092
        0x00007918:    bed0eb2a    *...    DCD    3201362730
        0x0000791c:    bf69b7e4    ..i.    DCD    3211376612
        0x00007920:    bed0338a    .3..    DCD    3201315722
        0x00007924:    bf69e0d7    ..i.    DCD    3211387095
        0x00007928:    becf7bca    .{..    DCD    3201268682
        0x0000792c:    bf6a09a7    ..j.    DCD    3211397543
        0x00007930:    becec3ea    ....    DCD    3201221610
        0x00007934:    bf6a3252    R2j.    DCD    3211407954
        0x00007938:    bece0bea    ....    DCD    3201174506
        0x0000793c:    bf6a5ad9    .Zj.    DCD    3211418329
        0x00007940:    becd53ca    .S..    DCD    3201127370
        0x00007944:    bf6a833c    <.j.    DCD    3211428668
        0x00007948:    becc9b8b    ....    DCD    3201080203
        0x0000794c:    bf6aab7b    {.j.    DCD    3211438971
        0x00007950:    becbe32c    ,...    DCD    3201033004
        0x00007954:    bf6ad395    ..j.    DCD    3211449237
        0x00007958:    becb2aae    .*..    DCD    3200985774
        0x0000795c:    bf6afb8c    ..j.    DCD    3211459468
        0x00007960:    beca7210    .r..    DCD    3200938512
        0x00007964:    bf6b235e    ^#k.    DCD    3211469662
        0x00007968:    bec9b953    S...    DCD    3200891219
        0x0000796c:    bf6b4b0c    .Kk.    DCD    3211479820
        0x00007970:    bec90077    w...    DCD    3200843895
        0x00007974:    bf6b7295    .rk.    DCD    3211489941
        0x00007978:    bec8477c    |G..    DCD    3200796540
        0x0000797c:    bf6b99fb    ..k.    DCD    3211500027
        0x00007980:    bec78e62    b...    DCD    3200749154
        0x00007984:    bf6bc13b    ;.k.    DCD    3211510075
        0x00007988:    bec6d529    )...    DCD    3200701737
        0x0000798c:    bf6be858    X.k.    DCD    3211520088
        0x00007990:    bec61bd2    ....    DCD    3200654290
        0x00007994:    bf6c0f50    P.l.    DCD    3211530064
        0x00007998:    bec5625c    \b..    DCD    3200606812
        0x0000799c:    bf6c3624    $6l.    DCD    3211540004
        0x000079a0:    bec4a8c8    ....    DCD    3200559304
        0x000079a4:    bf6c5cd4    .\l.    DCD    3211549908
        0x000079a8:    bec3ef15    ....    DCD    3200511765
        0x000079ac:    bf6c835e    ^.l.    DCD    3211559774
        0x000079b0:    bec33544    D5..    DCD    3200464196
        0x000079b4:    bf6ca9c5    ..l.    DCD    3211569605
        0x000079b8:    bec27b55    U{..    DCD    3200416597
        0x000079bc:    bf6cd007    ..l.    DCD    3211579399
        0x000079c0:    bec1c148    H...    DCD    3200368968
        0x000079c4:    bf6cf624    $.l.    DCD    3211589156
        0x000079c8:    bec1071e    ....    DCD    3200321310
        0x000079cc:    bf6d1c1d    ..m.    DCD    3211598877
        0x000079d0:    bec04cd5    .L..    DCD    3200273621
        0x000079d4:    bf6d41f2    .Am.    DCD    3211608562
        0x000079d8:    bebf926f    o...    DCD    3200225903
        0x000079dc:    bf6d67a1    .gm.    DCD    3211618209
        0x000079e0:    bebed7eb    ....    DCD    3200178155
        0x000079e4:    bf6d8d2d    -.m.    DCD    3211627821
        0x000079e8:    bebe1d4a    J...    DCD    3200130378
        0x000079ec:    bf6db293    ..m.    DCD    3211637395
        0x000079f0:    bebd628b    .b..    DCD    3200082571
        0x000079f4:    bf6dd7d5    ..m.    DCD    3211646933
        0x000079f8:    bebca7af    ....    DCD    3200034735
        0x000079fc:    bf6dfcf2    ..m.    DCD    3211656434
        0x00007a00:    bebbecb6    ....    DCD    3199986870
        0x00007a04:    bf6e21eb    .!n.    DCD    3211665899
        0x00007a08:    bebb31a0    .1..    DCD    3199938976
        0x00007a0c:    bf6e46be    .Fn.    DCD    3211675326
        0x00007a10:    beba766e    nv..    DCD    3199891054
        0x00007a14:    bf6e6b6d    mkn.    DCD    3211684717
        0x00007a18:    beb9bb1e    ....    DCD    3199843102
        0x00007a1c:    bf6e8ff8    ..n.    DCD    3211694072
        0x00007a20:    beb8ffb2    ....    DCD    3199795122
        0x00007a24:    bf6eb45d    ].n.    DCD    3211703389
        0x00007a28:    beb8442a    *D..    DCD    3199747114
        0x00007a2c:    bf6ed89e    ..n.    DCD    3211712670
        0x00007a30:    beb78884    ....    DCD    3199699076
        0x00007a34:    bf6efcba    ..n.    DCD    3211721914
        0x00007a38:    beb6ccc3    ....    DCD    3199651011
        0x00007a3c:    bf6f20b0    . o.    DCD    3211731120
        0x00007a40:    beb610e6    ....    DCD    3199602918
        0x00007a44:    bf6f4483    .Do.    DCD    3211740291
        0x00007a48:    beb554ec    .T..    DCD    3199554796
        0x00007a4c:    bf6f6830    0ho.    DCD    3211749424
        0x00007a50:    beb498d6    ....    DCD    3199506646
        0x00007a54:    bf6f8bb8    ..o.    DCD    3211758520
        0x00007a58:    beb3dca5    ....    DCD    3199458469
        0x00007a5c:    bf6faf1b    ..o.    DCD    3211767579
        0x00007a60:    beb32058    X ..    DCD    3199410264
        0x00007a64:    bf6fd25a    Z.o.    DCD    3211776602
        0x00007a68:    beb263ef    .c..    DCD    3199362031
        0x00007a6c:    bf6ff573    s.o.    DCD    3211785587
        0x00007a70:    beb1a76b    k...    DCD    3199313771
        0x00007a74:    bf701867    g.p.    DCD    3211794535
        0x00007a78:    beb0eacb    ....    DCD    3199265483
        0x00007a7c:    bf703b37    7;p.    DCD    3211803447
        0x00007a80:    beb02e10    ....    DCD    3199217168
        0x00007a84:    bf705de1    .]p.    DCD    3211812321
        0x00007a88:    beaf713a    :q..    DCD    3199168826
        0x00007a8c:    bf708066    f.p.    DCD    3211821158
        0x00007a90:    beaeb449    I...    DCD    3199120457
        0x00007a94:    bf70a2c6    ..p.    DCD    3211829958
        0x00007a98:    beadf73c    <...    DCD    3199072060
        0x00007a9c:    bf70c502    ..p.    DCD    3211838722
        0x00007aa0:    bead3a15    .:..    DCD    3199023637
        0x00007aa4:    bf70e717    ..p.    DCD    3211847447
        0x00007aa8:    beac7cd4    .|..    DCD    3198975188
        0x00007aac:    bf710908    ..q.    DCD    3211856136
        0x00007ab0:    beabbf77    w...    DCD    3198926711
        0x00007ab4:    bf712ad4    .*q.    DCD    3211864788
        0x00007ab8:    beab0201    ....    DCD    3198878209
        0x00007abc:    bf714c7a    zLq.    DCD    3211873402
        0x00007ac0:    beaa446f    oD..    DCD    3198829679
        0x00007ac4:    bf716dfb    .mq.    DCD    3211881979
        0x00007ac8:    bea986c4    ....    DCD    3198781124
        0x00007acc:    bf718f57    W.q.    DCD    3211890519
        0x00007ad0:    bea8c8fe    ....    DCD    3198732542
        0x00007ad4:    bf71b08e    ..q.    DCD    3211899022
        0x00007ad8:    bea80b1f    ....    DCD    3198683935
        0x00007adc:    bf71d19f    ..q.    DCD    3211907487
        0x00007ae0:    bea74d25    %M..    DCD    3198635301
        0x00007ae4:    bf71f28c    ..q.    DCD    3211915916
        0x00007ae8:    bea68f12    ....    DCD    3198586642
        0x00007aec:    bf721352    R.r.    DCD    3211924306
        0x00007af0:    bea5d0e5    ....    DCD    3198537957
        0x00007af4:    bf7233f4    .3r.    DCD    3211932660
        0x00007af8:    bea5129f    ....    DCD    3198489247
        0x00007afc:    bf725470    pTr.    DCD    3211940976
        0x00007b00:    bea4543f    ?T..    DCD    3198440511
        0x00007b04:    bf7274c7    .tr.    DCD    3211949255
        0x00007b08:    bea395c5    ....    DCD    3198391749
        0x00007b0c:    bf7294f8    ..r.    DCD    3211957496
        0x00007b10:    bea2d733    3...    DCD    3198342963
        0x00007b14:    bf72b504    ..r.    DCD    3211965700
        0x00007b18:    bea21887    ....    DCD    3198294151
        0x00007b1c:    bf72d4eb    ..r.    DCD    3211973867
        0x00007b20:    bea159c2    .Y..    DCD    3198245314
        0x00007b24:    bf72f4ac    ..r.    DCD    3211981996
        0x00007b28:    bea09ae5    ....    DCD    3198196453
        0x00007b2c:    bf731447    G.s.    DCD    3211990087
        0x00007b30:    be9fdbee    ....    DCD    3198147566
        0x00007b34:    bf7333be    .3s.    DCD    3211998142
        0x00007b38:    be9f1cdf    ....    DCD    3198098655
        0x00007b3c:    bf73530e    .Ss.    DCD    3212006158
        0x00007b40:    be9e5db8    .]..    DCD    3198049720
        0x00007b44:    bf737239    9rs.    DCD    3212014137
        0x00007b48:    be9d9e78    x...    DCD    3198000760
        0x00007b4c:    bf73913f    ?.s.    DCD    3212022079
        0x00007b50:    be9cdf20     ...    DCD    3197951776
        0x00007b54:    bf73b01f    ..s.    DCD    3212029983
        0x00007b58:    be9c1faf    ....    DCD    3197902767
        0x00007b5c:    bf73ced9    ..s.    DCD    3212037849
        0x00007b60:    be9b6027    '`..    DCD    3197853735
        0x00007b64:    bf73ed6e    n.s.    DCD    3212045678
        0x00007b68:    be9aa086    ....    DCD    3197804678
        0x00007b6c:    bf740bdd    ..t.    DCD    3212053469
        0x00007b70:    be99e0ce    ....    DCD    3197755598
        0x00007b74:    bf742a27    '*t.    DCD    3212061223
        0x00007b78:    be9920fe    . ..    DCD    3197706494
        0x00007b7c:    bf74484b    KHt.    DCD    3212068939
        0x00007b80:    be986116    .a..    DCD    3197657366
        0x00007b84:    bf746649    Ift.    DCD    3212076617
        0x00007b88:    be97a117    ....    DCD    3197608215
        0x00007b8c:    bf748422    ".t.    DCD    3212084258
        0x00007b90:    be96e100    ....    DCD    3197559040
        0x00007b94:    bf74a1d5    ..t.    DCD    3212091861
        0x00007b98:    be9620d2    . ..    DCD    3197509842
        0x00007b9c:    bf74bf62    b.t.    DCD    3212099426
        0x00007ba0:    be95608d    .`..    DCD    3197460621
        0x00007ba4:    bf74dcc9    ..t.    DCD    3212106953
        0x00007ba8:    be94a031    1...    DCD    3197411377
        0x00007bac:    bf74fa0b    ..t.    DCD    3212114443
        0x00007bb0:    be93dfbf    ....    DCD    3197362111
        0x00007bb4:    bf751727    '.u.    DCD    3212121895
        0x00007bb8:    be931f35    5...    DCD    3197312821
        0x00007bbc:    bf75341d    .4u.    DCD    3212129309
        0x00007bc0:    be925e94    .^..    DCD    3197263508
        0x00007bc4:    bf7550ed    .Pu.    DCD    3212136685
        0x00007bc8:    be919ddd    ....    DCD    3197214173
        0x00007bcc:    bf756d97    .mu.    DCD    3212144023
        0x00007bd0:    be90dd10    ....    DCD    3197164816
        0x00007bd4:    bf758a1c    ..u.    DCD    3212151324
        0x00007bd8:    be901c2c    ,...    DCD    3197115436
        0x00007bdc:    bf75a67b    {.u.    DCD    3212158587
        0x00007be0:    be8f5b32    2[..    DCD    3197066034
        0x00007be4:    bf75c2b3    ..u.    DCD    3212165811
        0x00007be8:    be8e9a22    "...    DCD    3197016610
        0x00007bec:    bf75dec6    ..u.    DCD    3212172998
        0x00007bf0:    be8dd8fc    ....    DCD    3196967164
        0x00007bf4:    bf75fab3    ..u.    DCD    3212180147
        0x00007bf8:    be8d17c0    ....    DCD    3196917696
        0x00007bfc:    bf76167a    z.v.    DCD    3212187258
        0x00007c00:    be8c566e    nV..    DCD    3196868206
        0x00007c04:    bf76321b    .2v.    DCD    3212194331
        0x00007c08:    be8b9507    ....    DCD    3196818695
        0x00007c0c:    bf764d97    .Mv.    DCD    3212201367
        0x00007c10:    be8ad38a    ....    DCD    3196769162
        0x00007c14:    bf7668ec    .hv.    DCD    3212208364
        0x00007c18:    be8a11f8    ....    DCD    3196719608
        0x00007c1c:    bf76841b    ..v.    DCD    3212215323
        0x00007c20:    be895050    PP..    DCD    3196670032
        0x00007c24:    bf769f24    $.v.    DCD    3212222244
        0x00007c28:    be888e93    ....    DCD    3196620435
        0x00007c2c:    bf76ba07    ..v.    DCD    3212229127
        0x00007c30:    be87ccc1    ....    DCD    3196570817
        0x00007c34:    bf76d4c4    ..v.    DCD    3212235972
        0x00007c38:    be870ada    ....    DCD    3196521178
        0x00007c3c:    bf76ef5b    [.v.    DCD    3212242779
        0x00007c40:    be8648df    .H..    DCD    3196471519
        0x00007c44:    bf7709cc    ..w.    DCD    3212249548
        0x00007c48:    be8586ce    ....    DCD    3196421838
        0x00007c4c:    bf772417    .$w.    DCD    3212256279
        0x00007c50:    be84c4aa    ....    DCD    3196372138
        0x00007c54:    bf773e3c    <>w.    DCD    3212262972
        0x00007c58:    be840270    p...    DCD    3196322416
        0x00007c5c:    bf77583a    :Xw.    DCD    3212269626
        0x00007c60:    be834022    "@..    DCD    3196272674
        0x00007c64:    bf777213    .rw.    DCD    3212276243
        0x00007c68:    be827dc0    .}..    DCD    3196222912
        0x00007c6c:    bf778bc5    ..w.    DCD    3212282821
        0x00007c70:    be81bb4a    J...    DCD    3196173130
        0x00007c74:    bf77a551    Q.w.    DCD    3212289361
        0x00007c78:    be80f8c0    ....    DCD    3196123328
        0x00007c7c:    bf77beb7    ..w.    DCD    3212295863
        0x00007c80:    be803622    "6..    DCD    3196073506
        0x00007c84:    bf77d7f7    ..w.    DCD    3212302327
        0x00007c88:    be7ee6e1    ..~.    DCD    3195987681
        0x00007c8c:    bf77f110    ..w.    DCD    3212308752
        0x00007c90:    be7d6156    Va}.    DCD    3195887958
        0x00007c94:    bf780a04    ..x.    DCD    3212315140
        0x00007c98:    be7bdba4    ..{.    DCD    3195788196
        0x00007c9c:    bf7822d1    ."x.    DCD    3212321489
        0x00007ca0:    be7a55cb    .Uz.    DCD    3195688395
        0x00007ca4:    bf783b77    w;x.    DCD    3212327799
        0x00007ca8:    be78cfcc    ..x.    DCD    3195588556
        0x00007cac:    bf7853f8    .Sx.    DCD    3212334072
        0x00007cb0:    be7749a6    .Iw.    DCD    3195488678
        0x00007cb4:    bf786c52    Rlx.    DCD    3212340306
        0x00007cb8:    be75c35a    Z.u.    DCD    3195388762
        0x00007cbc:    bf788486    ..x.    DCD    3212346502
        0x00007cc0:    be743ce8    .<t.    DCD    3195288808
        0x00007cc4:    bf789c93    ..x.    DCD    3212352659
        0x00007cc8:    be72b651    Q.r.    DCD    3195188817
        0x00007ccc:    bf78b47b    {.x.    DCD    3212358779
        0x00007cd0:    be712f94    ./q.    DCD    3195088788
        0x00007cd4:    bf78cc3b    ;.x.    DCD    3212364859
        0x00007cd8:    be6fa8b2    ..o.    DCD    3194988722
        0x00007cdc:    bf78e3d6    ..x.    DCD    3212370902
        0x00007ce0:    be6e21ab    .!n.    DCD    3194888619
        0x00007ce4:    bf78fb4a    J.x.    DCD    3212376906
        0x00007ce8:    be6c9a7f    ..l.    DCD    3194788479
        0x00007cec:    bf791298    ..y.    DCD    3212382872
        0x00007cf0:    be6b132f    /.k.    DCD    3194688303
        0x00007cf4:    bf7929bf    .)y.    DCD    3212388799
        0x00007cf8:    be698bba    ..i.    DCD    3194588090
        0x00007cfc:    bf7940c0    .@y.    DCD    3212394688
        0x00007d00:    be680422    ".h.    DCD    3194487842
        0x00007d04:    bf79579a    .Wy.    DCD    3212400538
        0x00007d08:    be667c66    f|f.    DCD    3194387558
        0x00007d0c:    bf796e4e    Nny.    DCD    3212406350
        0x00007d10:    be64f486    ..d.    DCD    3194287238
        0x00007d14:    bf7984dc    ..y.    DCD    3212412124
        0x00007d18:    be636c83    .lc.    DCD    3194186883
        0x00007d1c:    bf799b43    C.y.    DCD    3212417859
        0x00007d20:    be61e45c    \.a.    DCD    3194086492
        0x00007d24:    bf79b183    ..y.    DCD    3212423555
        0x00007d28:    be605c13    .\`.    DCD    3193986067
        0x00007d2c:    bf79c79d    ..y.    DCD    3212429213
        0x00007d30:    be5ed3a8    ..^.    DCD    3193885608
        0x00007d34:    bf79dd91    ..y.    DCD    3212434833
        0x00007d38:    be5d4b1a    .K].    DCD    3193785114
        0x00007d3c:    bf79f35e    ^.y.    DCD    3212440414
        0x00007d40:    be5bc26a    j.[.    DCD    3193684586
        0x00007d44:    bf7a0904    ..z.    DCD    3212445956
        0x00007d48:    be5a3997    .9Z.    DCD    3193584023
        0x00007d4c:    bf7a1e84    ..z.    DCD    3212451460
        0x00007d50:    be58b0a4    ..X.    DCD    3193483428
        0x00007d54:    bf7a33dd    .3z.    DCD    3212456925
        0x00007d58:    be57278f    .'W.    DCD    3193382799
        0x00007d5c:    bf7a4910    .Iz.    DCD    3212462352
        0x00007d60:    be559e58    X.U.    DCD    3193282136
        0x00007d64:    bf7a5e1c    .^z.    DCD    3212467740
        0x00007d68:    be541501    ..T.    DCD    3193181441
        0x00007d6c:    bf7a7302    .sz.    DCD    3212473090
        0x00007d70:    be528b89    ..R.    DCD    3193080713
        0x00007d74:    bf7a87c1    ..z.    DCD    3212478401
        0x00007d78:    be5101f1    ..Q.    DCD    3192979953
        0x00007d7c:    bf7a9c59    Y.z.    DCD    3212483673
        0x00007d80:    be4f7838    8xO.    DCD    3192879160
        0x00007d84:    bf7ab0cb    ..z.    DCD    3212488907
        0x00007d88:    be4dee60    `.M.    DCD    3192778336
        0x00007d8c:    bf7ac516    ..z.    DCD    3212494102
        0x00007d90:    be4c6467    gdL.    DCD    3192677479
        0x00007d94:    bf7ad93a    :.z.    DCD    3212499258
        0x00007d98:    be4ada4f    O.J.    DCD    3192576591
        0x00007d9c:    bf7aed37    7.z.    DCD    3212504375
        0x00007da0:    be495018    .PI.    DCD    3192475672
        0x00007da4:    bf7b010e    ..{.    DCD    3212509454
        0x00007da8:    be47c5c2    ..G.    DCD    3192374722
        0x00007dac:    bf7b14be    ..{.    DCD    3212514494
        0x00007db0:    be463b4d    M;F.    DCD    3192273741
        0x00007db4:    bf7b2848    H({.    DCD    3212519496
        0x00007db8:    be44b0b9    ..D.    DCD    3192172729
        0x00007dbc:    bf7b3bab    .;{.    DCD    3212524459
        0x00007dc0:    be432607    .&C.    DCD    3192071687
        0x00007dc4:    bf7b4ee7    .N{.    DCD    3212529383
        0x00007dc8:    be419b37    7.A.    DCD    3191970615
        0x00007dcc:    bf7b61fc    .a{.    DCD    3212534268
        0x00007dd0:    be401049    I.@.    DCD    3191869513
        0x00007dd4:    bf7b74ea    .t{.    DCD    3212539114
        0x00007dd8:    be3e853e    >.>.    DCD    3191768382
        0x00007ddc:    bf7b87b2    ..{.    DCD    3212543922
        0x00007de0:    be3cfa15    ..<.    DCD    3191667221
        0x00007de4:    bf7b9a53    S.{.    DCD    3212548691
        0x00007de8:    be3b6ecf    .n;.    DCD    3191566031
        0x00007dec:    bf7baccd    ..{.    DCD    3212553421
        0x00007df0:    be39e36c    l.9.    DCD    3191464812
        0x00007df4:    bf7bbf20     .{.    DCD    3212558112
        0x00007df8:    be3857ec    .W8.    DCD    3191363564
        0x00007dfc:    bf7bd14d    M.{.    DCD    3212562765
        0x00007e00:    be36cc50    P.6.    DCD    3191262288
        0x00007e04:    bf7be353    S.{.    DCD    3212567379
        0x00007e08:    be354098    .@5.    DCD    3191160984
        0x00007e0c:    bf7bf531    1.{.    DCD    3212571953
        0x00007e10:    be33b4c4    ..3.    DCD    3191059652
        0x00007e14:    bf7c06e9    ..|.    DCD    3212576489
        0x00007e18:    be3228d4    .(2.    DCD    3190958292
        0x00007e1c:    bf7c187a    z.|.    DCD    3212580986
        0x00007e20:    be309cc9    ..0.    DCD    3190856905
        0x00007e24:    bf7c29e5    .)|.    DCD    3212585445
        0x00007e28:    be2f10a2    ../.    DCD    3190755490
        0x00007e2c:    bf7c3b28    (;|.    DCD    3212589864
        0x00007e30:    be2d8461    a.-.    DCD    3190654049
        0x00007e34:    bf7c4c44    DL|.    DCD    3212594244
        0x00007e38:    be2bf804    ..+.    DCD    3190552580
        0x00007e3c:    bf7c5d3a    :]|.    DCD    3212598586
        0x00007e40:    be2a6b8d    .k*.    DCD    3190451085
        0x00007e44:    bf7c6e08    .n|.    DCD    3212602888
        0x00007e48:    be28defc    ..(.    DCD    3190349564
        0x00007e4c:    bf7c7eb0    .~|.    DCD    3212607152
        0x00007e50:    be275251    QR'.    DCD    3190248017
        0x00007e54:    bf7c8f31    1.|.    DCD    3212611377
        0x00007e58:    be25c58c    ..%.    DCD    3190146444
        0x00007e5c:    bf7c9f8a    ..|.    DCD    3212615562
        0x00007e60:    be2438ad    .8$.    DCD    3190044845
        0x00007e64:    bf7cafbd    ..|.    DCD    3212619709
        0x00007e68:    be22abb6    ..".    DCD    3189943222
        0x00007e6c:    bf7cbfc9    ..|.    DCD    3212623817
        0x00007e70:    be211ea5    ..!.    DCD    3189841573
        0x00007e74:    bf7ccfae    ..|.    DCD    3212627886
        0x00007e78:    be1f917b    {...    DCD    3189739899
        0x00007e7c:    bf7cdf6c    l.|.    DCD    3212631916
        0x00007e80:    be1e0438    8...    DCD    3189638200
        0x00007e84:    bf7cef03    ..|.    DCD    3212635907
        0x00007e88:    be1c76de    .v..    DCD    3189536478
        0x00007e8c:    bf7cfe73    s.|.    DCD    3212639859
        0x00007e90:    be1ae96b    k...    DCD    3189434731
        0x00007e94:    bf7d0dbc    ..}.    DCD    3212643772
        0x00007e98:    be195be0    .[..    DCD    3189332960
        0x00007e9c:    bf7d1cdd    ..}.    DCD    3212647645
        0x00007ea0:    be17ce3d    =...    DCD    3189231165
        0x00007ea4:    bf7d2bd8    .+}.    DCD    3212651480
        0x00007ea8:    be164083    .@..    DCD    3189129347
        0x00007eac:    bf7d3aac    .:}.    DCD    3212655276
        0x00007eb0:    be14b2b2    ....    DCD    3189027506
        0x00007eb4:    bf7d4959    YI}.    DCD    3212659033
        0x00007eb8:    be1324ca    .$..    DCD    3188925642
        0x00007ebc:    bf7d57de    .W}.    DCD    3212662750
        0x00007ec0:    be1196cc    ....    DCD    3188823756
        0x00007ec4:    bf7d663d    =f}.    DCD    3212666429
        0x00007ec8:    be1008b7    ....    DCD    3188721847
        0x00007ecc:    bf7d7474    tt}.    DCD    3212670068
        0x00007ed0:    be0e7a8b    .z..    DCD    3188619915
        0x00007ed4:    bf7d8285    ..}.    DCD    3212673669
        0x00007ed8:    be0cec4a    J...    DCD    3188517962
        0x00007edc:    bf7d906e    n.}.    DCD    3212677230
        0x00007ee0:    be0b5df3    .]..    DCD    3188415987
        0x00007ee4:    bf7d9e30    0.}.    DCD    3212680752
        0x00007ee8:    be09cf86    ....    DCD    3188313990
        0x00007eec:    bf7dabcc    ..}.    DCD    3212684236
        0x00007ef0:    be084105    .A..    DCD    3188211973
        0x00007ef4:    bf7db940    @.}.    DCD    3212687680
        0x00007ef8:    be06b26e    n...    DCD    3188109934
        0x00007efc:    bf7dc68c    ..}.    DCD    3212691084
        0x00007f00:    be0523c2    .#..    DCD    3188007874
        0x00007f04:    bf7dd3b2    ..}.    DCD    3212694450
        0x00007f08:    be039502    ....    DCD    3187905794
        0x00007f0c:    bf7de0b1    ..}.    DCD    3212697777
        0x00007f10:    be02062e    ....    DCD    3187803694
        0x00007f14:    bf7ded88    ..}.    DCD    3212701064
        0x00007f18:    be007745    Ew..    DCD    3187701573
        0x00007f1c:    bf7dfa38    8.}.    DCD    3212704312
        0x00007f20:    bdfdd092    ....    DCD    3187527826
        0x00007f24:    bf7e06c2    ..~.    DCD    3212707522
        0x00007f28:    bdfab273    s...    DCD    3187323507
        0x00007f2c:    bf7e1324    $.~.    DCD    3212710692
        0x00007f30:    bdf7942c    ,...    DCD    3187119148
        0x00007f34:    bf7e1f5e    ^.~.    DCD    3212713822
        0x00007f38:    bdf475c0    .u..    DCD    3186914752
        0x00007f3c:    bf7e2b72    r+~.    DCD    3212716914
        0x00007f40:    bdf1572e    .W..    DCD    3186710318
        0x00007f44:    bf7e375e    ^7~.    DCD    3212719966
        0x00007f48:    bdee3876    v8..    DCD    3186505846
        0x00007f4c:    bf7e4323    #C~.    DCD    3212722979
        0x00007f50:    bdeb199a    ....    DCD    3186301338
        0x00007f54:    bf7e4ec1    .N~.    DCD    3212725953
        0x00007f58:    bde7fa9a    ....    DCD    3186096794
        0x00007f5c:    bf7e5a38    8Z~.    DCD    3212728888
        0x00007f60:    bde4db76    v...    DCD    3185892214
        0x00007f64:    bf7e6588    .e~.    DCD    3212731784
        0x00007f68:    bde1bc2e    ....    DCD    3185687598
        0x00007f6c:    bf7e70b0    .p~.    DCD    3212734640
        0x00007f70:    bdde9cc4    ....    DCD    3185482948
        0x00007f74:    bf7e7bb1    .{~.    DCD    3212737457
        0x00007f78:    bddb7d37    7}..    DCD    3185278263
        0x00007f7c:    bf7e868b    ..~.    DCD    3212740235
        0x00007f80:    bdd85d89    .]..    DCD    3185073545
        0x00007f84:    bf7e913d    =.~.    DCD    3212742973
        0x00007f88:    bdd53db9    .=..    DCD    3184868793
        0x00007f8c:    bf7e9bc9    ..~.    DCD    3212745673
        0x00007f90:    bdd21dc8    ....    DCD    3184664008
        0x00007f94:    bf7ea62d    -.~.    DCD    3212748333
        0x00007f98:    bdcefdb7    ....    DCD    3184459191
        0x00007f9c:    bf7eb069    i.~.    DCD    3212750953
        0x00007fa0:    bdcbdd86    ....    DCD    3184254342
        0x00007fa4:    bf7eba7f    ..~.    DCD    3212753535
        0x00007fa8:    bdc8bd36    6...    DCD    3184049462
        0x00007fac:    bf7ec46d    m.~.    DCD    3212756077
        0x00007fb0:    bdc59cc6    ....    DCD    3183844550
        0x00007fb4:    bf7ece34    4.~.    DCD    3212758580
        0x00007fb8:    bdc27c39    9|..    DCD    3183639609
        0x00007fbc:    bf7ed7d4    ..~.    DCD    3212761044
        0x00007fc0:    bdbf5b8d    .[..    DCD    3183434637
        0x00007fc4:    bf7ee14c    L.~.    DCD    3212763468
        0x00007fc8:    bdbc3ac3    .:..    DCD    3183229635
        0x00007fcc:    bf7eea9d    ..~.    DCD    3212765853
        0x00007fd0:    bdb919dd    ....    DCD    3183024605
        0x00007fd4:    bf7ef3c7    ..~.    DCD    3212768199
        0x00007fd8:    bdb5f8da    ....    DCD    3182819546
        0x00007fdc:    bf7efcc9    ..~.    DCD    3212770505
        0x00007fe0:    bdb2d7bb    ....    DCD    3182614459
        0x00007fe4:    bf7f05a4    ....    DCD    3212772772
        0x00007fe8:    bdafb680    ....    DCD    3182409344
        0x00007fec:    bf7f0e58    X...    DCD    3212775000
        0x00007ff0:    bdac952b    +...    DCD    3182204203
        0x00007ff4:    bf7f16e4    ....    DCD    3212777188
        0x00007ff8:    bda973ba    .s..    DCD    3181999034
        0x00007ffc:    bf7f1f49    I...    DCD    3212779337
        0x00008000:    bda65230    0R..    DCD    3181793840
        0x00008004:    bf7f2787    .'..    DCD    3212781447
        0x00008008:    bda3308c    .0..    DCD    3181588620
        0x0000800c:    bf7f2f9d    ./..    DCD    3212783517
        0x00008010:    bda00ecf    ....    DCD    3181383375
        0x00008014:    bf7f378d    .7..    DCD    3212785549
        0x00008018:    bd9cecf9    ....    DCD    3181178105
        0x0000801c:    bf7f3f54    T?..    DCD    3212787540
        0x00008020:    bd99cb0a    ....    DCD    3180972810
        0x00008024:    bf7f46f4    .F..    DCD    3212789492
        0x00008028:    bd96a905    ....    DCD    3180767493
        0x0000802c:    bf7f4e6d    mN..    DCD    3212791405
        0x00008030:    bd9386e7    ....    DCD    3180562151
        0x00008034:    bf7f55bf    .U..    DCD    3212793279
        0x00008038:    bd9064b4    .d..    DCD    3180356788
        0x0000803c:    bf7f5ce9    .\..    DCD    3212795113
        0x00008040:    bd8d426a    jB..    DCD    3180151402
        0x00008044:    bf7f63ec    .c..    DCD    3212796908
        0x00008048:    bd8a200a    . ..    DCD    3179945994
        0x0000804c:    bf7f6ac7    .j..    DCD    3212798663
        0x00008050:    bd86fd94    ....    DCD    3179740564
        0x00008054:    bf7f717b    {q..    DCD    3212800379
        0x00008058:    bd83db0a    ....    DCD    3179535114
        0x0000805c:    bf7f7808    .x..    DCD    3212802056
        0x00008060:    bd80b86c    l...    DCD    3179329644
        0x00008064:    bf7f7e6d    m~..    DCD    3212803693
        0x00008068:    bd7b2b74    t+{.    DCD    3178965876
        0x0000806c:    bf7f84ab    ....    DCD    3212805291
        0x00008070:    bd74e5e9    ..t.    DCD    3178554857
        0x00008074:    bf7f8ac2    ....    DCD    3212806850
        0x00008078:    bd6ea038    8.n.    DCD    3178143800
        0x0000807c:    bf7f90b1    ....    DCD    3212808369
        0x00008080:    bd685a62    bZh.    DCD    3177732706
        0x00008084:    bf7f9678    x...    DCD    3212809848
        0x00008088:    bd621468    h.b.    DCD    3177321576
        0x0000808c:    bf7f9c18    ....    DCD    3212811288
        0x00008090:    bd5bce4c    L.[.    DCD    3176910412
        0x00008094:    bf7fa191    ....    DCD    3212812689
        0x00008098:    bd55880e    ..U.    DCD    3176499214
        0x0000809c:    bf7fa6e3    ....    DCD    3212814051
        0x000080a0:    bd4f41af    .AO.    DCD    3176087983
        0x000080a4:    bf7fac0d    ....    DCD    3212815373
        0x000080a8:    bd48fb2f    /.H.    DCD    3175676719
        0x000080ac:    bf7fb10f    ....    DCD    3212816655
        0x000080b0:    bd42b491    ..B.    DCD    3175265425
        0x000080b4:    bf7fb5ea    ....    DCD    3212817898
        0x000080b8:    bd3c6dd5    .m<.    DCD    3174854101
        0x000080bc:    bf7fba9e    ....    DCD    3212819102
        0x000080c0:    bd3626fc    .&6.    DCD    3174442748
        0x000080c4:    bf7fbf2a    *...    DCD    3212820266
        0x000080c8:    bd2fe007    ../.    DCD    3174031367
        0x000080cc:    bf7fc38f    ....    DCD    3212821391
        0x000080d0:    bd2998f6    ..).    DCD    3173619958
        0x000080d4:    bf7fc7cc    ....    DCD    3212822476
        0x000080d8:    bd2351cc    .Q#.    DCD    3173208524
        0x000080dc:    bf7fcbe2    ....    DCD    3212823522
        0x000080e0:    bd1d0a88    ....    DCD    3172797064
        0x000080e4:    bf7fcfd1    ....    DCD    3212824529
        0x000080e8:    bd16c32c    ,...    DCD    3172385580
        0x000080ec:    bf7fd398    ....    DCD    3212825496
        0x000080f0:    bd107bb8    .{..    DCD    3171974072
        0x000080f4:    bf7fd737    7...    DCD    3212826423
        0x000080f8:    bd0a342f    /4..    DCD    3171562543
        0x000080fc:    bf7fdaaf    ....    DCD    3212827311
        0x00008100:    bd03ec90    ....    DCD    3171150992
        0x00008104:    bf7fde00    ....    DCD    3212828160
        0x00008108:    bcfb49b9    .I..    DCD    3170585017
        0x0000810c:    bf7fe129    )...    DCD    3212828969
        0x00008110:    bceeba2d    -...    DCD    3169761837
        0x00008114:    bf7fe42b    +...    DCD    3212829739
        0x00008118:    bce22a7b    {*..    DCD    3168938619
        0x0000811c:    bf7fe705    ....    DCD    3212830469
        0x00008120:    bcd59aa6    ....    DCD    3168115366
        0x00008124:    bf7fe9b8    ....    DCD    3212831160
        0x00008128:    bcc90ab0    ....    DCD    3167292080
        0x0000812c:    bf7fec43    C...    DCD    3212831811
        0x00008130:    bcbc7a9b    .z..    DCD    3166468763
        0x00008134:    bf7feea7    ....    DCD    3212832423
        0x00008138:    bcafea69    i...    DCD    3165645417
        0x0000813c:    bf7ff0e3    ....    DCD    3212832995
        0x00008140:    bca35a1c    .Z..    DCD    3164822044
        0x00008144:    bf7ff2f8    ....    DCD    3212833528
        0x00008148:    bc96c9b6    ....    DCD    3163998646
        0x0000814c:    bf7ff4e6    ....    DCD    3212834022
        0x00008150:    bc8a3938    89..    DCD    3163175224
        0x00008154:    bf7ff6ac    ....    DCD    3212834476
        0x00008158:    bc7b514b    KQ{.    DCD    3162198347
        0x0000815c:    bf7ff84a    J...    DCD    3212834890
        0x00008160:    bc623000    .0b.    DCD    3160551424
        0x00008164:    bf7ff9c1    ....    DCD    3212835265
        0x00008168:    bc490e90    ..I.    DCD    3158904464
        0x0000816c:    bf7ffb11    ....    DCD    3212835601
        0x00008170:    bc2fed02    ../.    DCD    3157257474
        0x00008174:    bf7ffc39    9...    DCD    3212835897
        0x00008178:    bc16cb59    Y...    DCD    3155610457
        0x0000817c:    bf7ffd39    9...    DCD    3212836153
        0x00008180:    bbfb5330    0S..    DCD    3153810224
        0x00008184:    bf7ffe13    ....    DCD    3212836371
        0x00008188:    bbc90f89    ....    DCD    3150516105
        0x0000818c:    bf7ffec4    ....    DCD    3212836548
        0x00008190:    bb96cbc1    ....    DCD    3147221953
        0x00008194:    bf7fff4e    N...    DCD    3212836686
        0x00008198:    bb490fc7    ..I.    DCD    3142127559
        0x0000819c:    bf7fffb1    ....    DCD    3212836785
        0x000081a0:    bac90fd4    ....    DCD    3133738964
        0x000081a4:    bf7fffec    ....    DCD    3212836844
        0x000081a8:    80000000    ....    DCD    2147483648
        0x000081ac:    bf800000    ....    DCD    3212836864
        0x000081b0:    3ac90fd4    ...:    DCD    986255316
        0x000081b4:    bf7fffec    ....    DCD    3212836844
        0x000081b8:    3b490fc7    ..I;    DCD    994643911
        0x000081bc:    bf7fffb1    ....    DCD    3212836785
        0x000081c0:    3b96cbc1    ...;    DCD    999738305
        0x000081c4:    bf7fff4e    N...    DCD    3212836686
        0x000081c8:    3bc90f89    ...;    DCD    1003032457
        0x000081cc:    bf7ffec4    ....    DCD    3212836548
        0x000081d0:    3bfb5330    0S.;    DCD    1006326576
        0x000081d4:    bf7ffe13    ....    DCD    3212836371
        0x000081d8:    3c16cb59    Y..<    DCD    1008126809
        0x000081dc:    bf7ffd39    9...    DCD    3212836153
        0x000081e0:    3c2fed02    ../<    DCD    1009773826
        0x000081e4:    bf7ffc39    9...    DCD    3212835897
        0x000081e8:    3c490e90    ..I<    DCD    1011420816
        0x000081ec:    bf7ffb11    ....    DCD    3212835601
        0x000081f0:    3c623000    .0b<    DCD    1013067776
        0x000081f4:    bf7ff9c1    ....    DCD    3212835265
        0x000081f8:    3c7b514b    KQ{<    DCD    1014714699
        0x000081fc:    bf7ff84a    J...    DCD    3212834890
        0x00008200:    3c8a3938    89.<    DCD    1015691576
        0x00008204:    bf7ff6ac    ....    DCD    3212834476
        0x00008208:    3c96c9b6    ...<    DCD    1016514998
        0x0000820c:    bf7ff4e6    ....    DCD    3212834022
        0x00008210:    3ca35a1c    .Z.<    DCD    1017338396
        0x00008214:    bf7ff2f8    ....    DCD    3212833528
        0x00008218:    3cafea69    i..<    DCD    1018161769
        0x0000821c:    bf7ff0e3    ....    DCD    3212832995
        0x00008220:    3cbc7a9b    .z.<    DCD    1018985115
        0x00008224:    bf7feea7    ....    DCD    3212832423
        0x00008228:    3cc90ab0    ...<    DCD    1019808432
        0x0000822c:    bf7fec43    C...    DCD    3212831811
        0x00008230:    3cd59aa6    ...<    DCD    1020631718
        0x00008234:    bf7fe9b8    ....    DCD    3212831160
        0x00008238:    3ce22a7b    {*.<    DCD    1021454971
        0x0000823c:    bf7fe705    ....    DCD    3212830469
        0x00008240:    3ceeba2d    -..<    DCD    1022278189
        0x00008244:    bf7fe42b    +...    DCD    3212829739
        0x00008248:    3cfb49b9    .I.<    DCD    1023101369
        0x0000824c:    bf7fe129    )...    DCD    3212828969
        0x00008250:    3d03ec90    ...=    DCD    1023667344
        0x00008254:    bf7fde00    ....    DCD    3212828160
        0x00008258:    3d0a342f    /4.=    DCD    1024078895
        0x0000825c:    bf7fdaaf    ....    DCD    3212827311
        0x00008260:    3d107bb8    .{.=    DCD    1024490424
        0x00008264:    bf7fd737    7...    DCD    3212826423
        0x00008268:    3d16c32c    ,..=    DCD    1024901932
        0x0000826c:    bf7fd398    ....    DCD    3212825496
        0x00008270:    3d1d0a88    ...=    DCD    1025313416
        0x00008274:    bf7fcfd1    ....    DCD    3212824529
        0x00008278:    3d2351cc    .Q#=    DCD    1025724876
        0x0000827c:    bf7fcbe2    ....    DCD    3212823522
        0x00008280:    3d2998f6    ..)=    DCD    1026136310
        0x00008284:    bf7fc7cc    ....    DCD    3212822476
        0x00008288:    3d2fe007    ../=    DCD    1026547719
        0x0000828c:    bf7fc38f    ....    DCD    3212821391
        0x00008290:    3d3626fc    .&6=    DCD    1026959100
        0x00008294:    bf7fbf2a    *...    DCD    3212820266
        0x00008298:    3d3c6dd5    .m<=    DCD    1027370453
        0x0000829c:    bf7fba9e    ....    DCD    3212819102
        0x000082a0:    3d42b491    ..B=    DCD    1027781777
        0x000082a4:    bf7fb5ea    ....    DCD    3212817898
        0x000082a8:    3d48fb2f    /.H=    DCD    1028193071
        0x000082ac:    bf7fb10f    ....    DCD    3212816655
        0x000082b0:    3d4f41af    .AO=    DCD    1028604335
        0x000082b4:    bf7fac0d    ....    DCD    3212815373
        0x000082b8:    3d55880e    ..U=    DCD    1029015566
        0x000082bc:    bf7fa6e3    ....    DCD    3212814051
        0x000082c0:    3d5bce4c    L.[=    DCD    1029426764
        0x000082c4:    bf7fa191    ....    DCD    3212812689
        0x000082c8:    3d621468    h.b=    DCD    1029837928
        0x000082cc:    bf7f9c18    ....    DCD    3212811288
        0x000082d0:    3d685a62    bZh=    DCD    1030249058
        0x000082d4:    bf7f9678    x...    DCD    3212809848
        0x000082d8:    3d6ea038    8.n=    DCD    1030660152
        0x000082dc:    bf7f90b1    ....    DCD    3212808369
        0x000082e0:    3d74e5e9    ..t=    DCD    1031071209
        0x000082e4:    bf7f8ac2    ....    DCD    3212806850
        0x000082e8:    3d7b2b74    t+{=    DCD    1031482228
        0x000082ec:    bf7f84ab    ....    DCD    3212805291
        0x000082f0:    3d80b86c    l..=    DCD    1031845996
        0x000082f4:    bf7f7e6d    m~..    DCD    3212803693
        0x000082f8:    3d83db0a    ...=    DCD    1032051466
        0x000082fc:    bf7f7808    .x..    DCD    3212802056
        0x00008300:    3d86fd94    ...=    DCD    1032256916
        0x00008304:    bf7f717b    {q..    DCD    3212800379
        0x00008308:    3d8a200a    . .=    DCD    1032462346
        0x0000830c:    bf7f6ac7    .j..    DCD    3212798663
        0x00008310:    3d8d426a    jB.=    DCD    1032667754
        0x00008314:    bf7f63ec    .c..    DCD    3212796908
        0x00008318:    3d9064b4    .d.=    DCD    1032873140
        0x0000831c:    bf7f5ce9    .\..    DCD    3212795113
        0x00008320:    3d9386e7    ...=    DCD    1033078503
        0x00008324:    bf7f55bf    .U..    DCD    3212793279
        0x00008328:    3d96a905    ...=    DCD    1033283845
        0x0000832c:    bf7f4e6d    mN..    DCD    3212791405
        0x00008330:    3d99cb0a    ...=    DCD    1033489162
        0x00008334:    bf7f46f4    .F..    DCD    3212789492
        0x00008338:    3d9cecf9    ...=    DCD    1033694457
        0x0000833c:    bf7f3f54    T?..    DCD    3212787540
        0x00008340:    3da00ecf    ...=    DCD    1033899727
        0x00008344:    bf7f378d    .7..    DCD    3212785549
        0x00008348:    3da3308c    .0.=    DCD    1034104972
        0x0000834c:    bf7f2f9d    ./..    DCD    3212783517
        0x00008350:    3da65230    0R.=    DCD    1034310192
        0x00008354:    bf7f2787    .'..    DCD    3212781447
        0x00008358:    3da973ba    .s.=    DCD    1034515386
        0x0000835c:    bf7f1f49    I...    DCD    3212779337
        0x00008360:    3dac952b    +..=    DCD    1034720555
        0x00008364:    bf7f16e4    ....    DCD    3212777188
        0x00008368:    3dafb680    ...=    DCD    1034925696
        0x0000836c:    bf7f0e58    X...    DCD    3212775000
        0x00008370:    3db2d7bb    ...=    DCD    1035130811
        0x00008374:    bf7f05a4    ....    DCD    3212772772
        0x00008378:    3db5f8da    ...=    DCD    1035335898
        0x0000837c:    bf7efcc9    ..~.    DCD    3212770505
        0x00008380:    3db919dd    ...=    DCD    1035540957
        0x00008384:    bf7ef3c7    ..~.    DCD    3212768199
        0x00008388:    3dbc3ac3    .:.=    DCD    1035745987
        0x0000838c:    bf7eea9d    ..~.    DCD    3212765853
        0x00008390:    3dbf5b8d    .[.=    DCD    1035950989
        0x00008394:    bf7ee14c    L.~.    DCD    3212763468
        0x00008398:    3dc27c39    9|.=    DCD    1036155961
        0x0000839c:    bf7ed7d4    ..~.    DCD    3212761044
        0x000083a0:    3dc59cc6    ...=    DCD    1036360902
        0x000083a4:    bf7ece34    4.~.    DCD    3212758580
        0x000083a8:    3dc8bd36    6..=    DCD    1036565814
        0x000083ac:    bf7ec46d    m.~.    DCD    3212756077
        0x000083b0:    3dcbdd86    ...=    DCD    1036770694
        0x000083b4:    bf7eba7f    ..~.    DCD    3212753535
        0x000083b8:    3dcefdb7    ...=    DCD    1036975543
        0x000083bc:    bf7eb069    i.~.    DCD    3212750953
        0x000083c0:    3dd21dc8    ...=    DCD    1037180360
        0x000083c4:    bf7ea62d    -.~.    DCD    3212748333
        0x000083c8:    3dd53db9    .=.=    DCD    1037385145
        0x000083cc:    bf7e9bc9    ..~.    DCD    3212745673
        0x000083d0:    3dd85d89    .].=    DCD    1037589897
        0x000083d4:    bf7e913d    =.~.    DCD    3212742973
        0x000083d8:    3ddb7d37    7}.=    DCD    1037794615
        0x000083dc:    bf7e868b    ..~.    DCD    3212740235
        0x000083e0:    3dde9cc4    ...=    DCD    1037999300
        0x000083e4:    bf7e7bb1    .{~.    DCD    3212737457
        0x000083e8:    3de1bc2e    ...=    DCD    1038203950
        0x000083ec:    bf7e70b0    .p~.    DCD    3212734640
        0x000083f0:    3de4db76    v..=    DCD    1038408566
        0x000083f4:    bf7e6588    .e~.    DCD    3212731784
        0x000083f8:    3de7fa9a    ...=    DCD    1038613146
        0x000083fc:    bf7e5a38    8Z~.    DCD    3212728888
        0x00008400:    3deb199a    ...=    DCD    1038817690
        0x00008404:    bf7e4ec1    .N~.    DCD    3212725953
        0x00008408:    3dee3876    v8.=    DCD    1039022198
        0x0000840c:    bf7e4323    #C~.    DCD    3212722979
        0x00008410:    3df1572e    .W.=    DCD    1039226670
        0x00008414:    bf7e375e    ^7~.    DCD    3212719966
        0x00008418:    3df475c0    .u.=    DCD    1039431104
        0x0000841c:    bf7e2b72    r+~.    DCD    3212716914
        0x00008420:    3df7942c    ,..=    DCD    1039635500
        0x00008424:    bf7e1f5e    ^.~.    DCD    3212713822
        0x00008428:    3dfab273    s..=    DCD    1039839859
        0x0000842c:    bf7e1324    $.~.    DCD    3212710692
        0x00008430:    3dfdd092    ...=    DCD    1040044178
        0x00008434:    bf7e06c2    ..~.    DCD    3212707522
        0x00008438:    3e007745    Ew.>    DCD    1040217925
        0x0000843c:    bf7dfa38    8.}.    DCD    3212704312
        0x00008440:    3e02062e    ...>    DCD    1040320046
        0x00008444:    bf7ded88    ..}.    DCD    3212701064
        0x00008448:    3e039502    ...>    DCD    1040422146
        0x0000844c:    bf7de0b1    ..}.    DCD    3212697777
        0x00008450:    3e0523c2    .#.>    DCD    1040524226
        0x00008454:    bf7dd3b2    ..}.    DCD    3212694450
        0x00008458:    3e06b26e    n..>    DCD    1040626286
        0x0000845c:    bf7dc68c    ..}.    DCD    3212691084
        0x00008460:    3e084105    .A.>    DCD    1040728325
        0x00008464:    bf7db940    @.}.    DCD    3212687680
        0x00008468:    3e09cf86    ...>    DCD    1040830342
        0x0000846c:    bf7dabcc    ..}.    DCD    3212684236
        0x00008470:    3e0b5df3    .].>    DCD    1040932339
        0x00008474:    bf7d9e30    0.}.    DCD    3212680752
        0x00008478:    3e0cec4a    J..>    DCD    1041034314
        0x0000847c:    bf7d906e    n.}.    DCD    3212677230
        0x00008480:    3e0e7a8b    .z.>    DCD    1041136267
        0x00008484:    bf7d8285    ..}.    DCD    3212673669
        0x00008488:    3e1008b7    ...>    DCD    1041238199
        0x0000848c:    bf7d7474    tt}.    DCD    3212670068
        0x00008490:    3e1196cc    ...>    DCD    1041340108
        0x00008494:    bf7d663d    =f}.    DCD    3212666429
        0x00008498:    3e1324ca    .$.>    DCD    1041441994
        0x0000849c:    bf7d57de    .W}.    DCD    3212662750
        0x000084a0:    3e14b2b2    ...>    DCD    1041543858
        0x000084a4:    bf7d4959    YI}.    DCD    3212659033
        0x000084a8:    3e164083    .@.>    DCD    1041645699
        0x000084ac:    bf7d3aac    .:}.    DCD    3212655276
        0x000084b0:    3e17ce3d    =..>    DCD    1041747517
        0x000084b4:    bf7d2bd8    .+}.    DCD    3212651480
        0x000084b8:    3e195be0    .[.>    DCD    1041849312
        0x000084bc:    bf7d1cdd    ..}.    DCD    3212647645
        0x000084c0:    3e1ae96b    k..>    DCD    1041951083
        0x000084c4:    bf7d0dbc    ..}.    DCD    3212643772
        0x000084c8:    3e1c76de    .v.>    DCD    1042052830
        0x000084cc:    bf7cfe73    s.|.    DCD    3212639859
        0x000084d0:    3e1e0438    8..>    DCD    1042154552
        0x000084d4:    bf7cef03    ..|.    DCD    3212635907
        0x000084d8:    3e1f917b    {..>    DCD    1042256251
        0x000084dc:    bf7cdf6c    l.|.    DCD    3212631916
        0x000084e0:    3e211ea5    ..!>    DCD    1042357925
        0x000084e4:    bf7ccfae    ..|.    DCD    3212627886
        0x000084e8:    3e22abb6    ..">    DCD    1042459574
        0x000084ec:    bf7cbfc9    ..|.    DCD    3212623817
        0x000084f0:    3e2438ad    .8$>    DCD    1042561197
        0x000084f4:    bf7cafbd    ..|.    DCD    3212619709
        0x000084f8:    3e25c58c    ..%>    DCD    1042662796
        0x000084fc:    bf7c9f8a    ..|.    DCD    3212615562
        0x00008500:    3e275251    QR'>    DCD    1042764369
        0x00008504:    bf7c8f31    1.|.    DCD    3212611377
        0x00008508:    3e28defc    ..(>    DCD    1042865916
        0x0000850c:    bf7c7eb0    .~|.    DCD    3212607152
        0x00008510:    3e2a6b8d    .k*>    DCD    1042967437
        0x00008514:    bf7c6e08    .n|.    DCD    3212602888
        0x00008518:    3e2bf804    ..+>    DCD    1043068932
        0x0000851c:    bf7c5d3a    :]|.    DCD    3212598586
        0x00008520:    3e2d8461    a.->    DCD    1043170401
        0x00008524:    bf7c4c44    DL|.    DCD    3212594244
        0x00008528:    3e2f10a2    ../>    DCD    1043271842
        0x0000852c:    bf7c3b28    (;|.    DCD    3212589864
        0x00008530:    3e309cc9    ..0>    DCD    1043373257
        0x00008534:    bf7c29e5    .)|.    DCD    3212585445
        0x00008538:    3e3228d4    .(2>    DCD    1043474644
        0x0000853c:    bf7c187a    z.|.    DCD    3212580986
        0x00008540:    3e33b4c4    ..3>    DCD    1043576004
        0x00008544:    bf7c06e9    ..|.    DCD    3212576489
        0x00008548:    3e354098    .@5>    DCD    1043677336
        0x0000854c:    bf7bf531    1.{.    DCD    3212571953
        0x00008550:    3e36cc50    P.6>    DCD    1043778640
        0x00008554:    bf7be353    S.{.    DCD    3212567379
        0x00008558:    3e3857ec    .W8>    DCD    1043879916
        0x0000855c:    bf7bd14d    M.{.    DCD    3212562765
        0x00008560:    3e39e36c    l.9>    DCD    1043981164
        0x00008564:    bf7bbf20     .{.    DCD    3212558112
        0x00008568:    3e3b6ecf    .n;>    DCD    1044082383
        0x0000856c:    bf7baccd    ..{.    DCD    3212553421
        0x00008570:    3e3cfa15    ..<>    DCD    1044183573
        0x00008574:    bf7b9a53    S.{.    DCD    3212548691
        0x00008578:    3e3e853e    >.>>    DCD    1044284734
        0x0000857c:    bf7b87b2    ..{.    DCD    3212543922
        0x00008580:    3e401049    I.@>    DCD    1044385865
        0x00008584:    bf7b74ea    .t{.    DCD    3212539114
        0x00008588:    3e419b37    7.A>    DCD    1044486967
        0x0000858c:    bf7b61fc    .a{.    DCD    3212534268
        0x00008590:    3e432607    .&C>    DCD    1044588039
        0x00008594:    bf7b4ee7    .N{.    DCD    3212529383
        0x00008598:    3e44b0b9    ..D>    DCD    1044689081
        0x0000859c:    bf7b3bab    .;{.    DCD    3212524459
        0x000085a0:    3e463b4d    M;F>    DCD    1044790093
        0x000085a4:    bf7b2848    H({.    DCD    3212519496
        0x000085a8:    3e47c5c2    ..G>    DCD    1044891074
        0x000085ac:    bf7b14be    ..{.    DCD    3212514494
        0x000085b0:    3e495018    .PI>    DCD    1044992024
        0x000085b4:    bf7b010e    ..{.    DCD    3212509454
        0x000085b8:    3e4ada4f    O.J>    DCD    1045092943
        0x000085bc:    bf7aed37    7.z.    DCD    3212504375
        0x000085c0:    3e4c6467    gdL>    DCD    1045193831
        0x000085c4:    bf7ad93a    :.z.    DCD    3212499258
        0x000085c8:    3e4dee60    `.M>    DCD    1045294688
        0x000085cc:    bf7ac516    ..z.    DCD    3212494102
        0x000085d0:    3e4f7838    8xO>    DCD    1045395512
        0x000085d4:    bf7ab0cb    ..z.    DCD    3212488907
        0x000085d8:    3e5101f1    ..Q>    DCD    1045496305
        0x000085dc:    bf7a9c59    Y.z.    DCD    3212483673
        0x000085e0:    3e528b89    ..R>    DCD    1045597065
        0x000085e4:    bf7a87c1    ..z.    DCD    3212478401
        0x000085e8:    3e541501    ..T>    DCD    1045697793
        0x000085ec:    bf7a7302    .sz.    DCD    3212473090
        0x000085f0:    3e559e58    X.U>    DCD    1045798488
        0x000085f4:    bf7a5e1c    .^z.    DCD    3212467740
        0x000085f8:    3e57278f    .'W>    DCD    1045899151
        0x000085fc:    bf7a4910    .Iz.    DCD    3212462352
        0x00008600:    3e58b0a4    ..X>    DCD    1045999780
        0x00008604:    bf7a33dd    .3z.    DCD    3212456925
        0x00008608:    3e5a3997    .9Z>    DCD    1046100375
        0x0000860c:    bf7a1e84    ..z.    DCD    3212451460
        0x00008610:    3e5bc26a    j.[>    DCD    1046200938
        0x00008614:    bf7a0904    ..z.    DCD    3212445956
        0x00008618:    3e5d4b1a    .K]>    DCD    1046301466
        0x0000861c:    bf79f35e    ^.y.    DCD    3212440414
        0x00008620:    3e5ed3a8    ..^>    DCD    1046401960
        0x00008624:    bf79dd91    ..y.    DCD    3212434833
        0x00008628:    3e605c13    .\`>    DCD    1046502419
        0x0000862c:    bf79c79d    ..y.    DCD    3212429213
        0x00008630:    3e61e45c    \.a>    DCD    1046602844
        0x00008634:    bf79b183    ..y.    DCD    3212423555
        0x00008638:    3e636c83    .lc>    DCD    1046703235
        0x0000863c:    bf799b43    C.y.    DCD    3212417859
        0x00008640:    3e64f486    ..d>    DCD    1046803590
        0x00008644:    bf7984dc    ..y.    DCD    3212412124
        0x00008648:    3e667c66    f|f>    DCD    1046903910
        0x0000864c:    bf796e4e    Nny.    DCD    3212406350
        0x00008650:    3e680422    ".h>    DCD    1047004194
        0x00008654:    bf79579a    .Wy.    DCD    3212400538
        0x00008658:    3e698bba    ..i>    DCD    1047104442
        0x0000865c:    bf7940c0    .@y.    DCD    3212394688
        0x00008660:    3e6b132f    /.k>    DCD    1047204655
        0x00008664:    bf7929bf    .)y.    DCD    3212388799
        0x00008668:    3e6c9a7f    ..l>    DCD    1047304831
        0x0000866c:    bf791298    ..y.    DCD    3212382872
        0x00008670:    3e6e21ab    .!n>    DCD    1047404971
        0x00008674:    bf78fb4a    J.x.    DCD    3212376906
        0x00008678:    3e6fa8b2    ..o>    DCD    1047505074
        0x0000867c:    bf78e3d6    ..x.    DCD    3212370902
        0x00008680:    3e712f94    ./q>    DCD    1047605140
        0x00008684:    bf78cc3b    ;.x.    DCD    3212364859
        0x00008688:    3e72b651    Q.r>    DCD    1047705169
        0x0000868c:    bf78b47b    {.x.    DCD    3212358779
        0x00008690:    3e743ce8    .<t>    DCD    1047805160
        0x00008694:    bf789c93    ..x.    DCD    3212352659
        0x00008698:    3e75c35a    Z.u>    DCD    1047905114
        0x0000869c:    bf788486    ..x.    DCD    3212346502
        0x000086a0:    3e7749a6    .Iw>    DCD    1048005030
        0x000086a4:    bf786c52    Rlx.    DCD    3212340306
        0x000086a8:    3e78cfcc    ..x>    DCD    1048104908
        0x000086ac:    bf7853f8    .Sx.    DCD    3212334072
        0x000086b0:    3e7a55cb    .Uz>    DCD    1048204747
        0x000086b4:    bf783b77    w;x.    DCD    3212327799
        0x000086b8:    3e7bdba4    ..{>    DCD    1048304548
        0x000086bc:    bf7822d1    ."x.    DCD    3212321489
        0x000086c0:    3e7d6156    Va}>    DCD    1048404310
        0x000086c4:    bf780a04    ..x.    DCD    3212315140
        0x000086c8:    3e7ee6e1    ..~>    DCD    1048504033
        0x000086cc:    bf77f110    ..w.    DCD    3212308752
        0x000086d0:    3e803622    "6.>    DCD    1048589858
        0x000086d4:    bf77d7f7    ..w.    DCD    3212302327
        0x000086d8:    3e80f8c0    ...>    DCD    1048639680
        0x000086dc:    bf77beb7    ..w.    DCD    3212295863
        0x000086e0:    3e81bb4a    J..>    DCD    1048689482
        0x000086e4:    bf77a551    Q.w.    DCD    3212289361
        0x000086e8:    3e827dc0    .}.>    DCD    1048739264
        0x000086ec:    bf778bc5    ..w.    DCD    3212282821
        0x000086f0:    3e834022    "@.>    DCD    1048789026
        0x000086f4:    bf777213    .rw.    DCD    3212276243
        0x000086f8:    3e840270    p..>    DCD    1048838768
        0x000086fc:    bf77583a    :Xw.    DCD    3212269626
        0x00008700:    3e84c4aa    ...>    DCD    1048888490
        0x00008704:    bf773e3c    <>w.    DCD    3212262972
        0x00008708:    3e8586ce    ...>    DCD    1048938190
        0x0000870c:    bf772417    .$w.    DCD    3212256279
        0x00008710:    3e8648df    .H.>    DCD    1048987871
        0x00008714:    bf7709cc    ..w.    DCD    3212249548
        0x00008718:    3e870ada    ...>    DCD    1049037530
        0x0000871c:    bf76ef5b    [.v.    DCD    3212242779
        0x00008720:    3e87ccc1    ...>    DCD    1049087169
        0x00008724:    bf76d4c4    ..v.    DCD    3212235972
        0x00008728:    3e888e93    ...>    DCD    1049136787
        0x0000872c:    bf76ba07    ..v.    DCD    3212229127
        0x00008730:    3e895050    PP.>    DCD    1049186384
        0x00008734:    bf769f24    $.v.    DCD    3212222244
        0x00008738:    3e8a11f8    ...>    DCD    1049235960
        0x0000873c:    bf76841b    ..v.    DCD    3212215323
        0x00008740:    3e8ad38a    ...>    DCD    1049285514
        0x00008744:    bf7668ec    .hv.    DCD    3212208364
        0x00008748:    3e8b9507    ...>    DCD    1049335047
        0x0000874c:    bf764d97    .Mv.    DCD    3212201367
        0x00008750:    3e8c566e    nV.>    DCD    1049384558
        0x00008754:    bf76321b    .2v.    DCD    3212194331
        0x00008758:    3e8d17c0    ...>    DCD    1049434048
        0x0000875c:    bf76167a    z.v.    DCD    3212187258
        0x00008760:    3e8dd8fc    ...>    DCD    1049483516
        0x00008764:    bf75fab3    ..u.    DCD    3212180147
        0x00008768:    3e8e9a22    "..>    DCD    1049532962
        0x0000876c:    bf75dec6    ..u.    DCD    3212172998
        0x00008770:    3e8f5b32    2[.>    DCD    1049582386
        0x00008774:    bf75c2b3    ..u.    DCD    3212165811
        0x00008778:    3e901c2c    ,..>    DCD    1049631788
        0x0000877c:    bf75a67b    {.u.    DCD    3212158587
        0x00008780:    3e90dd10    ...>    DCD    1049681168
        0x00008784:    bf758a1c    ..u.    DCD    3212151324
        0x00008788:    3e919ddd    ...>    DCD    1049730525
        0x0000878c:    bf756d97    .mu.    DCD    3212144023
        0x00008790:    3e925e94    .^.>    DCD    1049779860
        0x00008794:    bf7550ed    .Pu.    DCD    3212136685
        0x00008798:    3e931f35    5..>    DCD    1049829173
        0x0000879c:    bf75341d    .4u.    DCD    3212129309
        0x000087a0:    3e93dfbf    ...>    DCD    1049878463
        0x000087a4:    bf751727    '.u.    DCD    3212121895
        0x000087a8:    3e94a031    1..>    DCD    1049927729
        0x000087ac:    bf74fa0b    ..t.    DCD    3212114443
        0x000087b0:    3e95608d    .`.>    DCD    1049976973
        0x000087b4:    bf74dcc9    ..t.    DCD    3212106953
        0x000087b8:    3e9620d2    . .>    DCD    1050026194
        0x000087bc:    bf74bf62    b.t.    DCD    3212099426
        0x000087c0:    3e96e100    ...>    DCD    1050075392
        0x000087c4:    bf74a1d5    ..t.    DCD    3212091861
        0x000087c8:    3e97a117    ...>    DCD    1050124567
        0x000087cc:    bf748422    ".t.    DCD    3212084258
        0x000087d0:    3e986116    .a.>    DCD    1050173718
        0x000087d4:    bf746649    Ift.    DCD    3212076617
        0x000087d8:    3e9920fe    . .>    DCD    1050222846
        0x000087dc:    bf74484b    KHt.    DCD    3212068939
        0x000087e0:    3e99e0ce    ...>    DCD    1050271950
        0x000087e4:    bf742a27    '*t.    DCD    3212061223
        0x000087e8:    3e9aa086    ...>    DCD    1050321030
        0x000087ec:    bf740bdd    ..t.    DCD    3212053469
        0x000087f0:    3e9b6027    '`.>    DCD    1050370087
        0x000087f4:    bf73ed6e    n.s.    DCD    3212045678
        0x000087f8:    3e9c1faf    ...>    DCD    1050419119
        0x000087fc:    bf73ced9    ..s.    DCD    3212037849
        0x00008800:    3e9cdf20     ..>    DCD    1050468128
        0x00008804:    bf73b01f    ..s.    DCD    3212029983
        0x00008808:    3e9d9e78    x..>    DCD    1050517112
        0x0000880c:    bf73913f    ?.s.    DCD    3212022079
        0x00008810:    3e9e5db8    .].>    DCD    1050566072
        0x00008814:    bf737239    9rs.    DCD    3212014137
        0x00008818:    3e9f1cdf    ...>    DCD    1050615007
        0x0000881c:    bf73530e    .Ss.    DCD    3212006158
        0x00008820:    3e9fdbee    ...>    DCD    1050663918
        0x00008824:    bf7333be    .3s.    DCD    3211998142
        0x00008828:    3ea09ae5    ...>    DCD    1050712805
        0x0000882c:    bf731447    G.s.    DCD    3211990087
        0x00008830:    3ea159c2    .Y.>    DCD    1050761666
        0x00008834:    bf72f4ac    ..r.    DCD    3211981996
        0x00008838:    3ea21887    ...>    DCD    1050810503
        0x0000883c:    bf72d4eb    ..r.    DCD    3211973867
        0x00008840:    3ea2d733    3..>    DCD    1050859315
        0x00008844:    bf72b504    ..r.    DCD    3211965700
        0x00008848:    3ea395c5    ...>    DCD    1050908101
        0x0000884c:    bf7294f8    ..r.    DCD    3211957496
        0x00008850:    3ea4543f    ?T.>    DCD    1050956863
        0x00008854:    bf7274c7    .tr.    DCD    3211949255
        0x00008858:    3ea5129f    ...>    DCD    1051005599
        0x0000885c:    bf725470    pTr.    DCD    3211940976
        0x00008860:    3ea5d0e5    ...>    DCD    1051054309
        0x00008864:    bf7233f4    .3r.    DCD    3211932660
        0x00008868:    3ea68f12    ...>    DCD    1051102994
        0x0000886c:    bf721352    R.r.    DCD    3211924306
        0x00008870:    3ea74d25    %M.>    DCD    1051151653
        0x00008874:    bf71f28c    ..q.    DCD    3211915916
        0x00008878:    3ea80b1f    ...>    DCD    1051200287
        0x0000887c:    bf71d19f    ..q.    DCD    3211907487
        0x00008880:    3ea8c8fe    ...>    DCD    1051248894
        0x00008884:    bf71b08e    ..q.    DCD    3211899022
        0x00008888:    3ea986c4    ...>    DCD    1051297476
        0x0000888c:    bf718f57    W.q.    DCD    3211890519
        0x00008890:    3eaa446f    oD.>    DCD    1051346031
        0x00008894:    bf716dfb    .mq.    DCD    3211881979
        0x00008898:    3eab0201    ...>    DCD    1051394561
        0x0000889c:    bf714c7a    zLq.    DCD    3211873402
        0x000088a0:    3eabbf77    w..>    DCD    1051443063
        0x000088a4:    bf712ad4    .*q.    DCD    3211864788
        0x000088a8:    3eac7cd4    .|.>    DCD    1051491540
        0x000088ac:    bf710908    ..q.    DCD    3211856136
        0x000088b0:    3ead3a15    .:.>    DCD    1051539989
        0x000088b4:    bf70e717    ..p.    DCD    3211847447
        0x000088b8:    3eadf73c    <..>    DCD    1051588412
        0x000088bc:    bf70c502    ..p.    DCD    3211838722
        0x000088c0:    3eaeb449    I..>    DCD    1051636809
        0x000088c4:    bf70a2c6    ..p.    DCD    3211829958
        0x000088c8:    3eaf713a    :q.>    DCD    1051685178
        0x000088cc:    bf708066    f.p.    DCD    3211821158
        0x000088d0:    3eb02e10    ...>    DCD    1051733520
        0x000088d4:    bf705de1    .]p.    DCD    3211812321
        0x000088d8:    3eb0eacb    ...>    DCD    1051781835
        0x000088dc:    bf703b37    7;p.    DCD    3211803447
        0x000088e0:    3eb1a76b    k..>    DCD    1051830123
        0x000088e4:    bf701867    g.p.    DCD    3211794535
        0x000088e8:    3eb263ef    .c.>    DCD    1051878383
        0x000088ec:    bf6ff573    s.o.    DCD    3211785587
        0x000088f0:    3eb32058    X .>    DCD    1051926616
        0x000088f4:    bf6fd25a    Z.o.    DCD    3211776602
        0x000088f8:    3eb3dca5    ...>    DCD    1051974821
        0x000088fc:    bf6faf1b    ..o.    DCD    3211767579
        0x00008900:    3eb498d6    ...>    DCD    1052022998
        0x00008904:    bf6f8bb8    ..o.    DCD    3211758520
        0x00008908:    3eb554ec    .T.>    DCD    1052071148
        0x0000890c:    bf6f6830    0ho.    DCD    3211749424
        0x00008910:    3eb610e6    ...>    DCD    1052119270
        0x00008914:    bf6f4483    .Do.    DCD    3211740291
        0x00008918:    3eb6ccc3    ...>    DCD    1052167363
        0x0000891c:    bf6f20b0    . o.    DCD    3211731120
        0x00008920:    3eb78884    ...>    DCD    1052215428
        0x00008924:    bf6efcba    ..n.    DCD    3211721914
        0x00008928:    3eb8442a    *D.>    DCD    1052263466
        0x0000892c:    bf6ed89e    ..n.    DCD    3211712670
        0x00008930:    3eb8ffb2    ...>    DCD    1052311474
        0x00008934:    bf6eb45d    ].n.    DCD    3211703389
        0x00008938:    3eb9bb1e    ...>    DCD    1052359454
        0x0000893c:    bf6e8ff8    ..n.    DCD    3211694072
        0x00008940:    3eba766e    nv.>    DCD    1052407406
        0x00008944:    bf6e6b6d    mkn.    DCD    3211684717
        0x00008948:    3ebb31a0    .1.>    DCD    1052455328
        0x0000894c:    bf6e46be    .Fn.    DCD    3211675326
        0x00008950:    3ebbecb6    ...>    DCD    1052503222
        0x00008954:    bf6e21eb    .!n.    DCD    3211665899
        0x00008958:    3ebca7af    ...>    DCD    1052551087
        0x0000895c:    bf6dfcf2    ..m.    DCD    3211656434
        0x00008960:    3ebd628b    .b.>    DCD    1052598923
        0x00008964:    bf6dd7d5    ..m.    DCD    3211646933
        0x00008968:    3ebe1d4a    J..>    DCD    1052646730
        0x0000896c:    bf6db293    ..m.    DCD    3211637395
        0x00008970:    3ebed7eb    ...>    DCD    1052694507
        0x00008974:    bf6d8d2d    -.m.    DCD    3211627821
        0x00008978:    3ebf926f    o..>    DCD    1052742255
        0x0000897c:    bf6d67a1    .gm.    DCD    3211618209
        0x00008980:    3ec04cd5    .L.>    DCD    1052789973
        0x00008984:    bf6d41f2    .Am.    DCD    3211608562
        0x00008988:    3ec1071e    ...>    DCD    1052837662
        0x0000898c:    bf6d1c1d    ..m.    DCD    3211598877
        0x00008990:    3ec1c148    H..>    DCD    1052885320
        0x00008994:    bf6cf624    $.l.    DCD    3211589156
        0x00008998:    3ec27b55    U{.>    DCD    1052932949
        0x0000899c:    bf6cd007    ..l.    DCD    3211579399
        0x000089a0:    3ec33544    D5.>    DCD    1052980548
        0x000089a4:    bf6ca9c5    ..l.    DCD    3211569605
        0x000089a8:    3ec3ef15    ...>    DCD    1053028117
        0x000089ac:    bf6c835e    ^.l.    DCD    3211559774
        0x000089b0:    3ec4a8c8    ...>    DCD    1053075656
        0x000089b4:    bf6c5cd4    .\l.    DCD    3211549908
        0x000089b8:    3ec5625c    \b.>    DCD    1053123164
        0x000089bc:    bf6c3624    $6l.    DCD    3211540004
        0x000089c0:    3ec61bd2    ...>    DCD    1053170642
        0x000089c4:    bf6c0f50    P.l.    DCD    3211530064
        0x000089c8:    3ec6d529    )..>    DCD    1053218089
        0x000089cc:    bf6be858    X.k.    DCD    3211520088
        0x000089d0:    3ec78e62    b..>    DCD    1053265506
        0x000089d4:    bf6bc13b    ;.k.    DCD    3211510075
        0x000089d8:    3ec8477c    |G.>    DCD    1053312892
        0x000089dc:    bf6b99fb    ..k.    DCD    3211500027
        0x000089e0:    3ec90077    w..>    DCD    1053360247
        0x000089e4:    bf6b7295    .rk.    DCD    3211489941
        0x000089e8:    3ec9b953    S..>    DCD    1053407571
        0x000089ec:    bf6b4b0c    .Kk.    DCD    3211479820
        0x000089f0:    3eca7210    .r.>    DCD    1053454864
        0x000089f4:    bf6b235e    ^#k.    DCD    3211469662
        0x000089f8:    3ecb2aae    .*.>    DCD    1053502126
        0x000089fc:    bf6afb8c    ..j.    DCD    3211459468
        0x00008a00:    3ecbe32c    ,..>    DCD    1053549356
        0x00008a04:    bf6ad395    ..j.    DCD    3211449237
        0x00008a08:    3ecc9b8b    ...>    DCD    1053596555
        0x00008a0c:    bf6aab7b    {.j.    DCD    3211438971
        0x00008a10:    3ecd53ca    .S.>    DCD    1053643722
        0x00008a14:    bf6a833c    <.j.    DCD    3211428668
        0x00008a18:    3ece0bea    ...>    DCD    1053690858
        0x00008a1c:    bf6a5ad9    .Zj.    DCD    3211418329
        0x00008a20:    3ecec3ea    ...>    DCD    1053737962
        0x00008a24:    bf6a3252    R2j.    DCD    3211407954
        0x00008a28:    3ecf7bca    .{.>    DCD    1053785034
        0x00008a2c:    bf6a09a7    ..j.    DCD    3211397543
        0x00008a30:    3ed0338a    .3.>    DCD    1053832074
        0x00008a34:    bf69e0d7    ..i.    DCD    3211387095
        0x00008a38:    3ed0eb2a    *..>    DCD    1053879082
        0x00008a3c:    bf69b7e4    ..i.    DCD    3211376612
        0x00008a40:    3ed1a2aa    ...>    DCD    1053926058
        0x00008a44:    bf698ecc    ..i.    DCD    3211366092
        0x00008a48:    3ed25a09    .Z.>    DCD    1053973001
        0x00008a4c:    bf696591    .ei.    DCD    3211355537
        0x00008a50:    3ed31148    H..>    DCD    1054019912
        0x00008a54:    bf693c32    2<i.    DCD    3211344946
        0x00008a58:    3ed3c867    g..>    DCD    1054066791
        0x00008a5c:    bf6912ae    ..i.    DCD    3211334318
        0x00008a60:    3ed47f64    d..>    DCD    1054113636
        0x00008a64:    bf68e907    ..h.    DCD    3211323655
        0x00008a68:    3ed53641    A6.>    DCD    1054160449
        0x00008a6c:    bf68bf3c    <.h.    DCD    3211312956
        0x00008a70:    3ed5ecfd    ...>    DCD    1054207229
        0x00008a74:    bf68954c    L.h.    DCD    3211302220
        0x00008a78:    3ed6a399    ...>    DCD    1054253977
        0x00008a7c:    bf686b39    9kh.    DCD    3211291449
        0x00008a80:    3ed75a13    .Z.>    DCD    1054300691
        0x00008a84:    bf684103    .Ah.    DCD    3211280643
        0x00008a88:    3ed8106b    k..>    DCD    1054347371
        0x00008a8c:    bf6816a8    ..h.    DCD    3211269800
        0x00008a90:    3ed8c6a3    ...>    DCD    1054394019
        0x00008a94:    bf67ec2a    *.g.    DCD    3211258922
        0x00008a98:    3ed97cb9    .|.>    DCD    1054440633
        0x00008a9c:    bf67c187    ..g.    DCD    3211248007
        0x00008aa0:    3eda32ad    .2.>    DCD    1054487213
        0x00008aa4:    bf6796c1    ..g.    DCD    3211237057
        0x00008aa8:    3edae880    ...>    DCD    1054533760
        0x00008aac:    bf676bd8    .kg.    DCD    3211226072
        0x00008ab0:    3edb9e31    1..>    DCD    1054580273
        0x00008ab4:    bf6740ca    .@g.    DCD    3211215050
        0x00008ab8:    3edc53c1    .S.>    DCD    1054626753
        0x00008abc:    bf671599    ..g.    DCD    3211203993
        0x00008ac0:    3edd092e    ...>    DCD    1054673198
        0x00008ac4:    bf66ea45    E.f.    DCD    3211192901
        0x00008ac8:    3eddbe79    y..>    DCD    1054719609
        0x00008acc:    bf66becc    ..f.    DCD    3211181772
        0x00008ad0:    3ede73a2    .s.>    DCD    1054765986
        0x00008ad4:    bf669330    0.f.    DCD    3211170608
        0x00008ad8:    3edf28a9    .(.>    DCD    1054812329
        0x00008adc:    bf666771    qgf.    DCD    3211159409
        0x00008ae0:    3edfdd8d    ...>    DCD    1054858637
        0x00008ae4:    bf663b8e    .;f.    DCD    3211148174
        0x00008ae8:    3ee0924f    O..>    DCD    1054904911
        0x00008aec:    bf660f88    ..f.    DCD    3211136904
        0x00008af0:    3ee146ee    .F.>    DCD    1054951150
        0x00008af4:    bf65e35e    ^.e.    DCD    3211125598
        0x00008af8:    3ee1fb6a    j..>    DCD    1054997354
        0x00008afc:    bf65b710    ..e.    DCD    3211114256
        0x00008b00:    3ee2afc4    ...>    DCD    1055043524
        0x00008b04:    bf658aa0    ..e.    DCD    3211102880
        0x00008b08:    3ee363fa    .c.>    DCD    1055089658
        0x00008b0c:    bf655e0b    .^e.    DCD    3211091467
        0x00008b10:    3ee4180e    ...>    DCD    1055135758
        0x00008b14:    bf653154    T1e.    DCD    3211080020
        0x00008b18:    3ee4cbfe    ...>    DCD    1055181822
        0x00008b1c:    bf650479    y.e.    DCD    3211068537
        0x00008b20:    3ee57fcb    ...>    DCD    1055227851
        0x00008b24:    bf64d77b    {.d.    DCD    3211057019
        0x00008b28:    3ee63375    u3.>    DCD    1055273845
        0x00008b2c:    bf64aa59    Y.d.    DCD    3211045465
        0x00008b30:    3ee6e6fb    ...>    DCD    1055319803
        0x00008b34:    bf647d14    .}d.    DCD    3211033876
        0x00008b38:    3ee79a5d    ]..>    DCD    1055365725
        0x00008b3c:    bf644fac    .Od.    DCD    3211022252
        0x00008b40:    3ee84d9c    .M.>    DCD    1055411612
        0x00008b44:    bf642221    !"d.    DCD    3211010593
        0x00008b48:    3ee900b7    ...>    DCD    1055457463
        0x00008b4c:    bf63f473    s.c.    DCD    3210998899
        0x00008b50:    3ee9b3ae    ...>    DCD    1055503278
        0x00008b54:    bf63c6a1    ..c.    DCD    3210987169
        0x00008b58:    3eea6681    .f.>    DCD    1055549057
        0x00008b5c:    bf6398ac    ..c.    DCD    3210975404
        0x00008b60:    3eeb1930    0..>    DCD    1055594800
        0x00008b64:    bf636a95    .jc.    DCD    3210963605
        0x00008b68:    3eebcbbb    ...>    DCD    1055640507
        0x00008b6c:    bf633c5a    Z<c.    DCD    3210951770
        0x00008b70:    3eec7e21    !~.>    DCD    1055686177
        0x00008b74:    bf630dfc    ..c.    DCD    3210939900
        0x00008b78:    3eed3063    c0.>    DCD    1055731811
        0x00008b7c:    bf62df7b    {.b.    DCD    3210927995
        0x00008b80:    3eede280    ...>    DCD    1055777408
        0x00008b84:    bf62b0d7    ..b.    DCD    3210916055
        0x00008b88:    3eee9479    y..>    DCD    1055822969
        0x00008b8c:    bf628210    ..b.    DCD    3210904080
        0x00008b90:    3eef464c    LF.>    DCD    1055868492
        0x00008b94:    bf625326    &Sb.    DCD    3210892070
        0x00008b98:    3eeff7fb    ...>    DCD    1055913979
        0x00008b9c:    bf62241a    .$b.    DCD    3210880026
        0x00008ba0:    3ef0a985    ...>    DCD    1055959429
        0x00008ba4:    bf61f4ea    ..a.    DCD    3210867946
        0x00008ba8:    3ef15aea    .Z.>    DCD    1056004842
        0x00008bac:    bf61c598    ..a.    DCD    3210855832
        0x00008bb0:    3ef20c29    )..>    DCD    1056050217
        0x00008bb4:    bf619622    ".a.    DCD    3210843682
        0x00008bb8:    3ef2bd43    C..>    DCD    1056095555
        0x00008bbc:    bf61668a    .fa.    DCD    3210831498
        0x00008bc0:    3ef36e38    8n.>    DCD    1056140856
        0x00008bc4:    bf6136d0    .6a.    DCD    3210819280
        0x00008bc8:    3ef41f07    ...>    DCD    1056186119
        0x00008bcc:    bf6106f2    ..a.    DCD    3210807026
        0x00008bd0:    3ef4cfb1    ...>    DCD    1056231345
        0x00008bd4:    bf60d6f2    ..`.    DCD    3210794738
        0x00008bd8:    3ef58035    5..>    DCD    1056276533
        0x00008bdc:    bf60a6cf    ..`.    DCD    3210782415
        0x00008be0:    3ef63093    .0.>    DCD    1056321683
        0x00008be4:    bf607689    .v`.    DCD    3210770057
        0x00008be8:    3ef6e0cb    ...>    DCD    1056366795
        0x00008bec:    bf604621    !F`.    DCD    3210757665
        0x00008bf0:    3ef790dc    ...>    DCD    1056411868
        0x00008bf4:    bf601596    ..`.    DCD    3210745238
        0x00008bf8:    3ef840c8    .@.>    DCD    1056456904
        0x00008bfc:    bf5fe4e9    .._.    DCD    3210732777
        0x00008c00:    3ef8f08e    ...>    DCD    1056501902
        0x00008c04:    bf5fb419    .._.    DCD    3210720281
        0x00008c08:    3ef9a02d    -..>    DCD    1056546861
        0x00008c0c:    bf5f8327    '._.    DCD    3210707751
        0x00008c10:    3efa4fa5    .O.>    DCD    1056591781
        0x00008c14:    bf5f5212    .R_.    DCD    3210695186
        0x00008c18:    3efafef7    ...>    DCD    1056636663
        0x00008c1c:    bf5f20db    . _.    DCD    3210682587
        0x00008c20:    3efbae22    "..>    DCD    1056681506
        0x00008c24:    bf5eef81    ..^.    DCD    3210669953
        0x00008c28:    3efc5d27    '].>    DCD    1056726311
        0x00008c2c:    bf5ebe05    ..^.    DCD    3210657285
        0x00008c30:    3efd0c04    ...>    DCD    1056771076
        0x00008c34:    bf5e8c67    g.^.    DCD    3210644583
        0x00008c38:    3efdbabb    ...>    DCD    1056815803
        0x00008c3c:    bf5e5aa6    .Z^.    DCD    3210631846
        0x00008c40:    3efe694a    Ji.>    DCD    1056860490
        0x00008c44:    bf5e28c3    .(^.    DCD    3210619075
        0x00008c48:    3eff17b2    ...>    DCD    1056905138
        0x00008c4c:    bf5df6be    ..].    DCD    3210606270
        0x00008c50:    3effc5f3    ...>    DCD    1056949747
        0x00008c54:    bf5dc497    ..].    DCD    3210593431
        0x00008c58:    3f003a06    .:.?    DCD    1056979462
        0x00008c5c:    bf5d924d    M.].    DCD    3210580557
        0x00008c60:    3f0090ff    ...?    DCD    1057001727
        0x00008c64:    bf5d5fe1    ._].    DCD    3210567649
        0x00008c68:    3f00e7e4    ...?    DCD    1057023972
        0x00008c6c:    bf5d2d53    S-].    DCD    3210554707
        0x00008c70:    3f013eb5    .>.?    DCD    1057046197
        0x00008c74:    bf5cfaa3    ..\.    DCD    3210541731
        0x00008c78:    3f019573    s..?    DCD    1057068403
        0x00008c7c:    bf5cc7d1    ..\.    DCD    3210528721
        0x00008c80:    3f01ec1c    ...?    DCD    1057090588
        0x00008c84:    bf5c94dd    ..\.    DCD    3210515677
        0x00008c88:    3f0242b1    .B.?    DCD    1057112753
        0x00008c8c:    bf5c61c7    .a\.    DCD    3210502599
        0x00008c90:    3f029932    2..?    DCD    1057134898
        0x00008c94:    bf5c2e8e    ..\.    DCD    3210489486
        0x00008c98:    3f02ef9f    ...?    DCD    1057157023
        0x00008c9c:    bf5bfb34    4.[.    DCD    3210476340
        0x00008ca0:    3f0345f8    .E.?    DCD    1057179128
        0x00008ca4:    bf5bc7b8    ..[.    DCD    3210463160
        0x00008ca8:    3f039c3d    =..?    DCD    1057201213
        0x00008cac:    bf5b941a    ..[.    DCD    3210449946
        0x00008cb0:    3f03f26d    m..?    DCD    1057223277
        0x00008cb4:    bf5b605a    Z`[.    DCD    3210436698
        0x00008cb8:    3f044889    .H.?    DCD    1057245321
        0x00008cbc:    bf5b2c79    y,[.    DCD    3210423417
        0x00008cc0:    3f049e91    ...?    DCD    1057267345
        0x00008cc4:    bf5af875    u.Z.    DCD    3210410101
        0x00008cc8:    3f04f484    ...?    DCD    1057289348
        0x00008ccc:    bf5ac450    P.Z.    DCD    3210396752
        0x00008cd0:    3f054a62    bJ.?    DCD    1057311330
        0x00008cd4:    bf5a9009    ..Z.    DCD    3210383369
        0x00008cd8:    3f05a02c    ,..?    DCD    1057333292
        0x00008cdc:    bf5a5ba0    .[Z.    DCD    3210369952
        0x00008ce0:    3f05f5e2    ...?    DCD    1057355234
        0x00008ce4:    bf5a2716    .'Z.    DCD    3210356502
        0x00008ce8:    3f064b82    .K.?    DCD    1057377154
        0x00008cec:    bf59f26a    j.Y.    DCD    3210343018
        0x00008cf0:    3f06a10e    ...?    DCD    1057399054
        0x00008cf4:    bf59bd9c    ..Y.    DCD    3210329500
        0x00008cf8:    3f06f686    ...?    DCD    1057420934
        0x00008cfc:    bf5988ad    ..Y.    DCD    3210315949
        0x00008d00:    3f074be8    .K.?    DCD    1057442792
        0x00008d04:    bf59539c    .SY.    DCD    3210302364
        0x00008d08:    3f07a136    6..?    DCD    1057464630
        0x00008d0c:    bf591e6a    j.Y.    DCD    3210288746
        0x00008d10:    3f07f66f    o..?    DCD    1057486447
        0x00008d14:    bf58e917    ..X.    DCD    3210275095
        0x00008d18:    3f084b92    .K.?    DCD    1057508242
        0x00008d1c:    bf58b3a1    ..X.    DCD    3210261409
        0x00008d20:    3f08a0a1    ...?    DCD    1057530017
        0x00008d24:    bf587e0b    .~X.    DCD    3210247691
        0x00008d28:    3f08f59b    ...?    DCD    1057551771
        0x00008d2c:    bf584853    SHX.    DCD    3210233939
        0x00008d30:    3f094a7f    .J.?    DCD    1057573503
        0x00008d34:    bf581279    y.X.    DCD    3210220153
        0x00008d38:    3f099f4e    N..?    DCD    1057595214
        0x00008d3c:    bf57dc7f    ..W.    DCD    3210206335
        0x00008d40:    3f09f409    ...?    DCD    1057616905
        0x00008d44:    bf57a663    c.W.    DCD    3210192483
        0x00008d48:    3f0a48ad    .H.?    DCD    1057638573
        0x00008d4c:    bf577026    &pW.    DCD    3210178598
        0x00008d50:    3f0a9d3d    =..?    DCD    1057660221
        0x00008d54:    bf5739c7    .9W.    DCD    3210164679
        0x00008d58:    3f0af1b7    ...?    DCD    1057681847
        0x00008d5c:    bf570348    H.W.    DCD    3210150728
        0x00008d60:    3f0b461c    .F.?    DCD    1057703452
        0x00008d64:    bf56cca7    ..V.    DCD    3210136743
        0x00008d68:    3f0b9a6b    k..?    DCD    1057725035
        0x00008d6c:    bf5695e5    ..V.    DCD    3210122725
        0x00008d70:    3f0beea5    ...?    DCD    1057746597
        0x00008d74:    bf565f02    ._V.    DCD    3210108674
        0x00008d78:    3f0c42c9    .B.?    DCD    1057768137
        0x00008d7c:    bf5627fe    .'V.    DCD    3210094590
        0x00008d80:    3f0c96d7    ...?    DCD    1057789655
        0x00008d84:    bf55f0d9    ..U.    DCD    3210080473
        0x00008d88:    3f0cead0    ...?    DCD    1057811152
        0x00008d8c:    bf55b993    ..U.    DCD    3210066323
        0x00008d90:    3f0d3eb3    .>.?    DCD    1057832627
        0x00008d94:    bf55822c    ,.U.    DCD    3210052140
        0x00008d98:    3f0d9281    ...?    DCD    1057854081
        0x00008d9c:    bf554aa4    .JU.    DCD    3210037924
        0x00008da0:    3f0de638    8..?    DCD    1057875512
        0x00008da4:    bf5512fb    ..U.    DCD    3210023675
        0x00008da8:    3f0e39da    .9.?    DCD    1057896922
        0x00008dac:    bf54db31    1.T.    DCD    3210009393
        0x00008db0:    3f0e8d65    e..?    DCD    1057918309
        0x00008db4:    bf54a347    G.T.    DCD    3209995079
        0x00008db8:    3f0ee0db    ...?    DCD    1057939675
        0x00008dbc:    bf546b3b    ;kT.    DCD    3209980731
        0x00008dc0:    3f0f343b    ;4.?    DCD    1057961019
        0x00008dc4:    bf54330f    .3T.    DCD    3209966351
        0x00008dc8:    3f0f8784    ...?    DCD    1057982340
        0x00008dcc:    bf53fac3    ..S.    DCD    3209951939
        0x00008dd0:    3f0fdab8    ...?    DCD    1058003640
        0x00008dd4:    bf53c255    U.S.    DCD    3209937493
        0x00008dd8:    3f102dd5    .-.?    DCD    1058024917
        0x00008ddc:    bf5389c7    ..S.    DCD    3209923015
        0x00008de0:    3f1080dc    ...?    DCD    1058046172
        0x00008de4:    bf535118    .QS.    DCD    3209908504
        0x00008de8:    3f10d3cd    ...?    DCD    1058067405
        0x00008dec:    bf531849    I.S.    DCD    3209893961
        0x00008df0:    3f1126a7    .&.?    DCD    1058088615
        0x00008df4:    bf52df59    Y.R.    DCD    3209879385
        0x00008df8:    3f11796b    ky.?    DCD    1058109803
        0x00008dfc:    bf52a649    I.R.    DCD    3209864777
        0x00008e00:    3f11cc19    ...?    DCD    1058130969
        0x00008e04:    bf526d18    .mR.    DCD    3209850136
        0x00008e08:    3f121eb0    ...?    DCD    1058152112
        0x00008e0c:    bf5233c6    .3R.    DCD    3209835462
        0x00008e10:    3f127130    0q.?    DCD    1058173232
        0x00008e14:    bf51fa54    T.Q.    DCD    3209820756
        0x00008e18:    3f12c39a    ...?    DCD    1058194330
        0x00008e1c:    bf51c0c2    ..Q.    DCD    3209806018
        0x00008e20:    3f1315ee    ...?    DCD    1058215406
        0x00008e24:    bf518710    ..Q.    DCD    3209791248
        0x00008e28:    3f13682a    *h.?    DCD    1058236458
        0x00008e2c:    bf514d3d    =MQ.    DCD    3209776445
        0x00008e30:    3f13ba50    P..?    DCD    1058257488
        0x00008e34:    bf51134a    J.Q.    DCD    3209761610
        0x00008e38:    3f140c5f    _..?    DCD    1058278495
        0x00008e3c:    bf50d937    7.P.    DCD    3209746743
        0x00008e40:    3f145e58    X^.?    DCD    1058299480
        0x00008e44:    bf509f03    ..P.    DCD    3209731843
        0x00008e48:    3f14b039    9..?    DCD    1058320441
        0x00008e4c:    bf5064af    .dP.    DCD    3209716911
        0x00008e50:    3f150204    ...?    DCD    1058341380
        0x00008e54:    bf502a3b    ;*P.    DCD    3209701947
        0x00008e58:    3f1553b7    .S.?    DCD    1058362295
        0x00008e5c:    bf4fefa8    ..O.    DCD    3209686952
        0x00008e60:    3f15a554    T..?    DCD    1058383188
        0x00008e64:    bf4fb4f4    ..O.    DCD    3209671924
        0x00008e68:    3f15f6d9    ...?    DCD    1058404057
        0x00008e6c:    bf4f7a1f    .zO.    DCD    3209656863
        0x00008e70:    3f164847    GH.?    DCD    1058424903
        0x00008e74:    bf4f3f2b    +?O.    DCD    3209641771
        0x00008e78:    3f16999f    ...?    DCD    1058445727
        0x00008e7c:    bf4f0417    ..O.    DCD    3209626647
        0x00008e80:    3f16eadf    ...?    DCD    1058466527
        0x00008e84:    bf4ec8e4    ..N.    DCD    3209611492
        0x00008e88:    3f173c07    .<.?    DCD    1058487303
        0x00008e8c:    bf4e8d90    ..N.    DCD    3209596304
        0x00008e90:    3f178d18    ...?    DCD    1058508056
        0x00008e94:    bf4e521c    .RN.    DCD    3209581084
        0x00008e98:    3f17de12    ...?    DCD    1058528786
        0x00008e9c:    bf4e1689    ..N.    DCD    3209565833
        0x00008ea0:    3f182ef5    ...?    DCD    1058549493
        0x00008ea4:    bf4ddad5    ..M.    DCD    3209550549
        0x00008ea8:    3f187fc0    ...?    DCD    1058570176
        0x00008eac:    bf4d9f02    ..M.    DCD    3209535234
        0x00008eb0:    3f18d073    s..?    DCD    1058590835
        0x00008eb4:    bf4d6310    .cM.    DCD    3209519888
        0x00008eb8:    3f19210f    .!.?    DCD    1058611471
        0x00008ebc:    bf4d26fd    .&M.    DCD    3209504509
        0x00008ec0:    3f197194    .q.?    DCD    1058632084
        0x00008ec4:    bf4ceacb    ..L.    DCD    3209489099
        0x00008ec8:    3f19c200    ...?    DCD    1058652672
        0x00008ecc:    bf4cae79    y.L.    DCD    3209473657
        0x00008ed0:    3f1a1255    U..?    DCD    1058673237
        0x00008ed4:    bf4c7208    .rL.    DCD    3209458184
        0x00008ed8:    3f1a6293    .b.?    DCD    1058693779
        0x00008edc:    bf4c3578    x5L.    DCD    3209442680
        0x00008ee0:    3f1ab2b8    ...?    DCD    1058714296
        0x00008ee4:    bf4bf8c7    ..K.    DCD    3209427143
        0x00008ee8:    3f1b02c6    ...?    DCD    1058734790
        0x00008eec:    bf4bbbf8    ..K.    DCD    3209411576
        0x00008ef0:    3f1b52bb    .R.?    DCD    1058755259
        0x00008ef4:    bf4b7f09    ..K.    DCD    3209395977
        0x00008ef8:    3f1ba299    ...?    DCD    1058775705
        0x00008efc:    bf4b41fa    .AK.    DCD    3209380346
        0x00008f00:    3f1bf25f    _..?    DCD    1058796127
        0x00008f04:    bf4b04cc    ..K.    DCD    3209364684
        0x00008f08:    3f1c420c    .B.?    DCD    1058816524
        0x00008f0c:    bf4ac77f    ..J.    DCD    3209348991
        0x00008f10:    3f1c91a2    ...?    DCD    1058836898
        0x00008f14:    bf4a8a13    ..J.    DCD    3209333267
        0x00008f18:    3f1ce11f    ...?    DCD    1058857247
        0x00008f1c:    bf4a4c87    .LJ.    DCD    3209317511
        0x00008f20:    3f1d3084    .0.?    DCD    1058877572
        0x00008f24:    bf4a0edc    ..J.    DCD    3209301724
        0x00008f28:    3f1d7fd1    ...?    DCD    1058897873
        0x00008f2c:    bf49d112    ..I.    DCD    3209285906
        0x00008f30:    3f1dcf06    ...?    DCD    1058918150
        0x00008f34:    bf499329    ).I.    DCD    3209270057
        0x00008f38:    3f1e1e22    "..?    DCD    1058938402
        0x00008f3c:    bf495521    !UI.    DCD    3209254177
        0x00008f40:    3f1e6d26    &m.?    DCD    1058958630
        0x00008f44:    bf4916fa    ..I.    DCD    3209238266
        0x00008f48:    3f1ebc12    ...?    DCD    1058978834
        0x00008f4c:    bf48d8b3    ..H.    DCD    3209222323
        0x00008f50:    3f1f0ae5    ...?    DCD    1058999013
        0x00008f54:    bf489a4e    N.H.    DCD    3209206350
        0x00008f58:    3f1f599f    .Y.?    DCD    1059019167
        0x00008f5c:    bf485bca    .[H.    DCD    3209190346
        0x00008f60:    3f1fa841    A..?    DCD    1059039297
        0x00008f64:    bf481d27    '.H.    DCD    3209174311
        0x00008f68:    3f1ff6cb    ...?    DCD    1059059403
        0x00008f6c:    bf47de65    e.G.    DCD    3209158245
        0x00008f70:    3f20453b    ;E ?    DCD    1059079483
        0x00008f74:    bf479f84    ..G.    DCD    3209142148
        0x00008f78:    3f209393    .. ?    DCD    1059099539
        0x00008f7c:    bf476085    .`G.    DCD    3209126021
        0x00008f80:    3f20e1d2    .. ?    DCD    1059119570
        0x00008f84:    bf472167    g!G.    DCD    3209109863
        0x00008f88:    3f212ff9    ./!?    DCD    1059139577
        0x00008f8c:    bf46e22a    *.F.    DCD    3209093674
        0x00008f90:    3f217e06    .~!?    DCD    1059159558
        0x00008f94:    bf46a2ce    ..F.    DCD    3209077454
        0x00008f98:    3f21cbfb    ..!?    DCD    1059179515
        0x00008f9c:    bf466354    TcF.    DCD    3209061204
        0x00008fa0:    3f2219d7    .."?    DCD    1059199447
        0x00008fa4:    bf4623bb    .#F.    DCD    3209044923
        0x00008fa8:    3f226799    .g"?    DCD    1059219353
        0x00008fac:    bf45e403    ..E.    DCD    3209028611
        0x00008fb0:    3f22b543    C."?    DCD    1059239235
        0x00008fb4:    bf45a42d    -.E.    DCD    3209012269
        0x00008fb8:    3f2302d3    ..#?    DCD    1059259091
        0x00008fbc:    bf456439    9dE.    DCD    3208995897
        0x00008fc0:    3f23504b    KP#?    DCD    1059278923
        0x00008fc4:    bf452426    &$E.    DCD    3208979494
        0x00008fc8:    3f239da9    ..#?    DCD    1059298729
        0x00008fcc:    bf44e3f5    ..D.    DCD    3208963061
        0x00008fd0:    3f23eaee    ..#?    DCD    1059318510
        0x00008fd4:    bf44a3a5    ..D.    DCD    3208946597
        0x00008fd8:    3f24381a    .8$?    DCD    1059338266
        0x00008fdc:    bf446337    7cD.    DCD    3208930103
        0x00008fe0:    3f24852c    ,.$?    DCD    1059357996
        0x00008fe4:    bf4422ab    ."D.    DCD    3208913579
        0x00008fe8:    3f24d225    %.$?    DCD    1059377701
        0x00008fec:    bf43e200    ..C.    DCD    3208897024
        0x00008ff0:    3f251f04    ..%?    DCD    1059397380
        0x00008ff4:    bf43a138    8.C.    DCD    3208880440
        0x00008ff8:    3f256bcb    .k%?    DCD    1059417035
        0x00008ffc:    bf436051    Q`C.    DCD    3208863825
        0x00009000:    3f25b877    w.%?    DCD    1059436663
        0x00009004:    bf431f4c    L.C.    DCD    3208847180
        0x00009008:    3f26050a    ..&?    DCD    1059456266
        0x0000900c:    bf42de29    ).B.    DCD    3208830505
        0x00009010:    3f265184    .Q&?    DCD    1059475844
        0x00009014:    bf429ce8    ..B.    DCD    3208813800
        0x00009018:    3f269de3    ..&?    DCD    1059495395
        0x0000901c:    bf425b89    .[B.    DCD    3208797065
        0x00009020:    3f26ea2a    *.&?    DCD    1059514922
        0x00009024:    bf421a0b    ..B.    DCD    3208780299
        0x00009028:    3f273656    V6'?    DCD    1059534422
        0x0000902c:    bf41d870    p.A.    DCD    3208763504
        0x00009030:    3f278268    h.'?    DCD    1059553896
        0x00009034:    bf4196b7    ..A.    DCD    3208746679
        0x00009038:    3f27ce61    a.'?    DCD    1059573345
        0x0000903c:    bf4154e1    .TA.    DCD    3208729825
        0x00009040:    3f281a40    @.(?    DCD    1059592768
        0x00009044:    bf4112ec    ..A.    DCD    3208712940
        0x00009048:    3f286605    .f(?    DCD    1059612165
        0x0000904c:    bf40d0da    ..@.    DCD    3208696026
        0x00009050:    3f28b1b0    ..(?    DCD    1059631536
        0x00009054:    bf408ea9    ..@.    DCD    3208679081
        0x00009058:    3f28fd41    A.(?    DCD    1059650881
        0x0000905c:    bf404c5c    \L@.    DCD    3208662108
        0x00009060:    3f2948b8    .H)?    DCD    1059670200
        0x00009064:    bf4009f0    ..@.    DCD    3208645104
        0x00009068:    3f299415    ..)?    DCD    1059689493
        0x0000906c:    bf3fc767    g.?.    DCD    3208628071
        0x00009070:    3f29df57    W.)?    DCD    1059708759
        0x00009074:    bf3f84c0    ..?.    DCD    3208611008
        0x00009078:    3f2a2a80    .**?    DCD    1059728000
        0x0000907c:    bf3f41fc    .A?.    DCD    3208593916
        0x00009080:    3f2a758e    .u*?    DCD    1059747214
        0x00009084:    bf3eff1b    ..>.    DCD    3208576795
        0x00009088:    3f2ac082    ..*?    DCD    1059766402
        0x0000908c:    bf3ebc1b    ..>.    DCD    3208559643
        0x00009090:    3f2b0b5b    [.+?    DCD    1059785563
        0x00009094:    bf3e78ff    .x>.    DCD    3208542463
        0x00009098:    3f2b561b    .V+?    DCD    1059804699
        0x0000909c:    bf3e35c5    .5>.    DCD    3208525253
        0x000090a0:    3f2ba0bf    ..+?    DCD    1059823807
        0x000090a4:    bf3df26e    n.=.    DCD    3208508014
        0x000090a8:    3f2beb4a    J.+?    DCD    1059842890
        0x000090ac:    bf3daef9    ..=.    DCD    3208490745
        0x000090b0:    3f2c35b9    .5,?    DCD    1059861945
        0x000090b4:    bf3d6b67    gk=.    DCD    3208473447
        0x000090b8:    3f2c800f    ..,?    DCD    1059880975
        0x000090bc:    bf3d27b8    .'=.    DCD    3208456120
        0x000090c0:    3f2cca49    I.,?    DCD    1059899977
        0x000090c4:    bf3ce3ec    ..<.    DCD    3208438764
        0x000090c8:    3f2d1469    i.-?    DCD    1059918953
        0x000090cc:    bf3ca003    ..<.    DCD    3208421379
        0x000090d0:    3f2d5e6f    o^-?    DCD    1059937903
        0x000090d4:    bf3c5bfc    .[<.    DCD    3208403964
        0x000090d8:    3f2da859    Y.-?    DCD    1059956825
        0x000090dc:    bf3c17d9    ..<.    DCD    3208386521
        0x000090e0:    3f2df229    ).-?    DCD    1059975721
        0x000090e4:    bf3bd398    ..;.    DCD    3208369048
        0x000090e8:    3f2e3bde    .;.?    DCD    1059994590
        0x000090ec:    bf3b8f3b    ;.;.    DCD    3208351547
        0x000090f0:    3f2e8578    x..?    DCD    1060013432
        0x000090f4:    bf3b4ac1    .J;.    DCD    3208334017
        0x000090f8:    3f2ecef7    ...?    DCD    1060032247
        0x000090fc:    bf3b0629    ).;.    DCD    3208316457
        0x00009100:    3f2f185b    [./?    DCD    1060051035
        0x00009104:    bf3ac175    u.:.    DCD    3208298869
        0x00009108:    3f2f61a5    .a/?    DCD    1060069797
        0x0000910c:    bf3a7ca4    .|:.    DCD    3208281252
        0x00009110:    3f2faad3    ../?    DCD    1060088531
        0x00009114:    bf3a37b7    .7:.    DCD    3208263607
        0x00009118:    3f2ff3e6    ../?    DCD    1060107238
        0x0000911c:    bf39f2ac    ..9.    DCD    3208245932
        0x00009120:    3f303cde    .<0?    DCD    1060125918
        0x00009124:    bf39ad85    ..9.    DCD    3208228229
        0x00009128:    3f3085bb    ..0?    DCD    1060144571
        0x0000912c:    bf396842    Bh9.    DCD    3208210498
        0x00009130:    3f30ce7c    |.0?    DCD    1060163196
        0x00009134:    bf3922e1    ."9.    DCD    3208192737
        0x00009138:    3f311722    ".1?    DCD    1060181794
        0x0000913c:    bf38dd65    e.8.    DCD    3208174949
        0x00009140:    3f315fad    ._1?    DCD    1060200365
        0x00009144:    bf3897cb    ..8.    DCD    3208157131
        0x00009148:    3f31a81d    ..1?    DCD    1060218909
        0x0000914c:    bf385216    .R8.    DCD    3208139286
        0x00009150:    3f31f071    q.1?    DCD    1060237425
        0x00009154:    bf380c43    C.8.    DCD    3208121411
        0x00009158:    3f3238aa    .82?    DCD    1060255914
        0x0000915c:    bf37c655    U.7.    DCD    3208103509
        0x00009160:    3f3280c7    ..2?    DCD    1060274375
        0x00009164:    bf37804a    J.7.    DCD    3208085578
        0x00009168:    3f32c8c9    ..2?    DCD    1060292809
        0x0000916c:    bf373a23    #:7.    DCD    3208067619
        0x00009170:    3f3310af    ..3?    DCD    1060311215
        0x00009174:    bf36f3df    ..6.    DCD    3208049631
        0x00009178:    3f33587a    zX3?    DCD    1060329594
        0x0000917c:    bf36ad7f    ..6.    DCD    3208031615
        0x00009180:    3f33a029    ).3?    DCD    1060347945
        0x00009184:    bf366704    .g6.    DCD    3208013572
        0x00009188:    3f33e7bc    ..3?    DCD    1060366268
        0x0000918c:    bf36206c    l 6.    DCD    3207995500
        0x00009190:    3f342f34    4/4?    DCD    1060384564
        0x00009194:    bf35d9b8    ..5.    DCD    3207977400
        0x00009198:    3f34768f    .v4?    DCD    1060402831
        0x0000919c:    bf3592e7    ..5.    DCD    3207959271
        0x000091a0:    3f34bdcf    ..4?    DCD    1060421071
        0x000091a4:    bf354bfb    .K5.    DCD    3207941115
        0x000091a8:    3f3504f3    ..5?    DCD    1060439283
        0x000091ac:    bf3504f3    ..5.    DCD    3207922931
        0x000091b0:    3f354bfb    .K5?    DCD    1060457467
        0x000091b4:    bf34bdcf    ..4.    DCD    3207904719
        0x000091b8:    3f3592e7    ..5?    DCD    1060475623
        0x000091bc:    bf34768f    .v4.    DCD    3207886479
        0x000091c0:    3f35d9b8    ..5?    DCD    1060493752
        0x000091c4:    bf342f34    4/4.    DCD    3207868212
        0x000091c8:    3f36206c    l 6?    DCD    1060511852
        0x000091cc:    bf33e7bc    ..3.    DCD    3207849916
        0x000091d0:    3f366704    .g6?    DCD    1060529924
        0x000091d4:    bf33a029    ).3.    DCD    3207831593
        0x000091d8:    3f36ad7f    ..6?    DCD    1060547967
        0x000091dc:    bf33587a    zX3.    DCD    3207813242
        0x000091e0:    3f36f3df    ..6?    DCD    1060565983
        0x000091e4:    bf3310af    ..3.    DCD    3207794863
        0x000091e8:    3f373a23    #:7?    DCD    1060583971
        0x000091ec:    bf32c8c9    ..2.    DCD    3207776457
        0x000091f0:    3f37804a    J.7?    DCD    1060601930
        0x000091f4:    bf3280c7    ..2.    DCD    3207758023
        0x000091f8:    3f37c655    U.7?    DCD    1060619861
        0x000091fc:    bf3238aa    .82.    DCD    3207739562
        0x00009200:    3f380c43    C.8?    DCD    1060637763
        0x00009204:    bf31f071    q.1.    DCD    3207721073
        0x00009208:    3f385216    .R8?    DCD    1060655638
        0x0000920c:    bf31a81d    ..1.    DCD    3207702557
        0x00009210:    3f3897cb    ..8?    DCD    1060673483
        0x00009214:    bf315fad    ._1.    DCD    3207684013
        0x00009218:    3f38dd65    e.8?    DCD    1060691301
        0x0000921c:    bf311722    ".1.    DCD    3207665442
        0x00009220:    3f3922e1    ."9?    DCD    1060709089
        0x00009224:    bf30ce7c    |.0.    DCD    3207646844
        0x00009228:    3f396842    Bh9?    DCD    1060726850
        0x0000922c:    bf3085bb    ..0.    DCD    3207628219
        0x00009230:    3f39ad85    ..9?    DCD    1060744581
        0x00009234:    bf303cde    .<0.    DCD    3207609566
        0x00009238:    3f39f2ac    ..9?    DCD    1060762284
        0x0000923c:    bf2ff3e6    ../.    DCD    3207590886
        0x00009240:    3f3a37b7    .7:?    DCD    1060779959
        0x00009244:    bf2faad3    ../.    DCD    3207572179
        0x00009248:    3f3a7ca4    .|:?    DCD    1060797604
        0x0000924c:    bf2f61a5    .a/.    DCD    3207553445
        0x00009250:    3f3ac175    u.:?    DCD    1060815221
        0x00009254:    bf2f185b    [./.    DCD    3207534683
        0x00009258:    3f3b0629    ).;?    DCD    1060832809
        0x0000925c:    bf2ecef7    ....    DCD    3207515895
        0x00009260:    3f3b4ac1    .J;?    DCD    1060850369
        0x00009264:    bf2e8578    x...    DCD    3207497080
        0x00009268:    3f3b8f3b    ;.;?    DCD    1060867899
        0x0000926c:    bf2e3bde    .;..    DCD    3207478238
        0x00009270:    3f3bd398    ..;?    DCD    1060885400
        0x00009274:    bf2df229    ).-.    DCD    3207459369
        0x00009278:    3f3c17d9    ..<?    DCD    1060902873
        0x0000927c:    bf2da859    Y.-.    DCD    3207440473
        0x00009280:    3f3c5bfc    .[<?    DCD    1060920316
        0x00009284:    bf2d5e6f    o^-.    DCD    3207421551
        0x00009288:    3f3ca003    ..<?    DCD    1060937731
        0x0000928c:    bf2d1469    i.-.    DCD    3207402601
        0x00009290:    3f3ce3ec    ..<?    DCD    1060955116
        0x00009294:    bf2cca49    I.,.    DCD    3207383625
        0x00009298:    3f3d27b8    .'=?    DCD    1060972472
        0x0000929c:    bf2c800f    ..,.    DCD    3207364623
        0x000092a0:    3f3d6b67    gk=?    DCD    1060989799
        0x000092a4:    bf2c35b9    .5,.    DCD    3207345593
        0x000092a8:    3f3daef9    ..=?    DCD    1061007097
        0x000092ac:    bf2beb4a    J.+.    DCD    3207326538
        0x000092b0:    3f3df26e    n.=?    DCD    1061024366
        0x000092b4:    bf2ba0bf    ..+.    DCD    3207307455
        0x000092b8:    3f3e35c5    .5>?    DCD    1061041605
        0x000092bc:    bf2b561b    .V+.    DCD    3207288347
        0x000092c0:    3f3e78ff    .x>?    DCD    1061058815
        0x000092c4:    bf2b0b5b    [.+.    DCD    3207269211
        0x000092c8:    3f3ebc1b    ..>?    DCD    1061075995
        0x000092cc:    bf2ac082    ..*.    DCD    3207250050
        0x000092d0:    3f3eff1b    ..>?    DCD    1061093147
        0x000092d4:    bf2a758e    .u*.    DCD    3207230862
        0x000092d8:    3f3f41fc    .A??    DCD    1061110268
        0x000092dc:    bf2a2a80    .**.    DCD    3207211648
        0x000092e0:    3f3f84c0    ..??    DCD    1061127360
        0x000092e4:    bf29df57    W.).    DCD    3207192407
        0x000092e8:    3f3fc767    g.??    DCD    1061144423
        0x000092ec:    bf299415    ..).    DCD    3207173141
        0x000092f0:    3f4009f0    ..@?    DCD    1061161456
        0x000092f4:    bf2948b8    .H).    DCD    3207153848
        0x000092f8:    3f404c5c    \L@?    DCD    1061178460
        0x000092fc:    bf28fd41    A.(.    DCD    3207134529
        0x00009300:    3f408ea9    ..@?    DCD    1061195433
        0x00009304:    bf28b1b0    ..(.    DCD    3207115184
        0x00009308:    3f40d0da    ..@?    DCD    1061212378
        0x0000930c:    bf286605    .f(.    DCD    3207095813
        0x00009310:    3f4112ec    ..A?    DCD    1061229292
        0x00009314:    bf281a40    @.(.    DCD    3207076416
        0x00009318:    3f4154e1    .TA?    DCD    1061246177
        0x0000931c:    bf27ce61    a.'.    DCD    3207056993
        0x00009320:    3f4196b7    ..A?    DCD    1061263031
        0x00009324:    bf278268    h.'.    DCD    3207037544
        0x00009328:    3f41d870    p.A?    DCD    1061279856
        0x0000932c:    bf273656    V6'.    DCD    3207018070
        0x00009330:    3f421a0b    ..B?    DCD    1061296651
        0x00009334:    bf26ea2a    *.&.    DCD    3206998570
        0x00009338:    3f425b89    .[B?    DCD    1061313417
        0x0000933c:    bf269de3    ..&.    DCD    3206979043
        0x00009340:    3f429ce8    ..B?    DCD    1061330152
        0x00009344:    bf265184    .Q&.    DCD    3206959492
        0x00009348:    3f42de29    ).B?    DCD    1061346857
        0x0000934c:    bf26050a    ..&.    DCD    3206939914
        0x00009350:    3f431f4c    L.C?    DCD    1061363532
        0x00009354:    bf25b877    w.%.    DCD    3206920311
        0x00009358:    3f436051    Q`C?    DCD    1061380177
        0x0000935c:    bf256bcb    .k%.    DCD    3206900683
        0x00009360:    3f43a138    8.C?    DCD    1061396792
        0x00009364:    bf251f04    ..%.    DCD    3206881028
        0x00009368:    3f43e200    ..C?    DCD    1061413376
        0x0000936c:    bf24d225    %.$.    DCD    3206861349
        0x00009370:    3f4422ab    ."D?    DCD    1061429931
        0x00009374:    bf24852c    ,.$.    DCD    3206841644
        0x00009378:    3f446337    7cD?    DCD    1061446455
        0x0000937c:    bf24381a    .8$.    DCD    3206821914
        0x00009380:    3f44a3a5    ..D?    DCD    1061462949
        0x00009384:    bf23eaee    ..#.    DCD    3206802158
        0x00009388:    3f44e3f5    ..D?    DCD    1061479413
        0x0000938c:    bf239da9    ..#.    DCD    3206782377
        0x00009390:    3f452426    &$E?    DCD    1061495846
        0x00009394:    bf23504b    KP#.    DCD    3206762571
        0x00009398:    3f456439    9dE?    DCD    1061512249
        0x0000939c:    bf2302d3    ..#.    DCD    3206742739
        0x000093a0:    3f45a42d    -.E?    DCD    1061528621
        0x000093a4:    bf22b543    C.".    DCD    3206722883
        0x000093a8:    3f45e403    ..E?    DCD    1061544963
        0x000093ac:    bf226799    .g".    DCD    3206703001
        0x000093b0:    3f4623bb    .#F?    DCD    1061561275
        0x000093b4:    bf2219d7    ..".    DCD    3206683095
        0x000093b8:    3f466354    TcF?    DCD    1061577556
        0x000093bc:    bf21cbfb    ..!.    DCD    3206663163
        0x000093c0:    3f46a2ce    ..F?    DCD    1061593806
        0x000093c4:    bf217e06    .~!.    DCD    3206643206
        0x000093c8:    3f46e22a    *.F?    DCD    1061610026
        0x000093cc:    bf212ff9    ./!.    DCD    3206623225
        0x000093d0:    3f472167    g!G?    DCD    1061626215
        0x000093d4:    bf20e1d2    .. .    DCD    3206603218
        0x000093d8:    3f476085    .`G?    DCD    1061642373
        0x000093dc:    bf209393    .. .    DCD    3206583187
        0x000093e0:    3f479f84    ..G?    DCD    1061658500
        0x000093e4:    bf20453b    ;E .    DCD    3206563131
        0x000093e8:    3f47de65    e.G?    DCD    1061674597
        0x000093ec:    bf1ff6cb    ....    DCD    3206543051
        0x000093f0:    3f481d27    '.H?    DCD    1061690663
        0x000093f4:    bf1fa841    A...    DCD    3206522945
        0x000093f8:    3f485bca    .[H?    DCD    1061706698
        0x000093fc:    bf1f599f    .Y..    DCD    3206502815
        0x00009400:    3f489a4e    N.H?    DCD    1061722702
        0x00009404:    bf1f0ae5    ....    DCD    3206482661
        0x00009408:    3f48d8b3    ..H?    DCD    1061738675
        0x0000940c:    bf1ebc12    ....    DCD    3206462482
        0x00009410:    3f4916fa    ..I?    DCD    1061754618
        0x00009414:    bf1e6d26    &m..    DCD    3206442278
        0x00009418:    3f495521    !UI?    DCD    1061770529
        0x0000941c:    bf1e1e22    "...    DCD    3206422050
        0x00009420:    3f499329    ).I?    DCD    1061786409
        0x00009424:    bf1dcf06    ....    DCD    3206401798
        0x00009428:    3f49d112    ..I?    DCD    1061802258
        0x0000942c:    bf1d7fd1    ....    DCD    3206381521
        0x00009430:    3f4a0edc    ..J?    DCD    1061818076
        0x00009434:    bf1d3084    .0..    DCD    3206361220
        0x00009438:    3f4a4c87    .LJ?    DCD    1061833863
        0x0000943c:    bf1ce11f    ....    DCD    3206340895
        0x00009440:    3f4a8a13    ..J?    DCD    1061849619
        0x00009444:    bf1c91a2    ....    DCD    3206320546
        0x00009448:    3f4ac77f    ..J?    DCD    1061865343
        0x0000944c:    bf1c420c    .B..    DCD    3206300172
        0x00009450:    3f4b04cc    ..K?    DCD    1061881036
        0x00009454:    bf1bf25f    _...    DCD    3206279775
        0x00009458:    3f4b41fa    .AK?    DCD    1061896698
        0x0000945c:    bf1ba299    ....    DCD    3206259353
        0x00009460:    3f4b7f09    ..K?    DCD    1061912329
        0x00009464:    bf1b52bb    .R..    DCD    3206238907
        0x00009468:    3f4bbbf8    ..K?    DCD    1061927928
        0x0000946c:    bf1b02c6    ....    DCD    3206218438
        0x00009470:    3f4bf8c7    ..K?    DCD    1061943495
        0x00009474:    bf1ab2b8    ....    DCD    3206197944
        0x00009478:    3f4c3578    x5L?    DCD    1061959032
        0x0000947c:    bf1a6293    .b..    DCD    3206177427
        0x00009480:    3f4c7208    .rL?    DCD    1061974536
        0x00009484:    bf1a1255    U...    DCD    3206156885
        0x00009488:    3f4cae79    y.L?    DCD    1061990009
        0x0000948c:    bf19c200    ....    DCD    3206136320
        0x00009490:    3f4ceacb    ..L?    DCD    1062005451
        0x00009494:    bf197194    .q..    DCD    3206115732
        0x00009498:    3f4d26fd    .&M?    DCD    1062020861
        0x0000949c:    bf19210f    .!..    DCD    3206095119
        0x000094a0:    3f4d6310    .cM?    DCD    1062036240
        0x000094a4:    bf18d073    s...    DCD    3206074483
        0x000094a8:    3f4d9f02    ..M?    DCD    1062051586
        0x000094ac:    bf187fc0    ....    DCD    3206053824
        0x000094b0:    3f4ddad5    ..M?    DCD    1062066901
        0x000094b4:    bf182ef5    ....    DCD    3206033141
        0x000094b8:    3f4e1689    ..N?    DCD    1062082185
        0x000094bc:    bf17de12    ....    DCD    3206012434
        0x000094c0:    3f4e521c    .RN?    DCD    1062097436
        0x000094c4:    bf178d18    ....    DCD    3205991704
        0x000094c8:    3f4e8d90    ..N?    DCD    1062112656
        0x000094cc:    bf173c07    .<..    DCD    3205970951
        0x000094d0:    3f4ec8e4    ..N?    DCD    1062127844
        0x000094d4:    bf16eadf    ....    DCD    3205950175
        0x000094d8:    3f4f0417    ..O?    DCD    1062142999
        0x000094dc:    bf16999f    ....    DCD    3205929375
        0x000094e0:    3f4f3f2b    +?O?    DCD    1062158123
        0x000094e4:    bf164847    GH..    DCD    3205908551
        0x000094e8:    3f4f7a1f    .zO?    DCD    1062173215
        0x000094ec:    bf15f6d9    ....    DCD    3205887705
        0x000094f0:    3f4fb4f4    ..O?    DCD    1062188276
        0x000094f4:    bf15a554    T...    DCD    3205866836
        0x000094f8:    3f4fefa8    ..O?    DCD    1062203304
        0x000094fc:    bf1553b7    .S..    DCD    3205845943
        0x00009500:    3f502a3b    ;*P?    DCD    1062218299
        0x00009504:    bf150204    ....    DCD    3205825028
        0x00009508:    3f5064af    .dP?    DCD    1062233263
        0x0000950c:    bf14b039    9...    DCD    3205804089
        0x00009510:    3f509f03    ..P?    DCD    1062248195
        0x00009514:    bf145e58    X^..    DCD    3205783128
        0x00009518:    3f50d937    7.P?    DCD    1062263095
        0x0000951c:    bf140c5f    _...    DCD    3205762143
        0x00009520:    3f51134a    J.Q?    DCD    1062277962
        0x00009524:    bf13ba50    P...    DCD    3205741136
        0x00009528:    3f514d3d    =MQ?    DCD    1062292797
        0x0000952c:    bf13682a    *h..    DCD    3205720106
        0x00009530:    3f518710    ..Q?    DCD    1062307600
        0x00009534:    bf1315ee    ....    DCD    3205699054
        0x00009538:    3f51c0c2    ..Q?    DCD    1062322370
        0x0000953c:    bf12c39a    ....    DCD    3205677978
        0x00009540:    3f51fa54    T.Q?    DCD    1062337108
        0x00009544:    bf127130    0q..    DCD    3205656880
        0x00009548:    3f5233c6    .3R?    DCD    1062351814
        0x0000954c:    bf121eb0    ....    DCD    3205635760
        0x00009550:    3f526d18    .mR?    DCD    1062366488
        0x00009554:    bf11cc19    ....    DCD    3205614617
        0x00009558:    3f52a649    I.R?    DCD    1062381129
        0x0000955c:    bf11796b    ky..    DCD    3205593451
        0x00009560:    3f52df59    Y.R?    DCD    1062395737
        0x00009564:    bf1126a7    .&..    DCD    3205572263
        0x00009568:    3f531849    I.S?    DCD    1062410313
        0x0000956c:    bf10d3cd    ....    DCD    3205551053
        0x00009570:    3f535118    .QS?    DCD    1062424856
        0x00009574:    bf1080dc    ....    DCD    3205529820
        0x00009578:    3f5389c7    ..S?    DCD    1062439367
        0x0000957c:    bf102dd5    .-..    DCD    3205508565
        0x00009580:    3f53c255    U.S?    DCD    1062453845
        0x00009584:    bf0fdab8    ....    DCD    3205487288
        0x00009588:    3f53fac3    ..S?    DCD    1062468291
        0x0000958c:    bf0f8784    ....    DCD    3205465988
        0x00009590:    3f54330f    .3T?    DCD    1062482703
        0x00009594:    bf0f343b    ;4..    DCD    3205444667
        0x00009598:    3f546b3b    ;kT?    DCD    1062497083
        0x0000959c:    bf0ee0db    ....    DCD    3205423323
        0x000095a0:    3f54a347    G.T?    DCD    1062511431
        0x000095a4:    bf0e8d65    e...    DCD    3205401957
        0x000095a8:    3f54db31    1.T?    DCD    1062525745
        0x000095ac:    bf0e39da    .9..    DCD    3205380570
        0x000095b0:    3f5512fb    ..U?    DCD    1062540027
        0x000095b4:    bf0de638    8...    DCD    3205359160
        0x000095b8:    3f554aa4    .JU?    DCD    1062554276
        0x000095bc:    bf0d9281    ....    DCD    3205337729
        0x000095c0:    3f55822c    ,.U?    DCD    1062568492
        0x000095c4:    bf0d3eb3    .>..    DCD    3205316275
        0x000095c8:    3f55b993    ..U?    DCD    1062582675
        0x000095cc:    bf0cead0    ....    DCD    3205294800
        0x000095d0:    3f55f0d9    ..U?    DCD    1062596825
        0x000095d4:    bf0c96d7    ....    DCD    3205273303
        0x000095d8:    3f5627fe    .'V?    DCD    1062610942
        0x000095dc:    bf0c42c9    .B..    DCD    3205251785
        0x000095e0:    3f565f02    ._V?    DCD    1062625026
        0x000095e4:    bf0beea5    ....    DCD    3205230245
        0x000095e8:    3f5695e5    ..V?    DCD    1062639077
        0x000095ec:    bf0b9a6b    k...    DCD    3205208683
        0x000095f0:    3f56cca7    ..V?    DCD    1062653095
        0x000095f4:    bf0b461c    .F..    DCD    3205187100
        0x000095f8:    3f570348    H.W?    DCD    1062667080
        0x000095fc:    bf0af1b7    ....    DCD    3205165495
        0x00009600:    3f5739c7    .9W?    DCD    1062681031
        0x00009604:    bf0a9d3d    =...    DCD    3205143869
        0x00009608:    3f577026    &pW?    DCD    1062694950
        0x0000960c:    bf0a48ad    .H..    DCD    3205122221
        0x00009610:    3f57a663    c.W?    DCD    1062708835
        0x00009614:    bf09f409    ....    DCD    3205100553
        0x00009618:    3f57dc7f    ..W?    DCD    1062722687
        0x0000961c:    bf099f4e    N...    DCD    3205078862
        0x00009620:    3f581279    y.X?    DCD    1062736505
        0x00009624:    bf094a7f    .J..    DCD    3205057151
        0x00009628:    3f584853    SHX?    DCD    1062750291
        0x0000962c:    bf08f59b    ....    DCD    3205035419
        0x00009630:    3f587e0b    .~X?    DCD    1062764043
        0x00009634:    bf08a0a1    ....    DCD    3205013665
        0x00009638:    3f58b3a1    ..X?    DCD    1062777761
        0x0000963c:    bf084b92    .K..    DCD    3204991890
        0x00009640:    3f58e917    ..X?    DCD    1062791447
        0x00009644:    bf07f66f    o...    DCD    3204970095
        0x00009648:    3f591e6a    j.Y?    DCD    1062805098
        0x0000964c:    bf07a136    6...    DCD    3204948278
        0x00009650:    3f59539c    .SY?    DCD    1062818716
        0x00009654:    bf074be8    .K..    DCD    3204926440
        0x00009658:    3f5988ad    ..Y?    DCD    1062832301
        0x0000965c:    bf06f686    ....    DCD    3204904582
        0x00009660:    3f59bd9c    ..Y?    DCD    1062845852
        0x00009664:    bf06a10e    ....    DCD    3204882702
        0x00009668:    3f59f26a    j.Y?    DCD    1062859370
        0x0000966c:    bf064b82    .K..    DCD    3204860802
        0x00009670:    3f5a2716    .'Z?    DCD    1062872854
        0x00009674:    bf05f5e2    ....    DCD    3204838882
        0x00009678:    3f5a5ba0    .[Z?    DCD    1062886304
        0x0000967c:    bf05a02c    ,...    DCD    3204816940
        0x00009680:    3f5a9009    ..Z?    DCD    1062899721
        0x00009684:    bf054a62    bJ..    DCD    3204794978
        0x00009688:    3f5ac450    P.Z?    DCD    1062913104
        0x0000968c:    bf04f484    ....    DCD    3204772996
        0x00009690:    3f5af875    u.Z?    DCD    1062926453
        0x00009694:    bf049e91    ....    DCD    3204750993
        0x00009698:    3f5b2c79    y,[?    DCD    1062939769
        0x0000969c:    bf044889    .H..    DCD    3204728969
        0x000096a0:    3f5b605a    Z`[?    DCD    1062953050
        0x000096a4:    bf03f26d    m...    DCD    3204706925
        0x000096a8:    3f5b941a    ..[?    DCD    1062966298
        0x000096ac:    bf039c3d    =...    DCD    3204684861
        0x000096b0:    3f5bc7b8    ..[?    DCD    1062979512
        0x000096b4:    bf0345f8    .E..    DCD    3204662776
        0x000096b8:    3f5bfb34    4.[?    DCD    1062992692
        0x000096bc:    bf02ef9f    ....    DCD    3204640671
        0x000096c0:    3f5c2e8e    ..\?    DCD    1063005838
        0x000096c4:    bf029932    2...    DCD    3204618546
        0x000096c8:    3f5c61c7    .a\?    DCD    1063018951
        0x000096cc:    bf0242b1    .B..    DCD    3204596401
        0x000096d0:    3f5c94dd    ..\?    DCD    1063032029
        0x000096d4:    bf01ec1c    ....    DCD    3204574236
        0x000096d8:    3f5cc7d1    ..\?    DCD    1063045073
        0x000096dc:    bf019573    s...    DCD    3204552051
        0x000096e0:    3f5cfaa3    ..\?    DCD    1063058083
        0x000096e4:    bf013eb5    .>..    DCD    3204529845
        0x000096e8:    3f5d2d53    S-]?    DCD    1063071059
        0x000096ec:    bf00e7e4    ....    DCD    3204507620
        0x000096f0:    3f5d5fe1    ._]?    DCD    1063084001
        0x000096f4:    bf0090ff    ....    DCD    3204485375
        0x000096f8:    3f5d924d    M.]?    DCD    1063096909
        0x000096fc:    bf003a06    .:..    DCD    3204463110
        0x00009700:    3f5dc497    ..]?    DCD    1063109783
        0x00009704:    beffc5f3    ....    DCD    3204433395
        0x00009708:    3f5df6be    ..]?    DCD    1063122622
        0x0000970c:    beff17b2    ....    DCD    3204388786
        0x00009710:    3f5e28c3    .(^?    DCD    1063135427
        0x00009714:    befe694a    Ji..    DCD    3204344138
        0x00009718:    3f5e5aa6    .Z^?    DCD    1063148198
        0x0000971c:    befdbabb    ....    DCD    3204299451
        0x00009720:    3f5e8c67    g.^?    DCD    1063160935
        0x00009724:    befd0c04    ....    DCD    3204254724
        0x00009728:    3f5ebe05    ..^?    DCD    1063173637
        0x0000972c:    befc5d27    ']..    DCD    3204209959
        0x00009730:    3f5eef81    ..^?    DCD    1063186305
        0x00009734:    befbae22    "...    DCD    3204165154
        0x00009738:    3f5f20db    . _?    DCD    1063198939
        0x0000973c:    befafef7    ....    DCD    3204120311
        0x00009740:    3f5f5212    .R_?    DCD    1063211538
        0x00009744:    befa4fa5    .O..    DCD    3204075429
        0x00009748:    3f5f8327    '._?    DCD    1063224103
        0x0000974c:    bef9a02d    -...    DCD    3204030509
        0x00009750:    3f5fb419    .._?    DCD    1063236633
        0x00009754:    bef8f08e    ....    DCD    3203985550
        0x00009758:    3f5fe4e9    .._?    DCD    1063249129
        0x0000975c:    bef840c8    .@..    DCD    3203940552
        0x00009760:    3f601596    ..`?    DCD    1063261590
        0x00009764:    bef790dc    ....    DCD    3203895516
        0x00009768:    3f604621    !F`?    DCD    1063274017
        0x0000976c:    bef6e0cb    ....    DCD    3203850443
        0x00009770:    3f607689    .v`?    DCD    1063286409
        0x00009774:    bef63093    .0..    DCD    3203805331
        0x00009778:    3f60a6cf    ..`?    DCD    1063298767
        0x0000977c:    bef58035    5...    DCD    3203760181
        0x00009780:    3f60d6f2    ..`?    DCD    1063311090
        0x00009784:    bef4cfb1    ....    DCD    3203714993
        0x00009788:    3f6106f2    ..a?    DCD    1063323378
        0x0000978c:    bef41f07    ....    DCD    3203669767
        0x00009790:    3f6136d0    .6a?    DCD    1063335632
        0x00009794:    bef36e38    8n..    DCD    3203624504
        0x00009798:    3f61668a    .fa?    DCD    1063347850
        0x0000979c:    bef2bd43    C...    DCD    3203579203
        0x000097a0:    3f619622    ".a?    DCD    1063360034
        0x000097a4:    bef20c29    )...    DCD    3203533865
        0x000097a8:    3f61c598    ..a?    DCD    1063372184
        0x000097ac:    bef15aea    .Z..    DCD    3203488490
        0x000097b0:    3f61f4ea    ..a?    DCD    1063384298
        0x000097b4:    bef0a985    ....    DCD    3203443077
        0x000097b8:    3f62241a    .$b?    DCD    1063396378
        0x000097bc:    beeff7fb    ....    DCD    3203397627
        0x000097c0:    3f625326    &Sb?    DCD    1063408422
        0x000097c4:    beef464c    LF..    DCD    3203352140
        0x000097c8:    3f628210    ..b?    DCD    1063420432
        0x000097cc:    beee9479    y...    DCD    3203306617
        0x000097d0:    3f62b0d7    ..b?    DCD    1063432407
        0x000097d4:    beede280    ....    DCD    3203261056
        0x000097d8:    3f62df7b    {.b?    DCD    1063444347
        0x000097dc:    beed3063    c0..    DCD    3203215459
        0x000097e0:    3f630dfc    ..c?    DCD    1063456252
        0x000097e4:    beec7e21    !~..    DCD    3203169825
        0x000097e8:    3f633c5a    Z<c?    DCD    1063468122
        0x000097ec:    beebcbbb    ....    DCD    3203124155
        0x000097f0:    3f636a95    .jc?    DCD    1063479957
        0x000097f4:    beeb1930    0...    DCD    3203078448
        0x000097f8:    3f6398ac    ..c?    DCD    1063491756
        0x000097fc:    beea6681    .f..    DCD    3203032705
        0x00009800:    3f63c6a1    ..c?    DCD    1063503521
        0x00009804:    bee9b3ae    ....    DCD    3202986926
        0x00009808:    3f63f473    s.c?    DCD    1063515251
        0x0000980c:    bee900b7    ....    DCD    3202941111
        0x00009810:    3f642221    !"d?    DCD    1063526945
        0x00009814:    bee84d9c    .M..    DCD    3202895260
        0x00009818:    3f644fac    .Od?    DCD    1063538604
        0x0000981c:    bee79a5d    ]...    DCD    3202849373
        0x00009820:    3f647d14    .}d?    DCD    1063550228
        0x00009824:    bee6e6fb    ....    DCD    3202803451
        0x00009828:    3f64aa59    Y.d?    DCD    1063561817
        0x0000982c:    bee63375    u3..    DCD    3202757493
        0x00009830:    3f64d77b    {.d?    DCD    1063573371
        0x00009834:    bee57fcb    ....    DCD    3202711499
        0x00009838:    3f650479    y.e?    DCD    1063584889
        0x0000983c:    bee4cbfe    ....    DCD    3202665470
        0x00009840:    3f653154    T1e?    DCD    1063596372
        0x00009844:    bee4180e    ....    DCD    3202619406
        0x00009848:    3f655e0b    .^e?    DCD    1063607819
        0x0000984c:    bee363fa    .c..    DCD    3202573306
        0x00009850:    3f658aa0    ..e?    DCD    1063619232
        0x00009854:    bee2afc4    ....    DCD    3202527172
        0x00009858:    3f65b710    ..e?    DCD    1063630608
        0x0000985c:    bee1fb6a    j...    DCD    3202481002
        0x00009860:    3f65e35e    ^.e?    DCD    1063641950
        0x00009864:    bee146ee    .F..    DCD    3202434798
        0x00009868:    3f660f88    ..f?    DCD    1063653256
        0x0000986c:    bee0924f    O...    DCD    3202388559
        0x00009870:    3f663b8e    .;f?    DCD    1063664526
        0x00009874:    bedfdd8d    ....    DCD    3202342285
        0x00009878:    3f666771    qgf?    DCD    1063675761
        0x0000987c:    bedf28a9    .(..    DCD    3202295977
        0x00009880:    3f669330    0.f?    DCD    1063686960
        0x00009884:    bede73a2    .s..    DCD    3202249634
        0x00009888:    3f66becc    ..f?    DCD    1063698124
        0x0000988c:    beddbe79    y...    DCD    3202203257
        0x00009890:    3f66ea45    E.f?    DCD    1063709253
        0x00009894:    bedd092e    ....    DCD    3202156846
        0x00009898:    3f671599    ..g?    DCD    1063720345
        0x0000989c:    bedc53c1    .S..    DCD    3202110401
        0x000098a0:    3f6740ca    .@g?    DCD    1063731402
        0x000098a4:    bedb9e31    1...    DCD    3202063921
        0x000098a8:    3f676bd8    .kg?    DCD    1063742424
        0x000098ac:    bedae880    ....    DCD    3202017408
        0x000098b0:    3f6796c1    ..g?    DCD    1063753409
        0x000098b4:    beda32ad    .2..    DCD    3201970861
        0x000098b8:    3f67c187    ..g?    DCD    1063764359
        0x000098bc:    bed97cb9    .|..    DCD    3201924281
        0x000098c0:    3f67ec2a    *.g?    DCD    1063775274
        0x000098c4:    bed8c6a3    ....    DCD    3201877667
        0x000098c8:    3f6816a8    ..h?    DCD    1063786152
        0x000098cc:    bed8106b    k...    DCD    3201831019
        0x000098d0:    3f684103    .Ah?    DCD    1063796995
        0x000098d4:    bed75a13    .Z..    DCD    3201784339
        0x000098d8:    3f686b39    9kh?    DCD    1063807801
        0x000098dc:    bed6a399    ....    DCD    3201737625
        0x000098e0:    3f68954c    L.h?    DCD    1063818572
        0x000098e4:    bed5ecfd    ....    DCD    3201690877
        0x000098e8:    3f68bf3c    <.h?    DCD    1063829308
        0x000098ec:    bed53641    A6..    DCD    3201644097
        0x000098f0:    3f68e907    ..h?    DCD    1063840007
        0x000098f4:    bed47f64    d...    DCD    3201597284
        0x000098f8:    3f6912ae    ..i?    DCD    1063850670
        0x000098fc:    bed3c867    g...    DCD    3201550439
        0x00009900:    3f693c32    2<i?    DCD    1063861298
        0x00009904:    bed31148    H...    DCD    3201503560
        0x00009908:    3f696591    .ei?    DCD    1063871889
        0x0000990c:    bed25a09    .Z..    DCD    3201456649
        0x00009910:    3f698ecc    ..i?    DCD    1063882444
        0x00009914:    bed1a2aa    ....    DCD    3201409706
        0x00009918:    3f69b7e4    ..i?    DCD    1063892964
        0x0000991c:    bed0eb2a    *...    DCD    3201362730
        0x00009920:    3f69e0d7    ..i?    DCD    1063903447
        0x00009924:    bed0338a    .3..    DCD    3201315722
        0x00009928:    3f6a09a7    ..j?    DCD    1063913895
        0x0000992c:    becf7bca    .{..    DCD    3201268682
        0x00009930:    3f6a3252    R2j?    DCD    1063924306
        0x00009934:    becec3ea    ....    DCD    3201221610
        0x00009938:    3f6a5ad9    .Zj?    DCD    1063934681
        0x0000993c:    bece0bea    ....    DCD    3201174506
        0x00009940:    3f6a833c    <.j?    DCD    1063945020
        0x00009944:    becd53ca    .S..    DCD    3201127370
        0x00009948:    3f6aab7b    {.j?    DCD    1063955323
        0x0000994c:    becc9b8b    ....    DCD    3201080203
        0x00009950:    3f6ad395    ..j?    DCD    1063965589
        0x00009954:    becbe32c    ,...    DCD    3201033004
        0x00009958:    3f6afb8c    ..j?    DCD    1063975820
        0x0000995c:    becb2aae    .*..    DCD    3200985774
        0x00009960:    3f6b235e    ^#k?    DCD    1063986014
        0x00009964:    beca7210    .r..    DCD    3200938512
        0x00009968:    3f6b4b0c    .Kk?    DCD    1063996172
        0x0000996c:    bec9b953    S...    DCD    3200891219
        0x00009970:    3f6b7295    .rk?    DCD    1064006293
        0x00009974:    bec90077    w...    DCD    3200843895
        0x00009978:    3f6b99fb    ..k?    DCD    1064016379
        0x0000997c:    bec8477c    |G..    DCD    3200796540
        0x00009980:    3f6bc13b    ;.k?    DCD    1064026427
        0x00009984:    bec78e62    b...    DCD    3200749154
        0x00009988:    3f6be858    X.k?    DCD    1064036440
        0x0000998c:    bec6d529    )...    DCD    3200701737
        0x00009990:    3f6c0f50    P.l?    DCD    1064046416
        0x00009994:    bec61bd2    ....    DCD    3200654290
        0x00009998:    3f6c3624    $6l?    DCD    1064056356
        0x0000999c:    bec5625c    \b..    DCD    3200606812
        0x000099a0:    3f6c5cd4    .\l?    DCD    1064066260
        0x000099a4:    bec4a8c8    ....    DCD    3200559304
        0x000099a8:    3f6c835e    ^.l?    DCD    1064076126
        0x000099ac:    bec3ef15    ....    DCD    3200511765
        0x000099b0:    3f6ca9c5    ..l?    DCD    1064085957
        0x000099b4:    bec33544    D5..    DCD    3200464196
        0x000099b8:    3f6cd007    ..l?    DCD    1064095751
        0x000099bc:    bec27b55    U{..    DCD    3200416597
        0x000099c0:    3f6cf624    $.l?    DCD    1064105508
        0x000099c4:    bec1c148    H...    DCD    3200368968
        0x000099c8:    3f6d1c1d    ..m?    DCD    1064115229
        0x000099cc:    bec1071e    ....    DCD    3200321310
        0x000099d0:    3f6d41f2    .Am?    DCD    1064124914
        0x000099d4:    bec04cd5    .L..    DCD    3200273621
        0x000099d8:    3f6d67a1    .gm?    DCD    1064134561
        0x000099dc:    bebf926f    o...    DCD    3200225903
        0x000099e0:    3f6d8d2d    -.m?    DCD    1064144173
        0x000099e4:    bebed7eb    ....    DCD    3200178155
        0x000099e8:    3f6db293    ..m?    DCD    1064153747
        0x000099ec:    bebe1d4a    J...    DCD    3200130378
        0x000099f0:    3f6dd7d5    ..m?    DCD    1064163285
        0x000099f4:    bebd628b    .b..    DCD    3200082571
        0x000099f8:    3f6dfcf2    ..m?    DCD    1064172786
        0x000099fc:    bebca7af    ....    DCD    3200034735
        0x00009a00:    3f6e21eb    .!n?    DCD    1064182251
        0x00009a04:    bebbecb6    ....    DCD    3199986870
        0x00009a08:    3f6e46be    .Fn?    DCD    1064191678
        0x00009a0c:    bebb31a0    .1..    DCD    3199938976
        0x00009a10:    3f6e6b6d    mkn?    DCD    1064201069
        0x00009a14:    beba766e    nv..    DCD    3199891054
        0x00009a18:    3f6e8ff8    ..n?    DCD    1064210424
        0x00009a1c:    beb9bb1e    ....    DCD    3199843102
        0x00009a20:    3f6eb45d    ].n?    DCD    1064219741
        0x00009a24:    beb8ffb2    ....    DCD    3199795122
        0x00009a28:    3f6ed89e    ..n?    DCD    1064229022
        0x00009a2c:    beb8442a    *D..    DCD    3199747114
        0x00009a30:    3f6efcba    ..n?    DCD    1064238266
        0x00009a34:    beb78884    ....    DCD    3199699076
        0x00009a38:    3f6f20b0    . o?    DCD    1064247472
        0x00009a3c:    beb6ccc3    ....    DCD    3199651011
        0x00009a40:    3f6f4483    .Do?    DCD    1064256643
        0x00009a44:    beb610e6    ....    DCD    3199602918
        0x00009a48:    3f6f6830    0ho?    DCD    1064265776
        0x00009a4c:    beb554ec    .T..    DCD    3199554796
        0x00009a50:    3f6f8bb8    ..o?    DCD    1064274872
        0x00009a54:    beb498d6    ....    DCD    3199506646
        0x00009a58:    3f6faf1b    ..o?    DCD    1064283931
        0x00009a5c:    beb3dca5    ....    DCD    3199458469
        0x00009a60:    3f6fd25a    Z.o?    DCD    1064292954
        0x00009a64:    beb32058    X ..    DCD    3199410264
        0x00009a68:    3f6ff573    s.o?    DCD    1064301939
        0x00009a6c:    beb263ef    .c..    DCD    3199362031
        0x00009a70:    3f701867    g.p?    DCD    1064310887
        0x00009a74:    beb1a76b    k...    DCD    3199313771
        0x00009a78:    3f703b37    7;p?    DCD    1064319799
        0x00009a7c:    beb0eacb    ....    DCD    3199265483
        0x00009a80:    3f705de1    .]p?    DCD    1064328673
        0x00009a84:    beb02e10    ....    DCD    3199217168
        0x00009a88:    3f708066    f.p?    DCD    1064337510
        0x00009a8c:    beaf713a    :q..    DCD    3199168826
        0x00009a90:    3f70a2c6    ..p?    DCD    1064346310
        0x00009a94:    beaeb449    I...    DCD    3199120457
        0x00009a98:    3f70c502    ..p?    DCD    1064355074
        0x00009a9c:    beadf73c    <...    DCD    3199072060
        0x00009aa0:    3f70e717    ..p?    DCD    1064363799
        0x00009aa4:    bead3a15    .:..    DCD    3199023637
        0x00009aa8:    3f710908    ..q?    DCD    1064372488
        0x00009aac:    beac7cd4    .|..    DCD    3198975188
        0x00009ab0:    3f712ad4    .*q?    DCD    1064381140
        0x00009ab4:    beabbf77    w...    DCD    3198926711
        0x00009ab8:    3f714c7a    zLq?    DCD    1064389754
        0x00009abc:    beab0201    ....    DCD    3198878209
        0x00009ac0:    3f716dfb    .mq?    DCD    1064398331
        0x00009ac4:    beaa446f    oD..    DCD    3198829679
        0x00009ac8:    3f718f57    W.q?    DCD    1064406871
        0x00009acc:    bea986c4    ....    DCD    3198781124
        0x00009ad0:    3f71b08e    ..q?    DCD    1064415374
        0x00009ad4:    bea8c8fe    ....    DCD    3198732542
        0x00009ad8:    3f71d19f    ..q?    DCD    1064423839
        0x00009adc:    bea80b1f    ....    DCD    3198683935
        0x00009ae0:    3f71f28c    ..q?    DCD    1064432268
        0x00009ae4:    bea74d25    %M..    DCD    3198635301
        0x00009ae8:    3f721352    R.r?    DCD    1064440658
        0x00009aec:    bea68f12    ....    DCD    3198586642
        0x00009af0:    3f7233f4    .3r?    DCD    1064449012
        0x00009af4:    bea5d0e5    ....    DCD    3198537957
        0x00009af8:    3f725470    pTr?    DCD    1064457328
        0x00009afc:    bea5129f    ....    DCD    3198489247
        0x00009b00:    3f7274c7    .tr?    DCD    1064465607
        0x00009b04:    bea4543f    ?T..    DCD    3198440511
        0x00009b08:    3f7294f8    ..r?    DCD    1064473848
        0x00009b0c:    bea395c5    ....    DCD    3198391749
        0x00009b10:    3f72b504    ..r?    DCD    1064482052
        0x00009b14:    bea2d733    3...    DCD    3198342963
        0x00009b18:    3f72d4eb    ..r?    DCD    1064490219
        0x00009b1c:    bea21887    ....    DCD    3198294151
        0x00009b20:    3f72f4ac    ..r?    DCD    1064498348
        0x00009b24:    bea159c2    .Y..    DCD    3198245314
        0x00009b28:    3f731447    G.s?    DCD    1064506439
        0x00009b2c:    bea09ae5    ....    DCD    3198196453
        0x00009b30:    3f7333be    .3s?    DCD    1064514494
        0x00009b34:    be9fdbee    ....    DCD    3198147566
        0x00009b38:    3f73530e    .Ss?    DCD    1064522510
        0x00009b3c:    be9f1cdf    ....    DCD    3198098655
        0x00009b40:    3f737239    9rs?    DCD    1064530489
        0x00009b44:    be9e5db8    .]..    DCD    3198049720
        0x00009b48:    3f73913f    ?.s?    DCD    1064538431
        0x00009b4c:    be9d9e78    x...    DCD    3198000760
        0x00009b50:    3f73b01f    ..s?    DCD    1064546335
        0x00009b54:    be9cdf20     ...    DCD    3197951776
        0x00009b58:    3f73ced9    ..s?    DCD    1064554201
        0x00009b5c:    be9c1faf    ....    DCD    3197902767
        0x00009b60:    3f73ed6e    n.s?    DCD    1064562030
        0x00009b64:    be9b6027    '`..    DCD    3197853735
        0x00009b68:    3f740bdd    ..t?    DCD    1064569821
        0x00009b6c:    be9aa086    ....    DCD    3197804678
        0x00009b70:    3f742a27    '*t?    DCD    1064577575
        0x00009b74:    be99e0ce    ....    DCD    3197755598
        0x00009b78:    3f74484b    KHt?    DCD    1064585291
        0x00009b7c:    be9920fe    . ..    DCD    3197706494
        0x00009b80:    3f746649    Ift?    DCD    1064592969
        0x00009b84:    be986116    .a..    DCD    3197657366
        0x00009b88:    3f748422    ".t?    DCD    1064600610
        0x00009b8c:    be97a117    ....    DCD    3197608215
        0x00009b90:    3f74a1d5    ..t?    DCD    1064608213
        0x00009b94:    be96e100    ....    DCD    3197559040
        0x00009b98:    3f74bf62    b.t?    DCD    1064615778
        0x00009b9c:    be9620d2    . ..    DCD    3197509842
        0x00009ba0:    3f74dcc9    ..t?    DCD    1064623305
        0x00009ba4:    be95608d    .`..    DCD    3197460621
        0x00009ba8:    3f74fa0b    ..t?    DCD    1064630795
        0x00009bac:    be94a031    1...    DCD    3197411377
        0x00009bb0:    3f751727    '.u?    DCD    1064638247
        0x00009bb4:    be93dfbf    ....    DCD    3197362111
        0x00009bb8:    3f75341d    .4u?    DCD    1064645661
        0x00009bbc:    be931f35    5...    DCD    3197312821
        0x00009bc0:    3f7550ed    .Pu?    DCD    1064653037
        0x00009bc4:    be925e94    .^..    DCD    3197263508
        0x00009bc8:    3f756d97    .mu?    DCD    1064660375
        0x00009bcc:    be919ddd    ....    DCD    3197214173
        0x00009bd0:    3f758a1c    ..u?    DCD    1064667676
        0x00009bd4:    be90dd10    ....    DCD    3197164816
        0x00009bd8:    3f75a67b    {.u?    DCD    1064674939
        0x00009bdc:    be901c2c    ,...    DCD    3197115436
        0x00009be0:    3f75c2b3    ..u?    DCD    1064682163
        0x00009be4:    be8f5b32    2[..    DCD    3197066034
        0x00009be8:    3f75dec6    ..u?    DCD    1064689350
        0x00009bec:    be8e9a22    "...    DCD    3197016610
        0x00009bf0:    3f75fab3    ..u?    DCD    1064696499
        0x00009bf4:    be8dd8fc    ....    DCD    3196967164
        0x00009bf8:    3f76167a    z.v?    DCD    1064703610
        0x00009bfc:    be8d17c0    ....    DCD    3196917696
        0x00009c00:    3f76321b    .2v?    DCD    1064710683
        0x00009c04:    be8c566e    nV..    DCD    3196868206
        0x00009c08:    3f764d97    .Mv?    DCD    1064717719
        0x00009c0c:    be8b9507    ....    DCD    3196818695
        0x00009c10:    3f7668ec    .hv?    DCD    1064724716
        0x00009c14:    be8ad38a    ....    DCD    3196769162
        0x00009c18:    3f76841b    ..v?    DCD    1064731675
        0x00009c1c:    be8a11f8    ....    DCD    3196719608
        0x00009c20:    3f769f24    $.v?    DCD    1064738596
        0x00009c24:    be895050    PP..    DCD    3196670032
        0x00009c28:    3f76ba07    ..v?    DCD    1064745479
        0x00009c2c:    be888e93    ....    DCD    3196620435
        0x00009c30:    3f76d4c4    ..v?    DCD    1064752324
        0x00009c34:    be87ccc1    ....    DCD    3196570817
        0x00009c38:    3f76ef5b    [.v?    DCD    1064759131
        0x00009c3c:    be870ada    ....    DCD    3196521178
        0x00009c40:    3f7709cc    ..w?    DCD    1064765900
        0x00009c44:    be8648df    .H..    DCD    3196471519
        0x00009c48:    3f772417    .$w?    DCD    1064772631
        0x00009c4c:    be8586ce    ....    DCD    3196421838
        0x00009c50:    3f773e3c    <>w?    DCD    1064779324
        0x00009c54:    be84c4aa    ....    DCD    3196372138
        0x00009c58:    3f77583a    :Xw?    DCD    1064785978
        0x00009c5c:    be840270    p...    DCD    3196322416
        0x00009c60:    3f777213    .rw?    DCD    1064792595
        0x00009c64:    be834022    "@..    DCD    3196272674
        0x00009c68:    3f778bc5    ..w?    DCD    1064799173
        0x00009c6c:    be827dc0    .}..    DCD    3196222912
        0x00009c70:    3f77a551    Q.w?    DCD    1064805713
        0x00009c74:    be81bb4a    J...    DCD    3196173130
        0x00009c78:    3f77beb7    ..w?    DCD    1064812215
        0x00009c7c:    be80f8c0    ....    DCD    3196123328
        0x00009c80:    3f77d7f7    ..w?    DCD    1064818679
        0x00009c84:    be803622    "6..    DCD    3196073506
        0x00009c88:    3f77f110    ..w?    DCD    1064825104
        0x00009c8c:    be7ee6e1    ..~.    DCD    3195987681
        0x00009c90:    3f780a04    ..x?    DCD    1064831492
        0x00009c94:    be7d6156    Va}.    DCD    3195887958
        0x00009c98:    3f7822d1    ."x?    DCD    1064837841
        0x00009c9c:    be7bdba4    ..{.    DCD    3195788196
        0x00009ca0:    3f783b77    w;x?    DCD    1064844151
        0x00009ca4:    be7a55cb    .Uz.    DCD    3195688395
        0x00009ca8:    3f7853f8    .Sx?    DCD    1064850424
        0x00009cac:    be78cfcc    ..x.    DCD    3195588556
        0x00009cb0:    3f786c52    Rlx?    DCD    1064856658
        0x00009cb4:    be7749a6    .Iw.    DCD    3195488678
        0x00009cb8:    3f788486    ..x?    DCD    1064862854
        0x00009cbc:    be75c35a    Z.u.    DCD    3195388762
        0x00009cc0:    3f789c93    ..x?    DCD    1064869011
        0x00009cc4:    be743ce8    .<t.    DCD    3195288808
        0x00009cc8:    3f78b47b    {.x?    DCD    1064875131
        0x00009ccc:    be72b651    Q.r.    DCD    3195188817
        0x00009cd0:    3f78cc3b    ;.x?    DCD    1064881211
        0x00009cd4:    be712f94    ./q.    DCD    3195088788
        0x00009cd8:    3f78e3d6    ..x?    DCD    1064887254
        0x00009cdc:    be6fa8b2    ..o.    DCD    3194988722
        0x00009ce0:    3f78fb4a    J.x?    DCD    1064893258
        0x00009ce4:    be6e21ab    .!n.    DCD    3194888619
        0x00009ce8:    3f791298    ..y?    DCD    1064899224
        0x00009cec:    be6c9a7f    ..l.    DCD    3194788479
        0x00009cf0:    3f7929bf    .)y?    DCD    1064905151
        0x00009cf4:    be6b132f    /.k.    DCD    3194688303
        0x00009cf8:    3f7940c0    .@y?    DCD    1064911040
        0x00009cfc:    be698bba    ..i.    DCD    3194588090
        0x00009d00:    3f79579a    .Wy?    DCD    1064916890
        0x00009d04:    be680422    ".h.    DCD    3194487842
        0x00009d08:    3f796e4e    Nny?    DCD    1064922702
        0x00009d0c:    be667c66    f|f.    DCD    3194387558
        0x00009d10:    3f7984dc    ..y?    DCD    1064928476
        0x00009d14:    be64f486    ..d.    DCD    3194287238
        0x00009d18:    3f799b43    C.y?    DCD    1064934211
        0x00009d1c:    be636c83    .lc.    DCD    3194186883
        0x00009d20:    3f79b183    ..y?    DCD    1064939907
        0x00009d24:    be61e45c    \.a.    DCD    3194086492
        0x00009d28:    3f79c79d    ..y?    DCD    1064945565
        0x00009d2c:    be605c13    .\`.    DCD    3193986067
        0x00009d30:    3f79dd91    ..y?    DCD    1064951185
        0x00009d34:    be5ed3a8    ..^.    DCD    3193885608
        0x00009d38:    3f79f35e    ^.y?    DCD    1064956766
        0x00009d3c:    be5d4b1a    .K].    DCD    3193785114
        0x00009d40:    3f7a0904    ..z?    DCD    1064962308
        0x00009d44:    be5bc26a    j.[.    DCD    3193684586
        0x00009d48:    3f7a1e84    ..z?    DCD    1064967812
        0x00009d4c:    be5a3997    .9Z.    DCD    3193584023
        0x00009d50:    3f7a33dd    .3z?    DCD    1064973277
        0x00009d54:    be58b0a4    ..X.    DCD    3193483428
        0x00009d58:    3f7a4910    .Iz?    DCD    1064978704
        0x00009d5c:    be57278f    .'W.    DCD    3193382799
        0x00009d60:    3f7a5e1c    .^z?    DCD    1064984092
        0x00009d64:    be559e58    X.U.    DCD    3193282136
        0x00009d68:    3f7a7302    .sz?    DCD    1064989442
        0x00009d6c:    be541501    ..T.    DCD    3193181441
        0x00009d70:    3f7a87c1    ..z?    DCD    1064994753
        0x00009d74:    be528b89    ..R.    DCD    3193080713
        0x00009d78:    3f7a9c59    Y.z?    DCD    1065000025
        0x00009d7c:    be5101f1    ..Q.    DCD    3192979953
        0x00009d80:    3f7ab0cb    ..z?    DCD    1065005259
        0x00009d84:    be4f7838    8xO.    DCD    3192879160
        0x00009d88:    3f7ac516    ..z?    DCD    1065010454
        0x00009d8c:    be4dee60    `.M.    DCD    3192778336
        0x00009d90:    3f7ad93a    :.z?    DCD    1065015610
        0x00009d94:    be4c6467    gdL.    DCD    3192677479
        0x00009d98:    3f7aed37    7.z?    DCD    1065020727
        0x00009d9c:    be4ada4f    O.J.    DCD    3192576591
        0x00009da0:    3f7b010e    ..{?    DCD    1065025806
        0x00009da4:    be495018    .PI.    DCD    3192475672
        0x00009da8:    3f7b14be    ..{?    DCD    1065030846
        0x00009dac:    be47c5c2    ..G.    DCD    3192374722
        0x00009db0:    3f7b2848    H({?    DCD    1065035848
        0x00009db4:    be463b4d    M;F.    DCD    3192273741
        0x00009db8:    3f7b3bab    .;{?    DCD    1065040811
        0x00009dbc:    be44b0b9    ..D.    DCD    3192172729
        0x00009dc0:    3f7b4ee7    .N{?    DCD    1065045735
        0x00009dc4:    be432607    .&C.    DCD    3192071687
        0x00009dc8:    3f7b61fc    .a{?    DCD    1065050620
        0x00009dcc:    be419b37    7.A.    DCD    3191970615
        0x00009dd0:    3f7b74ea    .t{?    DCD    1065055466
        0x00009dd4:    be401049    I.@.    DCD    3191869513
        0x00009dd8:    3f7b87b2    ..{?    DCD    1065060274
        0x00009ddc:    be3e853e    >.>.    DCD    3191768382
        0x00009de0:    3f7b9a53    S.{?    DCD    1065065043
        0x00009de4:    be3cfa15    ..<.    DCD    3191667221
        0x00009de8:    3f7baccd    ..{?    DCD    1065069773
        0x00009dec:    be3b6ecf    .n;.    DCD    3191566031
        0x00009df0:    3f7bbf20     .{?    DCD    1065074464
        0x00009df4:    be39e36c    l.9.    DCD    3191464812
        0x00009df8:    3f7bd14d    M.{?    DCD    1065079117
        0x00009dfc:    be3857ec    .W8.    DCD    3191363564
        0x00009e00:    3f7be353    S.{?    DCD    1065083731
        0x00009e04:    be36cc50    P.6.    DCD    3191262288
        0x00009e08:    3f7bf531    1.{?    DCD    1065088305
        0x00009e0c:    be354098    .@5.    DCD    3191160984
        0x00009e10:    3f7c06e9    ..|?    DCD    1065092841
        0x00009e14:    be33b4c4    ..3.    DCD    3191059652
        0x00009e18:    3f7c187a    z.|?    DCD    1065097338
        0x00009e1c:    be3228d4    .(2.    DCD    3190958292
        0x00009e20:    3f7c29e5    .)|?    DCD    1065101797
        0x00009e24:    be309cc9    ..0.    DCD    3190856905
        0x00009e28:    3f7c3b28    (;|?    DCD    1065106216
        0x00009e2c:    be2f10a2    ../.    DCD    3190755490
        0x00009e30:    3f7c4c44    DL|?    DCD    1065110596
        0x00009e34:    be2d8461    a.-.    DCD    3190654049
        0x00009e38:    3f7c5d3a    :]|?    DCD    1065114938
        0x00009e3c:    be2bf804    ..+.    DCD    3190552580
        0x00009e40:    3f7c6e08    .n|?    DCD    1065119240
        0x00009e44:    be2a6b8d    .k*.    DCD    3190451085
        0x00009e48:    3f7c7eb0    .~|?    DCD    1065123504
        0x00009e4c:    be28defc    ..(.    DCD    3190349564
        0x00009e50:    3f7c8f31    1.|?    DCD    1065127729
        0x00009e54:    be275251    QR'.    DCD    3190248017
        0x00009e58:    3f7c9f8a    ..|?    DCD    1065131914
        0x00009e5c:    be25c58c    ..%.    DCD    3190146444
        0x00009e60:    3f7cafbd    ..|?    DCD    1065136061
        0x00009e64:    be2438ad    .8$.    DCD    3190044845
        0x00009e68:    3f7cbfc9    ..|?    DCD    1065140169
        0x00009e6c:    be22abb6    ..".    DCD    3189943222
        0x00009e70:    3f7ccfae    ..|?    DCD    1065144238
        0x00009e74:    be211ea5    ..!.    DCD    3189841573
        0x00009e78:    3f7cdf6c    l.|?    DCD    1065148268
        0x00009e7c:    be1f917b    {...    DCD    3189739899
        0x00009e80:    3f7cef03    ..|?    DCD    1065152259
        0x00009e84:    be1e0438    8...    DCD    3189638200
        0x00009e88:    3f7cfe73    s.|?    DCD    1065156211
        0x00009e8c:    be1c76de    .v..    DCD    3189536478
        0x00009e90:    3f7d0dbc    ..}?    DCD    1065160124
        0x00009e94:    be1ae96b    k...    DCD    3189434731
        0x00009e98:    3f7d1cdd    ..}?    DCD    1065163997
        0x00009e9c:    be195be0    .[..    DCD    3189332960
        0x00009ea0:    3f7d2bd8    .+}?    DCD    1065167832
        0x00009ea4:    be17ce3d    =...    DCD    3189231165
        0x00009ea8:    3f7d3aac    .:}?    DCD    1065171628
        0x00009eac:    be164083    .@..    DCD    3189129347
        0x00009eb0:    3f7d4959    YI}?    DCD    1065175385
        0x00009eb4:    be14b2b2    ....    DCD    3189027506
        0x00009eb8:    3f7d57de    .W}?    DCD    1065179102
        0x00009ebc:    be1324ca    .$..    DCD    3188925642
        0x00009ec0:    3f7d663d    =f}?    DCD    1065182781
        0x00009ec4:    be1196cc    ....    DCD    3188823756
        0x00009ec8:    3f7d7474    tt}?    DCD    1065186420
        0x00009ecc:    be1008b7    ....    DCD    3188721847
        0x00009ed0:    3f7d8285    ..}?    DCD    1065190021
        0x00009ed4:    be0e7a8b    .z..    DCD    3188619915
        0x00009ed8:    3f7d906e    n.}?    DCD    1065193582
        0x00009edc:    be0cec4a    J...    DCD    3188517962
        0x00009ee0:    3f7d9e30    0.}?    DCD    1065197104
        0x00009ee4:    be0b5df3    .]..    DCD    3188415987
        0x00009ee8:    3f7dabcc    ..}?    DCD    1065200588
        0x00009eec:    be09cf86    ....    DCD    3188313990
        0x00009ef0:    3f7db940    @.}?    DCD    1065204032
        0x00009ef4:    be084105    .A..    DCD    3188211973
        0x00009ef8:    3f7dc68c    ..}?    DCD    1065207436
        0x00009efc:    be06b26e    n...    DCD    3188109934
        0x00009f00:    3f7dd3b2    ..}?    DCD    1065210802
        0x00009f04:    be0523c2    .#..    DCD    3188007874
        0x00009f08:    3f7de0b1    ..}?    DCD    1065214129
        0x00009f0c:    be039502    ....    DCD    3187905794
        0x00009f10:    3f7ded88    ..}?    DCD    1065217416
        0x00009f14:    be02062e    ....    DCD    3187803694
        0x00009f18:    3f7dfa38    8.}?    DCD    1065220664
        0x00009f1c:    be007745    Ew..    DCD    3187701573
        0x00009f20:    3f7e06c2    ..~?    DCD    1065223874
        0x00009f24:    bdfdd092    ....    DCD    3187527826
        0x00009f28:    3f7e1324    $.~?    DCD    1065227044
        0x00009f2c:    bdfab273    s...    DCD    3187323507
        0x00009f30:    3f7e1f5e    ^.~?    DCD    1065230174
        0x00009f34:    bdf7942c    ,...    DCD    3187119148
        0x00009f38:    3f7e2b72    r+~?    DCD    1065233266
        0x00009f3c:    bdf475c0    .u..    DCD    3186914752
        0x00009f40:    3f7e375e    ^7~?    DCD    1065236318
        0x00009f44:    bdf1572e    .W..    DCD    3186710318
        0x00009f48:    3f7e4323    #C~?    DCD    1065239331
        0x00009f4c:    bdee3876    v8..    DCD    3186505846
        0x00009f50:    3f7e4ec1    .N~?    DCD    1065242305
        0x00009f54:    bdeb199a    ....    DCD    3186301338
        0x00009f58:    3f7e5a38    8Z~?    DCD    1065245240
        0x00009f5c:    bde7fa9a    ....    DCD    3186096794
        0x00009f60:    3f7e6588    .e~?    DCD    1065248136
        0x00009f64:    bde4db76    v...    DCD    3185892214
        0x00009f68:    3f7e70b0    .p~?    DCD    1065250992
        0x00009f6c:    bde1bc2e    ....    DCD    3185687598
        0x00009f70:    3f7e7bb1    .{~?    DCD    1065253809
        0x00009f74:    bdde9cc4    ....    DCD    3185482948
        0x00009f78:    3f7e868b    ..~?    DCD    1065256587
        0x00009f7c:    bddb7d37    7}..    DCD    3185278263
        0x00009f80:    3f7e913d    =.~?    DCD    1065259325
        0x00009f84:    bdd85d89    .]..    DCD    3185073545
        0x00009f88:    3f7e9bc9    ..~?    DCD    1065262025
        0x00009f8c:    bdd53db9    .=..    DCD    3184868793
        0x00009f90:    3f7ea62d    -.~?    DCD    1065264685
        0x00009f94:    bdd21dc8    ....    DCD    3184664008
        0x00009f98:    3f7eb069    i.~?    DCD    1065267305
        0x00009f9c:    bdcefdb7    ....    DCD    3184459191
        0x00009fa0:    3f7eba7f    ..~?    DCD    1065269887
        0x00009fa4:    bdcbdd86    ....    DCD    3184254342
        0x00009fa8:    3f7ec46d    m.~?    DCD    1065272429
        0x00009fac:    bdc8bd36    6...    DCD    3184049462
        0x00009fb0:    3f7ece34    4.~?    DCD    1065274932
        0x00009fb4:    bdc59cc6    ....    DCD    3183844550
        0x00009fb8:    3f7ed7d4    ..~?    DCD    1065277396
        0x00009fbc:    bdc27c39    9|..    DCD    3183639609
        0x00009fc0:    3f7ee14c    L.~?    DCD    1065279820
        0x00009fc4:    bdbf5b8d    .[..    DCD    3183434637
        0x00009fc8:    3f7eea9d    ..~?    DCD    1065282205
        0x00009fcc:    bdbc3ac3    .:..    DCD    3183229635
        0x00009fd0:    3f7ef3c7    ..~?    DCD    1065284551
        0x00009fd4:    bdb919dd    ....    DCD    3183024605
        0x00009fd8:    3f7efcc9    ..~?    DCD    1065286857
        0x00009fdc:    bdb5f8da    ....    DCD    3182819546
        0x00009fe0:    3f7f05a4    ...?    DCD    1065289124
        0x00009fe4:    bdb2d7bb    ....    DCD    3182614459
        0x00009fe8:    3f7f0e58    X..?    DCD    1065291352
        0x00009fec:    bdafb680    ....    DCD    3182409344
        0x00009ff0:    3f7f16e4    ...?    DCD    1065293540
        0x00009ff4:    bdac952b    +...    DCD    3182204203
        0x00009ff8:    3f7f1f49    I..?    DCD    1065295689
        0x00009ffc:    bda973ba    .s..    DCD    3181999034
        0x0000a000:    3f7f2787    .'.?    DCD    1065297799
        0x0000a004:    bda65230    0R..    DCD    3181793840
        0x0000a008:    3f7f2f9d    ./.?    DCD    1065299869
        0x0000a00c:    bda3308c    .0..    DCD    3181588620
        0x0000a010:    3f7f378d    .7.?    DCD    1065301901
        0x0000a014:    bda00ecf    ....    DCD    3181383375
        0x0000a018:    3f7f3f54    T?.?    DCD    1065303892
        0x0000a01c:    bd9cecf9    ....    DCD    3181178105
        0x0000a020:    3f7f46f4    .F.?    DCD    1065305844
        0x0000a024:    bd99cb0a    ....    DCD    3180972810
        0x0000a028:    3f7f4e6d    mN.?    DCD    1065307757
        0x0000a02c:    bd96a905    ....    DCD    3180767493
        0x0000a030:    3f7f55bf    .U.?    DCD    1065309631
        0x0000a034:    bd9386e7    ....    DCD    3180562151
        0x0000a038:    3f7f5ce9    .\.?    DCD    1065311465
        0x0000a03c:    bd9064b4    .d..    DCD    3180356788
        0x0000a040:    3f7f63ec    .c.?    DCD    1065313260
        0x0000a044:    bd8d426a    jB..    DCD    3180151402
        0x0000a048:    3f7f6ac7    .j.?    DCD    1065315015
        0x0000a04c:    bd8a200a    . ..    DCD    3179945994
        0x0000a050:    3f7f717b    {q.?    DCD    1065316731
        0x0000a054:    bd86fd94    ....    DCD    3179740564
        0x0000a058:    3f7f7808    .x.?    DCD    1065318408
        0x0000a05c:    bd83db0a    ....    DCD    3179535114
        0x0000a060:    3f7f7e6d    m~.?    DCD    1065320045
        0x0000a064:    bd80b86c    l...    DCD    3179329644
        0x0000a068:    3f7f84ab    ...?    DCD    1065321643
        0x0000a06c:    bd7b2b74    t+{.    DCD    3178965876
        0x0000a070:    3f7f8ac2    ...?    DCD    1065323202
        0x0000a074:    bd74e5e9    ..t.    DCD    3178554857
        0x0000a078:    3f7f90b1    ...?    DCD    1065324721
        0x0000a07c:    bd6ea038    8.n.    DCD    3178143800
        0x0000a080:    3f7f9678    x..?    DCD    1065326200
        0x0000a084:    bd685a62    bZh.    DCD    3177732706
        0x0000a088:    3f7f9c18    ...?    DCD    1065327640
        0x0000a08c:    bd621468    h.b.    DCD    3177321576
        0x0000a090:    3f7fa191    ...?    DCD    1065329041
        0x0000a094:    bd5bce4c    L.[.    DCD    3176910412
        0x0000a098:    3f7fa6e3    ...?    DCD    1065330403
        0x0000a09c:    bd55880e    ..U.    DCD    3176499214
        0x0000a0a0:    3f7fac0d    ...?    DCD    1065331725
        0x0000a0a4:    bd4f41af    .AO.    DCD    3176087983
        0x0000a0a8:    3f7fb10f    ...?    DCD    1065333007
        0x0000a0ac:    bd48fb2f    /.H.    DCD    3175676719
        0x0000a0b0:    3f7fb5ea    ...?    DCD    1065334250
        0x0000a0b4:    bd42b491    ..B.    DCD    3175265425
        0x0000a0b8:    3f7fba9e    ...?    DCD    1065335454
        0x0000a0bc:    bd3c6dd5    .m<.    DCD    3174854101
        0x0000a0c0:    3f7fbf2a    *..?    DCD    1065336618
        0x0000a0c4:    bd3626fc    .&6.    DCD    3174442748
        0x0000a0c8:    3f7fc38f    ...?    DCD    1065337743
        0x0000a0cc:    bd2fe007    ../.    DCD    3174031367
        0x0000a0d0:    3f7fc7cc    ...?    DCD    1065338828
        0x0000a0d4:    bd2998f6    ..).    DCD    3173619958
        0x0000a0d8:    3f7fcbe2    ...?    DCD    1065339874
        0x0000a0dc:    bd2351cc    .Q#.    DCD    3173208524
        0x0000a0e0:    3f7fcfd1    ...?    DCD    1065340881
        0x0000a0e4:    bd1d0a88    ....    DCD    3172797064
        0x0000a0e8:    3f7fd398    ...?    DCD    1065341848
        0x0000a0ec:    bd16c32c    ,...    DCD    3172385580
        0x0000a0f0:    3f7fd737    7..?    DCD    1065342775
        0x0000a0f4:    bd107bb8    .{..    DCD    3171974072
        0x0000a0f8:    3f7fdaaf    ...?    DCD    1065343663
        0x0000a0fc:    bd0a342f    /4..    DCD    3171562543
        0x0000a100:    3f7fde00    ...?    DCD    1065344512
        0x0000a104:    bd03ec90    ....    DCD    3171150992
        0x0000a108:    3f7fe129    )..?    DCD    1065345321
        0x0000a10c:    bcfb49b9    .I..    DCD    3170585017
        0x0000a110:    3f7fe42b    +..?    DCD    1065346091
        0x0000a114:    bceeba2d    -...    DCD    3169761837
        0x0000a118:    3f7fe705    ...?    DCD    1065346821
        0x0000a11c:    bce22a7b    {*..    DCD    3168938619
        0x0000a120:    3f7fe9b8    ...?    DCD    1065347512
        0x0000a124:    bcd59aa6    ....    DCD    3168115366
        0x0000a128:    3f7fec43    C..?    DCD    1065348163
        0x0000a12c:    bcc90ab0    ....    DCD    3167292080
        0x0000a130:    3f7feea7    ...?    DCD    1065348775
        0x0000a134:    bcbc7a9b    .z..    DCD    3166468763
        0x0000a138:    3f7ff0e3    ...?    DCD    1065349347
        0x0000a13c:    bcafea69    i...    DCD    3165645417
        0x0000a140:    3f7ff2f8    ...?    DCD    1065349880
        0x0000a144:    bca35a1c    .Z..    DCD    3164822044
        0x0000a148:    3f7ff4e6    ...?    DCD    1065350374
        0x0000a14c:    bc96c9b6    ....    DCD    3163998646
        0x0000a150:    3f7ff6ac    ...?    DCD    1065350828
        0x0000a154:    bc8a3938    89..    DCD    3163175224
        0x0000a158:    3f7ff84a    J..?    DCD    1065351242
        0x0000a15c:    bc7b514b    KQ{.    DCD    3162198347
        0x0000a160:    3f7ff9c1    ...?    DCD    1065351617
        0x0000a164:    bc623000    .0b.    DCD    3160551424
        0x0000a168:    3f7ffb11    ...?    DCD    1065351953
        0x0000a16c:    bc490e90    ..I.    DCD    3158904464
        0x0000a170:    3f7ffc39    9..?    DCD    1065352249
        0x0000a174:    bc2fed02    ../.    DCD    3157257474
        0x0000a178:    3f7ffd39    9..?    DCD    1065352505
        0x0000a17c:    bc16cb59    Y...    DCD    3155610457
        0x0000a180:    3f7ffe13    ...?    DCD    1065352723
        0x0000a184:    bbfb5330    0S..    DCD    3153810224
        0x0000a188:    3f7ffec4    ...?    DCD    1065352900
        0x0000a18c:    bbc90f89    ....    DCD    3150516105
        0x0000a190:    3f7fff4e    N..?    DCD    1065353038
        0x0000a194:    bb96cbc1    ....    DCD    3147221953
        0x0000a198:    3f7fffb1    ...?    DCD    1065353137
        0x0000a19c:    bb490fc7    ..I.    DCD    3142127559
        0x0000a1a0:    3f7fffec    ...?    DCD    1065353196
        0x0000a1a4:    bac90fd4    ....    DCD    3133738964
    Region$$Table$$Base
        0x0000a1a8:    0000a1c8    ....    DCD    41416
        0x0000a1ac:    20000000    ...     DCD    536870912
        0x0000a1b0:    00002044    D ..    DCD    8260
        0x0000a1b4:    000014bc    ....    DCD    5308
        0x0000a1b8:    0000c20c    ....    DCD    49676
        0x0000a1bc:    20002044    D .     DCD    536879172
        0x0000a1c0:    00001804    ....    DCD    6148
        0x0000a1c4:    000014cc    ....    DCD    5324
    Region$$Table$$Limit

** Section #2 'ER_RW' (SHT_PROGBITS) [SHF_ALLOC + SHF_WRITE]
    Size   : 8260 bytes (alignment 4)
    Address: 0x20000000


** Section #3 'ER_ZI' (SHT_NOBITS) [SHF_ALLOC + SHF_WRITE]
    Size   : 6148 bytes (alignment 8)
    Address: 0x20002044


** Section #4 '.debug_abbrev' (SHT_PROGBITS)
    Size   : 1476 bytes


** Section #5 '.debug_frame' (SHT_PROGBITS)
    Size   : 2428 bytes


** Section #6 '.debug_info' (SHT_PROGBITS)
    Size   : 55576 bytes


** Section #7 '.debug_line' (SHT_PROGBITS)
    Size   : 9152 bytes


** Section #8 '.debug_loc' (SHT_PROGBITS)
    Size   : 3944 bytes


** Section #9 '.debug_macinfo' (SHT_PROGBITS)
    Size   : 105432 bytes


** Section #10 '.debug_pubnames' (SHT_PROGBITS)
    Size   : 2792 bytes


** Section #11 '.symtab' (SHT_SYMTAB)
    Size   : 6384 bytes (alignment 4)
    String table #12 '.strtab'
    Last local symbol no. 183


** Section #12 '.strtab' (SHT_STRTAB)
    Size   : 5920 bytes


** Section #13 '.note' (SHT_NOTE)
    Size   : 28 bytes (alignment 4)


** Section #14 '.comment' (SHT_PROGBITS)
    Size   : 16552 bytes


** Section #15 '.shstrtab' (SHT_STRTAB)
    Size   : 156 bytes


